
multibarrier-evented:     file format elf64-x86-64


Disassembly of section .init:

0000000000004000 <_init>:
    4000:	f3 0f 1e fa          	endbr64
    4004:	48 83 ec 08          	sub    $0x8,%rsp
    4008:	48 8b 05 c9 ff 00 00 	mov    0xffc9(%rip),%rax        # 13fd8 <__gmon_start__@Base>
    400f:	48 85 c0             	test   %rax,%rax
    4012:	74 02                	je     4016 <_init+0x16>
    4014:	ff d0                	call   *%rax
    4016:	48 83 c4 08          	add    $0x8,%rsp
    401a:	c3                   	ret

Disassembly of section .plt:

0000000000004020 <.plt>:
    4020:	ff 35 a2 fd 00 00    	push   0xfda2(%rip)        # 13dc8 <_GLOBAL_OFFSET_TABLE_+0x8>
    4026:	ff 25 a4 fd 00 00    	jmp    *0xfda4(%rip)        # 13dd0 <_GLOBAL_OFFSET_TABLE_+0x10>
    402c:	0f 1f 40 00          	nopl   0x0(%rax)
    4030:	f3 0f 1e fa          	endbr64
    4034:	68 00 00 00 00       	push   $0x0
    4039:	e9 e2 ff ff ff       	jmp    4020 <_init+0x20>
    403e:	66 90                	xchg   %ax,%ax
    4040:	f3 0f 1e fa          	endbr64
    4044:	68 01 00 00 00       	push   $0x1
    4049:	e9 d2 ff ff ff       	jmp    4020 <_init+0x20>
    404e:	66 90                	xchg   %ax,%ax
    4050:	f3 0f 1e fa          	endbr64
    4054:	68 02 00 00 00       	push   $0x2
    4059:	e9 c2 ff ff ff       	jmp    4020 <_init+0x20>
    405e:	66 90                	xchg   %ax,%ax
    4060:	f3 0f 1e fa          	endbr64
    4064:	68 03 00 00 00       	push   $0x3
    4069:	e9 b2 ff ff ff       	jmp    4020 <_init+0x20>
    406e:	66 90                	xchg   %ax,%ax
    4070:	f3 0f 1e fa          	endbr64
    4074:	68 04 00 00 00       	push   $0x4
    4079:	e9 a2 ff ff ff       	jmp    4020 <_init+0x20>
    407e:	66 90                	xchg   %ax,%ax
    4080:	f3 0f 1e fa          	endbr64
    4084:	68 05 00 00 00       	push   $0x5
    4089:	e9 92 ff ff ff       	jmp    4020 <_init+0x20>
    408e:	66 90                	xchg   %ax,%ax
    4090:	f3 0f 1e fa          	endbr64
    4094:	68 06 00 00 00       	push   $0x6
    4099:	e9 82 ff ff ff       	jmp    4020 <_init+0x20>
    409e:	66 90                	xchg   %ax,%ax
    40a0:	f3 0f 1e fa          	endbr64
    40a4:	68 07 00 00 00       	push   $0x7
    40a9:	e9 72 ff ff ff       	jmp    4020 <_init+0x20>
    40ae:	66 90                	xchg   %ax,%ax
    40b0:	f3 0f 1e fa          	endbr64
    40b4:	68 08 00 00 00       	push   $0x8
    40b9:	e9 62 ff ff ff       	jmp    4020 <_init+0x20>
    40be:	66 90                	xchg   %ax,%ax
    40c0:	f3 0f 1e fa          	endbr64
    40c4:	68 09 00 00 00       	push   $0x9
    40c9:	e9 52 ff ff ff       	jmp    4020 <_init+0x20>
    40ce:	66 90                	xchg   %ax,%ax
    40d0:	f3 0f 1e fa          	endbr64
    40d4:	68 0a 00 00 00       	push   $0xa
    40d9:	e9 42 ff ff ff       	jmp    4020 <_init+0x20>
    40de:	66 90                	xchg   %ax,%ax
    40e0:	f3 0f 1e fa          	endbr64
    40e4:	68 0b 00 00 00       	push   $0xb
    40e9:	e9 32 ff ff ff       	jmp    4020 <_init+0x20>
    40ee:	66 90                	xchg   %ax,%ax
    40f0:	f3 0f 1e fa          	endbr64
    40f4:	68 0c 00 00 00       	push   $0xc
    40f9:	e9 22 ff ff ff       	jmp    4020 <_init+0x20>
    40fe:	66 90                	xchg   %ax,%ax
    4100:	f3 0f 1e fa          	endbr64
    4104:	68 0d 00 00 00       	push   $0xd
    4109:	e9 12 ff ff ff       	jmp    4020 <_init+0x20>
    410e:	66 90                	xchg   %ax,%ax
    4110:	f3 0f 1e fa          	endbr64
    4114:	68 0e 00 00 00       	push   $0xe
    4119:	e9 02 ff ff ff       	jmp    4020 <_init+0x20>
    411e:	66 90                	xchg   %ax,%ax
    4120:	f3 0f 1e fa          	endbr64
    4124:	68 0f 00 00 00       	push   $0xf
    4129:	e9 f2 fe ff ff       	jmp    4020 <_init+0x20>
    412e:	66 90                	xchg   %ax,%ax
    4130:	f3 0f 1e fa          	endbr64
    4134:	68 10 00 00 00       	push   $0x10
    4139:	e9 e2 fe ff ff       	jmp    4020 <_init+0x20>
    413e:	66 90                	xchg   %ax,%ax
    4140:	f3 0f 1e fa          	endbr64
    4144:	68 11 00 00 00       	push   $0x11
    4149:	e9 d2 fe ff ff       	jmp    4020 <_init+0x20>
    414e:	66 90                	xchg   %ax,%ax
    4150:	f3 0f 1e fa          	endbr64
    4154:	68 12 00 00 00       	push   $0x12
    4159:	e9 c2 fe ff ff       	jmp    4020 <_init+0x20>
    415e:	66 90                	xchg   %ax,%ax
    4160:	f3 0f 1e fa          	endbr64
    4164:	68 13 00 00 00       	push   $0x13
    4169:	e9 b2 fe ff ff       	jmp    4020 <_init+0x20>
    416e:	66 90                	xchg   %ax,%ax
    4170:	f3 0f 1e fa          	endbr64
    4174:	68 14 00 00 00       	push   $0x14
    4179:	e9 a2 fe ff ff       	jmp    4020 <_init+0x20>
    417e:	66 90                	xchg   %ax,%ax
    4180:	f3 0f 1e fa          	endbr64
    4184:	68 15 00 00 00       	push   $0x15
    4189:	e9 92 fe ff ff       	jmp    4020 <_init+0x20>
    418e:	66 90                	xchg   %ax,%ax
    4190:	f3 0f 1e fa          	endbr64
    4194:	68 16 00 00 00       	push   $0x16
    4199:	e9 82 fe ff ff       	jmp    4020 <_init+0x20>
    419e:	66 90                	xchg   %ax,%ax
    41a0:	f3 0f 1e fa          	endbr64
    41a4:	68 17 00 00 00       	push   $0x17
    41a9:	e9 72 fe ff ff       	jmp    4020 <_init+0x20>
    41ae:	66 90                	xchg   %ax,%ax
    41b0:	f3 0f 1e fa          	endbr64
    41b4:	68 18 00 00 00       	push   $0x18
    41b9:	e9 62 fe ff ff       	jmp    4020 <_init+0x20>
    41be:	66 90                	xchg   %ax,%ax
    41c0:	f3 0f 1e fa          	endbr64
    41c4:	68 19 00 00 00       	push   $0x19
    41c9:	e9 52 fe ff ff       	jmp    4020 <_init+0x20>
    41ce:	66 90                	xchg   %ax,%ax
    41d0:	f3 0f 1e fa          	endbr64
    41d4:	68 1a 00 00 00       	push   $0x1a
    41d9:	e9 42 fe ff ff       	jmp    4020 <_init+0x20>
    41de:	66 90                	xchg   %ax,%ax
    41e0:	f3 0f 1e fa          	endbr64
    41e4:	68 1b 00 00 00       	push   $0x1b
    41e9:	e9 32 fe ff ff       	jmp    4020 <_init+0x20>
    41ee:	66 90                	xchg   %ax,%ax
    41f0:	f3 0f 1e fa          	endbr64
    41f4:	68 1c 00 00 00       	push   $0x1c
    41f9:	e9 22 fe ff ff       	jmp    4020 <_init+0x20>
    41fe:	66 90                	xchg   %ax,%ax
    4200:	f3 0f 1e fa          	endbr64
    4204:	68 1d 00 00 00       	push   $0x1d
    4209:	e9 12 fe ff ff       	jmp    4020 <_init+0x20>
    420e:	66 90                	xchg   %ax,%ax
    4210:	f3 0f 1e fa          	endbr64
    4214:	68 1e 00 00 00       	push   $0x1e
    4219:	e9 02 fe ff ff       	jmp    4020 <_init+0x20>
    421e:	66 90                	xchg   %ax,%ax
    4220:	f3 0f 1e fa          	endbr64
    4224:	68 1f 00 00 00       	push   $0x1f
    4229:	e9 f2 fd ff ff       	jmp    4020 <_init+0x20>
    422e:	66 90                	xchg   %ax,%ax
    4230:	f3 0f 1e fa          	endbr64
    4234:	68 20 00 00 00       	push   $0x20
    4239:	e9 e2 fd ff ff       	jmp    4020 <_init+0x20>
    423e:	66 90                	xchg   %ax,%ax
    4240:	f3 0f 1e fa          	endbr64
    4244:	68 21 00 00 00       	push   $0x21
    4249:	e9 d2 fd ff ff       	jmp    4020 <_init+0x20>
    424e:	66 90                	xchg   %ax,%ax
    4250:	f3 0f 1e fa          	endbr64
    4254:	68 22 00 00 00       	push   $0x22
    4259:	e9 c2 fd ff ff       	jmp    4020 <_init+0x20>
    425e:	66 90                	xchg   %ax,%ax
    4260:	f3 0f 1e fa          	endbr64
    4264:	68 23 00 00 00       	push   $0x23
    4269:	e9 b2 fd ff ff       	jmp    4020 <_init+0x20>
    426e:	66 90                	xchg   %ax,%ax
    4270:	f3 0f 1e fa          	endbr64
    4274:	68 24 00 00 00       	push   $0x24
    4279:	e9 a2 fd ff ff       	jmp    4020 <_init+0x20>
    427e:	66 90                	xchg   %ax,%ax
    4280:	f3 0f 1e fa          	endbr64
    4284:	68 25 00 00 00       	push   $0x25
    4289:	e9 92 fd ff ff       	jmp    4020 <_init+0x20>
    428e:	66 90                	xchg   %ax,%ax
    4290:	f3 0f 1e fa          	endbr64
    4294:	68 26 00 00 00       	push   $0x26
    4299:	e9 82 fd ff ff       	jmp    4020 <_init+0x20>
    429e:	66 90                	xchg   %ax,%ax
    42a0:	f3 0f 1e fa          	endbr64
    42a4:	68 27 00 00 00       	push   $0x27
    42a9:	e9 72 fd ff ff       	jmp    4020 <_init+0x20>
    42ae:	66 90                	xchg   %ax,%ax
    42b0:	f3 0f 1e fa          	endbr64
    42b4:	68 28 00 00 00       	push   $0x28
    42b9:	e9 62 fd ff ff       	jmp    4020 <_init+0x20>
    42be:	66 90                	xchg   %ax,%ax
    42c0:	f3 0f 1e fa          	endbr64
    42c4:	68 29 00 00 00       	push   $0x29
    42c9:	e9 52 fd ff ff       	jmp    4020 <_init+0x20>
    42ce:	66 90                	xchg   %ax,%ax
    42d0:	f3 0f 1e fa          	endbr64
    42d4:	68 2a 00 00 00       	push   $0x2a
    42d9:	e9 42 fd ff ff       	jmp    4020 <_init+0x20>
    42de:	66 90                	xchg   %ax,%ax
    42e0:	f3 0f 1e fa          	endbr64
    42e4:	68 2b 00 00 00       	push   $0x2b
    42e9:	e9 32 fd ff ff       	jmp    4020 <_init+0x20>
    42ee:	66 90                	xchg   %ax,%ax
    42f0:	f3 0f 1e fa          	endbr64
    42f4:	68 2c 00 00 00       	push   $0x2c
    42f9:	e9 22 fd ff ff       	jmp    4020 <_init+0x20>
    42fe:	66 90                	xchg   %ax,%ax
    4300:	f3 0f 1e fa          	endbr64
    4304:	68 2d 00 00 00       	push   $0x2d
    4309:	e9 12 fd ff ff       	jmp    4020 <_init+0x20>
    430e:	66 90                	xchg   %ax,%ax
    4310:	f3 0f 1e fa          	endbr64
    4314:	68 2e 00 00 00       	push   $0x2e
    4319:	e9 02 fd ff ff       	jmp    4020 <_init+0x20>
    431e:	66 90                	xchg   %ax,%ax
    4320:	f3 0f 1e fa          	endbr64
    4324:	68 2f 00 00 00       	push   $0x2f
    4329:	e9 f2 fc ff ff       	jmp    4020 <_init+0x20>
    432e:	66 90                	xchg   %ax,%ax
    4330:	f3 0f 1e fa          	endbr64
    4334:	68 30 00 00 00       	push   $0x30
    4339:	e9 e2 fc ff ff       	jmp    4020 <_init+0x20>
    433e:	66 90                	xchg   %ax,%ax
    4340:	f3 0f 1e fa          	endbr64
    4344:	68 31 00 00 00       	push   $0x31
    4349:	e9 d2 fc ff ff       	jmp    4020 <_init+0x20>
    434e:	66 90                	xchg   %ax,%ax
    4350:	f3 0f 1e fa          	endbr64
    4354:	68 32 00 00 00       	push   $0x32
    4359:	e9 c2 fc ff ff       	jmp    4020 <_init+0x20>
    435e:	66 90                	xchg   %ax,%ax
    4360:	f3 0f 1e fa          	endbr64
    4364:	68 33 00 00 00       	push   $0x33
    4369:	e9 b2 fc ff ff       	jmp    4020 <_init+0x20>
    436e:	66 90                	xchg   %ax,%ax
    4370:	f3 0f 1e fa          	endbr64
    4374:	68 34 00 00 00       	push   $0x34
    4379:	e9 a2 fc ff ff       	jmp    4020 <_init+0x20>
    437e:	66 90                	xchg   %ax,%ax
    4380:	f3 0f 1e fa          	endbr64
    4384:	68 35 00 00 00       	push   $0x35
    4389:	e9 92 fc ff ff       	jmp    4020 <_init+0x20>
    438e:	66 90                	xchg   %ax,%ax
    4390:	f3 0f 1e fa          	endbr64
    4394:	68 36 00 00 00       	push   $0x36
    4399:	e9 82 fc ff ff       	jmp    4020 <_init+0x20>
    439e:	66 90                	xchg   %ax,%ax
    43a0:	f3 0f 1e fa          	endbr64
    43a4:	68 37 00 00 00       	push   $0x37
    43a9:	e9 72 fc ff ff       	jmp    4020 <_init+0x20>
    43ae:	66 90                	xchg   %ax,%ax
    43b0:	f3 0f 1e fa          	endbr64
    43b4:	68 38 00 00 00       	push   $0x38
    43b9:	e9 62 fc ff ff       	jmp    4020 <_init+0x20>
    43be:	66 90                	xchg   %ax,%ax
    43c0:	f3 0f 1e fa          	endbr64
    43c4:	68 39 00 00 00       	push   $0x39
    43c9:	e9 52 fc ff ff       	jmp    4020 <_init+0x20>
    43ce:	66 90                	xchg   %ax,%ax
    43d0:	f3 0f 1e fa          	endbr64
    43d4:	68 3a 00 00 00       	push   $0x3a
    43d9:	e9 42 fc ff ff       	jmp    4020 <_init+0x20>
    43de:	66 90                	xchg   %ax,%ax
    43e0:	f3 0f 1e fa          	endbr64
    43e4:	68 3b 00 00 00       	push   $0x3b
    43e9:	e9 32 fc ff ff       	jmp    4020 <_init+0x20>
    43ee:	66 90                	xchg   %ax,%ax
    43f0:	f3 0f 1e fa          	endbr64
    43f4:	68 3c 00 00 00       	push   $0x3c
    43f9:	e9 22 fc ff ff       	jmp    4020 <_init+0x20>
    43fe:	66 90                	xchg   %ax,%ax
    4400:	f3 0f 1e fa          	endbr64
    4404:	68 3d 00 00 00       	push   $0x3d
    4409:	e9 12 fc ff ff       	jmp    4020 <_init+0x20>
    440e:	66 90                	xchg   %ax,%ax
    4410:	f3 0f 1e fa          	endbr64
    4414:	68 3e 00 00 00       	push   $0x3e
    4419:	e9 02 fc ff ff       	jmp    4020 <_init+0x20>
    441e:	66 90                	xchg   %ax,%ax
    4420:	f3 0f 1e fa          	endbr64
    4424:	68 3f 00 00 00       	push   $0x3f
    4429:	e9 f2 fb ff ff       	jmp    4020 <_init+0x20>
    442e:	66 90                	xchg   %ax,%ax

Disassembly of section .plt.got:

0000000000004430 <__cxa_finalize@plt>:
    4430:	f3 0f 1e fa          	endbr64
    4434:	ff 25 b6 fb 00 00    	jmp    *0xfbb6(%rip)        # 13ff0 <__cxa_finalize@GLIBC_2.2.5>
    443a:	66 0f 1f 44 00 00    	nopw   0x0(%rax,%rax,1)

Disassembly of section .plt.sec:

0000000000004440 <pthread_setaffinity_np@plt>:
    4440:	f3 0f 1e fa          	endbr64
    4444:	ff 25 8e f9 00 00    	jmp    *0xf98e(%rip)        # 13dd8 <pthread_setaffinity_np@GLIBC_2.34>
    444a:	66 0f 1f 44 00 00    	nopw   0x0(%rax,%rax,1)

0000000000004450 <__asan_poison_stack_memory@plt>:
    4450:	f3 0f 1e fa          	endbr64
    4454:	ff 25 86 f9 00 00    	jmp    *0xf986(%rip)        # 13de0 <__asan_poison_stack_memory@Base>
    445a:	66 0f 1f 44 00 00    	nopw   0x0(%rax,%rax,1)

0000000000004460 <calloc@plt>:
    4460:	f3 0f 1e fa          	endbr64
    4464:	ff 25 7e f9 00 00    	jmp    *0xf97e(%rip)        # 13de8 <calloc@Base>
    446a:	66 0f 1f 44 00 00    	nopw   0x0(%rax,%rax,1)

0000000000004470 <io_uring_queue_init@plt>:
    4470:	f3 0f 1e fa          	endbr64
    4474:	ff 25 76 f9 00 00    	jmp    *0xf976(%rip)        # 13df0 <io_uring_queue_init@LIBURING_2.0>
    447a:	66 0f 1f 44 00 00    	nopw   0x0(%rax,%rax,1)

0000000000004480 <clock_gettime@plt>:
    4480:	f3 0f 1e fa          	endbr64
    4484:	ff 25 6e f9 00 00    	jmp    *0xf96e(%rip)        # 13df8 <clock_gettime@Base>
    448a:	66 0f 1f 44 00 00    	nopw   0x0(%rax,%rax,1)

0000000000004490 <close@plt>:
    4490:	f3 0f 1e fa          	endbr64
    4494:	ff 25 66 f9 00 00    	jmp    *0xf966(%rip)        # 13e00 <close@GLIBC_2.2.5>
    449a:	66 0f 1f 44 00 00    	nopw   0x0(%rax,%rax,1)

00000000000044a0 <fwrite@plt>:
    44a0:	f3 0f 1e fa          	endbr64
    44a4:	ff 25 5e f9 00 00    	jmp    *0xf95e(%rip)        # 13e08 <fwrite@Base>
    44aa:	66 0f 1f 44 00 00    	nopw   0x0(%rax,%rax,1)

00000000000044b0 <__asan_init@plt>:
    44b0:	f3 0f 1e fa          	endbr64
    44b4:	ff 25 56 f9 00 00    	jmp    *0xf956(%rip)        # 13e10 <__asan_init@Base>
    44ba:	66 0f 1f 44 00 00    	nopw   0x0(%rax,%rax,1)

00000000000044c0 <memcpy@plt>:
    44c0:	f3 0f 1e fa          	endbr64
    44c4:	ff 25 4e f9 00 00    	jmp    *0xf94e(%rip)        # 13e18 <memcpy@Base>
    44ca:	66 0f 1f 44 00 00    	nopw   0x0(%rax,%rax,1)

00000000000044d0 <__asan_stack_malloc_2@plt>:
    44d0:	f3 0f 1e fa          	endbr64
    44d4:	ff 25 46 f9 00 00    	jmp    *0xf946(%rip)        # 13e20 <__asan_stack_malloc_2@Base>
    44da:	66 0f 1f 44 00 00    	nopw   0x0(%rax,%rax,1)

00000000000044e0 <__asan_report_load8@plt>:
    44e0:	f3 0f 1e fa          	endbr64
    44e4:	ff 25 3e f9 00 00    	jmp    *0xf93e(%rip)        # 13e28 <__asan_report_load8@Base>
    44ea:	66 0f 1f 44 00 00    	nopw   0x0(%rax,%rax,1)

00000000000044f0 <__asan_stack_malloc_1@plt>:
    44f0:	f3 0f 1e fa          	endbr64
    44f4:	ff 25 36 f9 00 00    	jmp    *0xf936(%rip)        # 13e30 <__asan_stack_malloc_1@Base>
    44fa:	66 0f 1f 44 00 00    	nopw   0x0(%rax,%rax,1)

0000000000004500 <__asan_report_store2@plt>:
    4500:	f3 0f 1e fa          	endbr64
    4504:	ff 25 2e f9 00 00    	jmp    *0xf92e(%rip)        # 13e38 <__asan_report_store2@Base>
    450a:	66 0f 1f 44 00 00    	nopw   0x0(%rax,%rax,1)

0000000000004510 <exit@plt>:
    4510:	f3 0f 1e fa          	endbr64
    4514:	ff 25 26 f9 00 00    	jmp    *0xf926(%rip)        # 13e40 <exit@GLIBC_2.2.5>
    451a:	66 0f 1f 44 00 00    	nopw   0x0(%rax,%rax,1)

0000000000004520 <__printf_chk@plt>:
    4520:	f3 0f 1e fa          	endbr64
    4524:	ff 25 1e f9 00 00    	jmp    *0xf91e(%rip)        # 13e48 <__printf_chk@GLIBC_2.3.4>
    452a:	66 0f 1f 44 00 00    	nopw   0x0(%rax,%rax,1)

0000000000004530 <putchar@plt>:
    4530:	f3 0f 1e fa          	endbr64
    4534:	ff 25 16 f9 00 00    	jmp    *0xf916(%rip)        # 13e50 <putchar@GLIBC_2.2.5>
    453a:	66 0f 1f 44 00 00    	nopw   0x0(%rax,%rax,1)

0000000000004540 <__asan_stack_malloc_6@plt>:
    4540:	f3 0f 1e fa          	endbr64
    4544:	ff 25 0e f9 00 00    	jmp    *0xf90e(%rip)        # 13e58 <__asan_stack_malloc_6@Base>
    454a:	66 0f 1f 44 00 00    	nopw   0x0(%rax,%rax,1)

0000000000004550 <__asan_report_load4@plt>:
    4550:	f3 0f 1e fa          	endbr64
    4554:	ff 25 06 f9 00 00    	jmp    *0xf906(%rip)        # 13e60 <__asan_report_load4@Base>
    455a:	66 0f 1f 44 00 00    	nopw   0x0(%rax,%rax,1)

0000000000004560 <__asan_report_load_n@plt>:
    4560:	f3 0f 1e fa          	endbr64
    4564:	ff 25 fe f8 00 00    	jmp    *0xf8fe(%rip)        # 13e68 <__asan_report_load_n@Base>
    456a:	66 0f 1f 44 00 00    	nopw   0x0(%rax,%rax,1)

0000000000004570 <__asan_unpoison_stack_memory@plt>:
    4570:	f3 0f 1e fa          	endbr64
    4574:	ff 25 f6 f8 00 00    	jmp    *0xf8f6(%rip)        # 13e70 <__asan_unpoison_stack_memory@Base>
    457a:	66 0f 1f 44 00 00    	nopw   0x0(%rax,%rax,1)

0000000000004580 <__asan_report_store_n@plt>:
    4580:	f3 0f 1e fa          	endbr64
    4584:	ff 25 ee f8 00 00    	jmp    *0xf8ee(%rip)        # 13e78 <__asan_report_store_n@Base>
    458a:	66 0f 1f 44 00 00    	nopw   0x0(%rax,%rax,1)

0000000000004590 <malloc@plt>:
    4590:	f3 0f 1e fa          	endbr64
    4594:	ff 25 e6 f8 00 00    	jmp    *0xf8e6(%rip)        # 13e80 <malloc@Base>
    459a:	66 0f 1f 44 00 00    	nopw   0x0(%rax,%rax,1)

00000000000045a0 <strrchr@plt>:
    45a0:	f3 0f 1e fa          	endbr64
    45a4:	ff 25 de f8 00 00    	jmp    *0xf8de(%rip)        # 13e88 <strrchr@Base>
    45aa:	66 0f 1f 44 00 00    	nopw   0x0(%rax,%rax,1)

00000000000045b0 <__memcpy_chk@plt>:
    45b0:	f3 0f 1e fa          	endbr64
    45b4:	ff 25 d6 f8 00 00    	jmp    *0xf8d6(%rip)        # 13e90 <__memcpy_chk@GLIBC_2.3.4>
    45ba:	66 0f 1f 44 00 00    	nopw   0x0(%rax,%rax,1)

00000000000045c0 <setsockopt@plt>:
    45c0:	f3 0f 1e fa          	endbr64
    45c4:	ff 25 ce f8 00 00    	jmp    *0xf8ce(%rip)        # 13e98 <setsockopt@GLIBC_2.2.5>
    45ca:	66 0f 1f 44 00 00    	nopw   0x0(%rax,%rax,1)

00000000000045d0 <eventfd@plt>:
    45d0:	f3 0f 1e fa          	endbr64
    45d4:	ff 25 c6 f8 00 00    	jmp    *0xf8c6(%rip)        # 13ea0 <eventfd@GLIBC_2.7>
    45da:	66 0f 1f 44 00 00    	nopw   0x0(%rax,%rax,1)

00000000000045e0 <strlen@plt>:
    45e0:	f3 0f 1e fa          	endbr64
    45e4:	ff 25 be f8 00 00    	jmp    *0xf8be(%rip)        # 13ea8 <strlen@Base>
    45ea:	66 0f 1f 44 00 00    	nopw   0x0(%rax,%rax,1)

00000000000045f0 <stat@plt>:
    45f0:	f3 0f 1e fa          	endbr64
    45f4:	ff 25 b6 f8 00 00    	jmp    *0xf8b6(%rip)        # 13eb0 <stat@Base>
    45fa:	66 0f 1f 44 00 00    	nopw   0x0(%rax,%rax,1)

0000000000004600 <read@plt>:
    4600:	f3 0f 1e fa          	endbr64
    4604:	ff 25 ae f8 00 00    	jmp    *0xf8ae(%rip)        # 13eb8 <read@Base>
    460a:	66 0f 1f 44 00 00    	nopw   0x0(%rax,%rax,1)

0000000000004610 <__asan_handle_no_return@plt>:
    4610:	f3 0f 1e fa          	endbr64
    4614:	ff 25 a6 f8 00 00    	jmp    *0xf8a6(%rip)        # 13ec0 <__asan_handle_no_return@Base>
    461a:	66 0f 1f 44 00 00    	nopw   0x0(%rax,%rax,1)

0000000000004620 <listen@plt>:
    4620:	f3 0f 1e fa          	endbr64
    4624:	ff 25 9e f8 00 00    	jmp    *0xf89e(%rip)        # 13ec8 <listen@GLIBC_2.2.5>
    462a:	66 0f 1f 44 00 00    	nopw   0x0(%rax,%rax,1)

0000000000004630 <io_uring_register_eventfd@plt>:
    4630:	f3 0f 1e fa          	endbr64
    4634:	ff 25 96 f8 00 00    	jmp    *0xf896(%rip)        # 13ed0 <io_uring_register_eventfd@LIBURING_2.0>
    463a:	66 0f 1f 44 00 00    	nopw   0x0(%rax,%rax,1)

0000000000004640 <strtok_r@plt>:
    4640:	f3 0f 1e fa          	endbr64
    4644:	ff 25 8e f8 00 00    	jmp    *0xf88e(%rip)        # 13ed8 <strtok_r@GLIBC_2.2.5>
    464a:	66 0f 1f 44 00 00    	nopw   0x0(%rax,%rax,1)

0000000000004650 <pthread_create@plt>:
    4650:	f3 0f 1e fa          	endbr64
    4654:	ff 25 86 f8 00 00    	jmp    *0xf886(%rip)        # 13ee0 <pthread_create@Base>
    465a:	66 0f 1f 44 00 00    	nopw   0x0(%rax,%rax,1)

0000000000004660 <io_uring_submit@plt>:
    4660:	f3 0f 1e fa          	endbr64
    4664:	ff 25 7e f8 00 00    	jmp    *0xf87e(%rip)        # 13ee8 <io_uring_submit@LIBURING_2.0>
    466a:	66 0f 1f 44 00 00    	nopw   0x0(%rax,%rax,1)

0000000000004670 <__strcpy_chk@plt>:
    4670:	f3 0f 1e fa          	endbr64
    4674:	ff 25 76 f8 00 00    	jmp    *0xf876(%rip)        # 13ef0 <__strcpy_chk@GLIBC_2.3.4>
    467a:	66 0f 1f 44 00 00    	nopw   0x0(%rax,%rax,1)

0000000000004680 <__asan_stack_free_5@plt>:
    4680:	f3 0f 1e fa          	endbr64
    4684:	ff 25 6e f8 00 00    	jmp    *0xf86e(%rip)        # 13ef8 <__asan_stack_free_5@Base>
    468a:	66 0f 1f 44 00 00    	nopw   0x0(%rax,%rax,1)

0000000000004690 <socket@plt>:
    4690:	f3 0f 1e fa          	endbr64
    4694:	ff 25 66 f8 00 00    	jmp    *0xf866(%rip)        # 13f00 <socket@GLIBC_2.2.5>
    469a:	66 0f 1f 44 00 00    	nopw   0x0(%rax,%rax,1)

00000000000046a0 <memset@plt>:
    46a0:	f3 0f 1e fa          	endbr64
    46a4:	ff 25 5e f8 00 00    	jmp    *0xf85e(%rip)        # 13f08 <memset@Base>
    46aa:	66 0f 1f 44 00 00    	nopw   0x0(%rax,%rax,1)

00000000000046b0 <__stack_chk_fail@plt>:
    46b0:	f3 0f 1e fa          	endbr64
    46b4:	ff 25 56 f8 00 00    	jmp    *0xf856(%rip)        # 13f10 <__stack_chk_fail@GLIBC_2.4>
    46ba:	66 0f 1f 44 00 00    	nopw   0x0(%rax,%rax,1)

00000000000046c0 <__asan_report_store4@plt>:
    46c0:	f3 0f 1e fa          	endbr64
    46c4:	ff 25 4e f8 00 00    	jmp    *0xf84e(%rip)        # 13f18 <__asan_report_store4@Base>
    46ca:	66 0f 1f 44 00 00    	nopw   0x0(%rax,%rax,1)

00000000000046d0 <__asan_report_store8@plt>:
    46d0:	f3 0f 1e fa          	endbr64
    46d4:	ff 25 46 f8 00 00    	jmp    *0xf846(%rip)        # 13f20 <__asan_report_store8@Base>
    46da:	66 0f 1f 44 00 00    	nopw   0x0(%rax,%rax,1)

00000000000046e0 <nanosleep@plt>:
    46e0:	f3 0f 1e fa          	endbr64
    46e4:	ff 25 3e f8 00 00    	jmp    *0xf83e(%rip)        # 13f28 <nanosleep@GLIBC_2.2.5>
    46ea:	66 0f 1f 44 00 00    	nopw   0x0(%rax,%rax,1)

00000000000046f0 <__ctype_tolower_loc@plt>:
    46f0:	f3 0f 1e fa          	endbr64
    46f4:	ff 25 36 f8 00 00    	jmp    *0xf836(%rip)        # 13f30 <__ctype_tolower_loc@GLIBC_2.3>
    46fa:	66 0f 1f 44 00 00    	nopw   0x0(%rax,%rax,1)

0000000000004700 <__asan_unregister_globals@plt>:
    4700:	f3 0f 1e fa          	endbr64
    4704:	ff 25 2e f8 00 00    	jmp    *0xf82e(%rip)        # 13f38 <__asan_unregister_globals@Base>
    470a:	66 0f 1f 44 00 00    	nopw   0x0(%rax,%rax,1)

0000000000004710 <__asan_stack_free_6@plt>:
    4710:	f3 0f 1e fa          	endbr64
    4714:	ff 25 26 f8 00 00    	jmp    *0xf826(%rip)        # 13f40 <__asan_stack_free_6@Base>
    471a:	66 0f 1f 44 00 00    	nopw   0x0(%rax,%rax,1)

0000000000004720 <__sprintf_chk@plt>:
    4720:	f3 0f 1e fa          	endbr64
    4724:	ff 25 1e f8 00 00    	jmp    *0xf81e(%rip)        # 13f48 <__sprintf_chk@Base>
    472a:	66 0f 1f 44 00 00    	nopw   0x0(%rax,%rax,1)

0000000000004730 <strcmp@plt>:
    4730:	f3 0f 1e fa          	endbr64
    4734:	ff 25 16 f8 00 00    	jmp    *0xf816(%rip)        # 13f50 <strcmp@Base>
    473a:	66 0f 1f 44 00 00    	nopw   0x0(%rax,%rax,1)

0000000000004740 <__io_uring_get_cqe@plt>:
    4740:	f3 0f 1e fa          	endbr64
    4744:	ff 25 0e f8 00 00    	jmp    *0xf80e(%rip)        # 13f58 <__io_uring_get_cqe@LIBURING_2.0>
    474a:	66 0f 1f 44 00 00    	nopw   0x0(%rax,%rax,1)

0000000000004750 <__fprintf_chk@plt>:
    4750:	f3 0f 1e fa          	endbr64
    4754:	ff 25 06 f8 00 00    	jmp    *0xf806(%rip)        # 13f60 <__fprintf_chk@Base>
    475a:	66 0f 1f 44 00 00    	nopw   0x0(%rax,%rax,1)

0000000000004760 <__asan_register_globals@plt>:
    4760:	f3 0f 1e fa          	endbr64
    4764:	ff 25 fe f7 00 00    	jmp    *0xf7fe(%rip)        # 13f68 <__asan_register_globals@Base>
    476a:	66 0f 1f 44 00 00    	nopw   0x0(%rax,%rax,1)

0000000000004770 <__asan_stack_malloc_5@plt>:
    4770:	f3 0f 1e fa          	endbr64
    4774:	ff 25 f6 f7 00 00    	jmp    *0xf7f6(%rip)        # 13f70 <__asan_stack_malloc_5@Base>
    477a:	66 0f 1f 44 00 00    	nopw   0x0(%rax,%rax,1)

0000000000004780 <bind@plt>:
    4780:	f3 0f 1e fa          	endbr64
    4784:	ff 25 ee f7 00 00    	jmp    *0xf7ee(%rip)        # 13f78 <bind@GLIBC_2.2.5>
    478a:	66 0f 1f 44 00 00    	nopw   0x0(%rax,%rax,1)

0000000000004790 <__asan_report_load1@plt>:
    4790:	f3 0f 1e fa          	endbr64
    4794:	ff 25 e6 f7 00 00    	jmp    *0xf7e6(%rip)        # 13f80 <__asan_report_load1@Base>
    479a:	66 0f 1f 44 00 00    	nopw   0x0(%rax,%rax,1)

00000000000047a0 <free@plt>:
    47a0:	f3 0f 1e fa          	endbr64
    47a4:	ff 25 de f7 00 00    	jmp    *0xf7de(%rip)        # 13f88 <free@Base>
    47aa:	66 0f 1f 44 00 00    	nopw   0x0(%rax,%rax,1)

00000000000047b0 <__asan_stack_malloc_0@plt>:
    47b0:	f3 0f 1e fa          	endbr64
    47b4:	ff 25 d6 f7 00 00    	jmp    *0xf7d6(%rip)        # 13f90 <__asan_stack_malloc_0@Base>
    47ba:	66 0f 1f 44 00 00    	nopw   0x0(%rax,%rax,1)

00000000000047c0 <perror@plt>:
    47c0:	f3 0f 1e fa          	endbr64
    47c4:	ff 25 ce f7 00 00    	jmp    *0xf7ce(%rip)        # 13f98 <perror@GLIBC_2.2.5>
    47ca:	66 0f 1f 44 00 00    	nopw   0x0(%rax,%rax,1)

00000000000047d0 <__asan_report_store1@plt>:
    47d0:	f3 0f 1e fa          	endbr64
    47d4:	ff 25 c6 f7 00 00    	jmp    *0xf7c6(%rip)        # 13fa0 <__asan_report_store1@Base>
    47da:	66 0f 1f 44 00 00    	nopw   0x0(%rax,%rax,1)

00000000000047e0 <strerror@plt>:
    47e0:	f3 0f 1e fa          	endbr64
    47e4:	ff 25 be f7 00 00    	jmp    *0xf7be(%rip)        # 13fa8 <strerror@Base>
    47ea:	66 0f 1f 44 00 00    	nopw   0x0(%rax,%rax,1)

00000000000047f0 <eventfd_write@plt>:
    47f0:	f3 0f 1e fa          	endbr64
    47f4:	ff 25 b6 f7 00 00    	jmp    *0xf7b6(%rip)        # 13fb0 <eventfd_write@Base>
    47fa:	66 0f 1f 44 00 00    	nopw   0x0(%rax,%rax,1)

0000000000004800 <puts@plt>:
    4800:	f3 0f 1e fa          	endbr64
    4804:	ff 25 ae f7 00 00    	jmp    *0xf7ae(%rip)        # 13fb8 <puts@Base>
    480a:	66 0f 1f 44 00 00    	nopw   0x0(%rax,%rax,1)

0000000000004810 <__asan_version_mismatch_check_v8@plt>:
    4810:	f3 0f 1e fa          	endbr64
    4814:	ff 25 a6 f7 00 00    	jmp    *0xf7a6(%rip)        # 13fc0 <__asan_version_mismatch_check_v8@Base>
    481a:	66 0f 1f 44 00 00    	nopw   0x0(%rax,%rax,1)

0000000000004820 <open@plt>:
    4820:	f3 0f 1e fa          	endbr64
    4824:	ff 25 9e f7 00 00    	jmp    *0xf79e(%rip)        # 13fc8 <open@GLIBC_2.2.5>
    482a:	66 0f 1f 44 00 00    	nopw   0x0(%rax,%rax,1)

0000000000004830 <pthread_join@plt>:
    4830:	f3 0f 1e fa          	endbr64
    4834:	ff 25 96 f7 00 00    	jmp    *0xf796(%rip)        # 13fd0 <pthread_join@Base>
    483a:	66 0f 1f 44 00 00    	nopw   0x0(%rax,%rax,1)

Disassembly of section .text:

0000000000004840 <fatal_error>:
struct Snapshot {
  struct timespec start;
  struct timespec end;
};

void fatal_error(const char *syscall) {
    4840:	f3 0f 1e fa          	endbr64
    4844:	50                   	push   %rax
    4845:	58                   	pop    %rax
    4846:	50                   	push   %rax
    perror(syscall);
    4847:	e8 74 ff ff ff       	call   47c0 <perror@plt>
    exit(1);
    484c:	e8 bf fd ff ff       	call   4610 <__asan_handle_no_return@plt>
    4851:	bf 01 00 00 00       	mov    $0x1,%edi
    4856:	e8 b5 fc ff ff       	call   4510 <exit@plt>

000000000000485b <copy_file_contents.cold>:
    int fd;

    char *buf = zh_malloc(file_size);
    fd = open(file_path, O_RDONLY);
    if (fd < 0)
        fatal_error("read");
    485b:	e8 b0 fd ff ff       	call   4610 <__asan_handle_no_return@plt>
    4860:	48 8d 3d b9 bf 00 00 	lea    0xbfb9(%rip),%rdi        # 10820 <_IO_stdin_used+0x820>
    4867:	e8 d4 ff ff ff       	call   4840 <fatal_error>

000000000000486c <add_write_request.cold>:
    iov->iov_base = buf;
    iov->iov_len = file_size;
}
int add_write_request(struct Request *req, struct io_uring *ring) {
    struct io_uring_sqe *sqe = io_uring_get_sqe(ring);
    req->event_type = EVENT_TYPE_WRITE;
    486c:	48 89 d0             	mov    %rdx,%rax
    486f:	48 c1 e8 03          	shr    $0x3,%rax
    4873:	0f b6 80 00 80 ff 7f 	movzbl 0x7fff8000(%rax),%eax
    487a:	84 c0                	test   %al,%al
    487c:	74 04                	je     4882 <add_write_request.cold+0x16>
    487e:	3c 03                	cmp    $0x3,%al
    4880:	7e 1e                	jle    48a0 <add_write_request.cold+0x34>

IOURINGINLINE void io_uring_prep_rw(int op, struct io_uring_sqe *sqe, int fd,
				    const void *addr, unsigned len,
				    __u64 offset)
{
	sqe->opcode = (__u8) op;
    4882:	0f b6 04 25 00 80 ff 7f 	movzbl 0x7fff8000,%eax
    488a:	c7 02 02 00 00 00    	movl   $0x2,(%rdx)
    4890:	84 c0                	test   %al,%al
    4892:	74 02                	je     4896 <add_write_request.cold+0x2a>
    4894:	7e 12                	jle    48a8 <add_write_request.cold+0x3c>
    4896:	c6 04 25 00 00 00 00 00 	movb   $0x0,0x0
    489e:	0f 0b                	ud2
    48a0:	48 89 d7             	mov    %rdx,%rdi
    48a3:	e8 18 fe ff ff       	call   46c0 <__asan_report_store4@plt>
    48a8:	31 ff                	xor    %edi,%edi
    48aa:	e8 21 ff ff ff       	call   47d0 <__asan_report_store1@plt>

00000000000048af <add_read_request.cold>:
    return 0;
}

int add_read_request(int client_socket, struct io_uring *ring) {
    struct io_uring_sqe *sqe = io_uring_get_sqe(ring);
    struct Request *req = malloc(sizeof(*req) + sizeof(struct iovec));
    48af:	bf 20 00 00 00       	mov    $0x20,%edi
    48b4:	e8 d7 fc ff ff       	call   4590 <malloc@plt>
        

    req->iov[0].iov_base = malloc(READ_SZ);
    48b9:	bf 00 20 00 00       	mov    $0x2000,%edi
    48be:	be 01 00 00 00       	mov    $0x1,%esi
    struct Request *req = malloc(sizeof(*req) + sizeof(struct iovec));
    48c3:	48 89 c3             	mov    %rax,%rbx
    req->iov[0].iov_base = malloc(READ_SZ);
    48c6:	e8 95 fb ff ff       	call   4460 <calloc@plt>
    48cb:	48 8d 7b 10          	lea    0x10(%rbx),%rdi
    48cf:	48 89 fa             	mov    %rdi,%rdx
    48d2:	48 c1 ea 03          	shr    $0x3,%rdx
    48d6:	80 ba 00 80 ff 7f 00 	cmpb   $0x0,0x7fff8000(%rdx)
    48dd:	75 72                	jne    4951 <add_read_request.cold+0xa2>
    req->iov[0].iov_len = READ_SZ;
    48df:	48 8d 7b 18          	lea    0x18(%rbx),%rdi
    req->iov[0].iov_base = malloc(READ_SZ);
    48e3:	48 89 43 10          	mov    %rax,0x10(%rbx)
    req->iov[0].iov_len = READ_SZ;
    48e7:	48 89 f8             	mov    %rdi,%rax
    48ea:	48 c1 e8 03          	shr    $0x3,%rax
    48ee:	80 b8 00 80 ff 7f 00 	cmpb   $0x0,0x7fff8000(%rax)
    48f5:	75 5f                	jne    4956 <add_read_request.cold+0xa7>
    req->event_type = EVENT_TYPE_READ;
    48f7:	48 89 d8             	mov    %rbx,%rax
    req->iov[0].iov_len = READ_SZ;
    48fa:	48 c7 43 18 00 20 00 00 	movq   $0x2000,0x18(%rbx)
    req->event_type = EVENT_TYPE_READ;
    4902:	48 c1 e8 03          	shr    $0x3,%rax
    4906:	0f b6 80 00 80 ff 7f 	movzbl 0x7fff8000(%rax),%eax
    490d:	84 c0                	test   %al,%al
    490f:	74 04                	je     4915 <add_read_request.cold+0x66>
    4911:	3c 03                	cmp    $0x3,%al
    4913:	7e 46                	jle    495b <add_read_request.cold+0xac>
    req->client_socket = client_socket;
    4915:	48 8d 7b 08          	lea    0x8(%rbx),%rdi
    req->event_type = EVENT_TYPE_READ;
    4919:	c7 03 01 00 00 00    	movl   $0x1,(%rbx)
    req->client_socket = client_socket;
    491f:	48 89 f8             	mov    %rdi,%rax
    4922:	48 c1 e8 03          	shr    $0x3,%rax
    4926:	0f b6 80 00 80 ff 7f 	movzbl 0x7fff8000(%rax),%eax
    492d:	84 c0                	test   %al,%al
    492f:	74 04                	je     4935 <add_read_request.cold+0x86>
    4931:	3c 03                	cmp    $0x3,%al
    4933:	7e 2e                	jle    4963 <add_read_request.cold+0xb4>
    4935:	0f b6 04 25 00 80 ff 7f 	movzbl 0x7fff8000,%eax
    493d:	44 89 6b 08          	mov    %r13d,0x8(%rbx)
    4941:	84 c0                	test   %al,%al
    4943:	74 02                	je     4947 <add_read_request.cold+0x98>
    4945:	7e 21                	jle    4968 <add_read_request.cold+0xb9>
    4947:	c6 04 25 00 00 00 00 00 	movb   $0x0,0x0
    494f:	0f 0b                	ud2
    req->iov[0].iov_base = malloc(READ_SZ);
    4951:	e8 7a fd ff ff       	call   46d0 <__asan_report_store8@plt>
    req->iov[0].iov_len = READ_SZ;
    4956:	e8 75 fd ff ff       	call   46d0 <__asan_report_store8@plt>
    req->event_type = EVENT_TYPE_READ;
    495b:	48 89 df             	mov    %rbx,%rdi
    495e:	e8 5d fd ff ff       	call   46c0 <__asan_report_store4@plt>
    req->client_socket = client_socket;
    4963:	e8 58 fd ff ff       	call   46c0 <__asan_report_store4@plt>
    4968:	31 ff                	xor    %edi,%edi
    496a:	e8 61 fe ff ff       	call   47d0 <__asan_report_store1@plt>

000000000000496f <_send_static_string_content.cold>:
    req->event_type = EVENT_TYPE_WRITE;
    496f:	48 89 e8             	mov    %rbp,%rax
    4972:	48 c1 e8 03          	shr    $0x3,%rax
    4976:	0f b6 80 00 80 ff 7f 	movzbl 0x7fff8000(%rax),%eax
    497d:	84 c0                	test   %al,%al
    497f:	74 04                	je     4985 <_send_static_string_content.cold+0x16>
    4981:	3c 03                	cmp    $0x3,%al
    4983:	7e 1f                	jle    49a4 <_send_static_string_content.cold+0x35>
    4985:	0f b6 04 25 00 80 ff 7f 	movzbl 0x7fff8000,%eax
    498d:	c7 45 00 02 00 00 00 	movl   $0x2,0x0(%rbp)
    4994:	84 c0                	test   %al,%al
    4996:	74 02                	je     499a <_send_static_string_content.cold+0x2b>
    4998:	7e 12                	jle    49ac <_send_static_string_content.cold+0x3d>
    499a:	c6 04 25 00 00 00 00 00 	movb   $0x0,0x0
    49a2:	0f 0b                	ud2
    49a4:	48 89 ef             	mov    %rbp,%rdi
    49a7:	e8 14 fd ff ff       	call   46c0 <__asan_report_store4@plt>
    49ac:	31 ff                	xor    %edi,%edi
    49ae:	e8 1d fe ff ff       	call   47d0 <__asan_report_store1@plt>

00000000000049b3 <add_accept_request.cold>:
    49b3:	0f b6 04 25 00 80 ff 7f 	movzbl 0x7fff8000,%eax
    49bb:	84 c0                	test   %al,%al
    49bd:	74 02                	je     49c1 <add_accept_request.cold+0xe>
    49bf:	7e 0a                	jle    49cb <add_accept_request.cold+0x18>
    49c1:	c6 04 25 00 00 00 00 00 	movb   $0x0,0x0
    49c9:	0f 0b                	ud2
    49cb:	31 ff                	xor    %edi,%edi
    49cd:	e8 fe fd ff ff       	call   47d0 <__asan_report_store1@plt>

00000000000049d2 <io_thread.cold>:
    49d2:	0f b6 04 25 00 80 ff 7f 	movzbl 0x7fff8000,%eax
    49da:	84 c0                	test   %al,%al
    49dc:	74 02                	je     49e0 <io_thread.cold+0xe>
    49de:	7e 2c                	jle    4a0c <io_thread.cold+0x3a>
    49e0:	c6 04 25 00 00 00 00 00 	movb   $0x0,0x0
    49e8:	0f 0b                	ud2
           (const struct sockaddr *)&srv_addr,
           sizeof(srv_addr)) < 0)
      fatal_error("bind()");

  if (listen(sock, 10) < 0) {
    fatal_error("listen()");
    49ea:	e8 21 fc ff ff       	call   4610 <__asan_handle_no_return@plt>
    49ef:	48 8d 3d 6a c1 00 00 	lea    0xc16a(%rip),%rdi        # 10b60 <_IO_stdin_used+0xb60>
    49f6:	e8 45 fe ff ff       	call   4840 <fatal_error>
      fatal_error("setsockopt(SO_REUSEADDR)");
    49fb:	e8 10 fc ff ff       	call   4610 <__asan_handle_no_return@plt>
    4a00:	48 8d 3d d9 c0 00 00 	lea    0xc0d9(%rip),%rdi        # 10ae0 <_IO_stdin_used+0xae0>
    4a07:	e8 34 fe ff ff       	call   4840 <fatal_error>
    4a0c:	31 ff                	xor    %edi,%edi
    4a0e:	e8 bd fd ff ff       	call   47d0 <__asan_report_store1@plt>
        break;
      }
      printf("Received wait finished\n");
      struct Request *req = (struct Request *) cqe->user_data;
      if (ret < 0)
          fatal_error("io_uring_wait_cqe");
    4a13:	e8 f8 fb ff ff       	call   4610 <__asan_handle_no_return@plt>
    4a18:	48 8d 3d 81 c2 00 00 	lea    0xc281(%rip),%rdi        # 10ca0 <_IO_stdin_used+0xca0>
    4a1f:	e8 1c fe ff ff       	call   4840 <fatal_error>
      fatal_error("bind()");
    4a24:	e8 e7 fb ff ff       	call   4610 <__asan_handle_no_return@plt>
    4a29:	48 8d 3d f0 c0 00 00 	lea    0xc0f0(%rip),%rdi        # 10b20 <_IO_stdin_used+0xb20>
    4a30:	e8 0b fe ff ff       	call   4840 <fatal_error>
    4a35:	0f b6 04 25 00 80 ff 7f 	movzbl 0x7fff8000,%eax
    4a3d:	84 c0                	test   %al,%al
    4a3f:	74 02                	je     4a43 <io_thread.cold+0x71>
    4a41:	7e 1b                	jle    4a5e <io_thread.cold+0x8c>
    4a43:	c6 04 25 00 00 00 00 00 	movb   $0x0,0x0
    4a4b:	0f 0b                	ud2
      fatal_error("socket()");
    4a4d:	e8 be fb ff ff       	call   4610 <__asan_handle_no_return@plt>
    4a52:	48 8d 3d 47 c0 00 00 	lea    0xc047(%rip),%rdi        # 10aa0 <_IO_stdin_used+0xaa0>
    4a59:	e8 e2 fd ff ff       	call   4840 <fatal_error>
    4a5e:	31 ff                	xor    %edi,%edi
    4a60:	e8 6b fd ff ff       	call   47d0 <__asan_report_store1@plt>
    4a65:	66 2e 0f 1f 84 00 00 00 00 00 	cs nopw 0x0(%rax,%rax,1)
    4a6f:	90                   	nop

0000000000004a70 <_sub_D_00099_0>:
  printf("Total sents %ld\n", sents / DURATION);
  printf("Total receives %ld\n", received / DURATION);
  // verify(thread_data, thread_count);
  return 0;

}
    4a70:	f3 0f 1e fa          	endbr64
    4a74:	be 6b 00 00 00       	mov    $0x6b,%esi
    4a79:	48 8d 3d 40 f6 00 00 	lea    0xf640(%rip),%rdi        # 140c0 <unimplemented_content+0x60>
    4a80:	e9 7b fc ff ff       	jmp    4700 <__asan_unregister_globals@plt>
    4a85:	66 2e 0f 1f 84 00 00 00 00 00 	cs nopw 0x0(%rax,%rax,1)
    4a8f:	90                   	nop

0000000000004a90 <main>:
int main() {
    4a90:	f3 0f 1e fa          	endbr64
    4a94:	41 57                	push   %r15
    4a96:	41 56                	push   %r14
    4a98:	41 55                	push   %r13
    4a9a:	41 54                	push   %r12
    4a9c:	55                   	push   %rbp
    4a9d:	53                   	push   %rbx
    4a9e:	48 81 ec 28 01 00 00 	sub    $0x128,%rsp
    4aa5:	44 8b 0d d4 10 01 00 	mov    0x110d4(%rip),%r9d        # 15b80 <__asan_option_detect_stack_use_after_return@@Base>
    4aac:	48 8d 84 24 c0 00 00 00 	lea    0xc0(%rsp),%rax
    4ab4:	48 89 84 24 90 00 00 00 	mov    %rax,0x90(%rsp)
    4abc:	48 89 84 24 b0 00 00 00 	mov    %rax,0xb0(%rsp)
    4ac4:	45 85 c9             	test   %r9d,%r9d
    4ac7:	0f 85 64 2b 00 00    	jne    7631 <main+0x2ba1>
    4acd:	48 8b 84 24 90 00 00 00 	mov    0x90(%rsp),%rax
}

__fortify_function int
printf (const char *__restrict __fmt, ...)
{
  return __printf_chk (__USE_FORTIFY_LEVEL - 1, __fmt, __va_arg_pack ());
    4ad5:	48 8d 3d 64 c5 00 00 	lea    0xc564(%rip),%rdi        # 11040 <_IO_stdin_used+0x1040>
    4adc:	48 8d 58 60          	lea    0x60(%rax),%rbx
    4ae0:	48 89 9c 24 b8 00 00 00 	mov    %rbx,0xb8(%rsp)
    4ae8:	48 8d 1d 65 d6 00 00 	lea    0xd665(%rip),%rbx        # 12154 <_IO_stdin_used+0x2154>
    4aef:	48 89 58 08          	mov    %rbx,0x8(%rax)
    4af3:	48 8d 1d 96 ff ff ff 	lea    -0x6a(%rip),%rbx        # 4a90 <main>
    4afa:	48 89 58 10          	mov    %rbx,0x10(%rax)
    4afe:	48 c7 00 b3 8a b5 41 	movq   $0x41b58ab3,(%rax)
    4b05:	48 c1 e8 03          	shr    $0x3,%rax
    4b09:	48 89 84 24 a8 00 00 00 	mov    %rax,0xa8(%rsp)
    4b11:	c7 80 00 80 ff 7f f1 f1 f1 f1 	movl   $0xf1f1f1f1,0x7fff8000(%rax)
    4b1b:	c7 80 04 80 ff 7f 00 f3 f3 f3 	movl   $0xf3f3f300,0x7fff8004(%rax)
    4b25:	64 48 8b 04 25 28 00 00 00 	mov    %fs:0x28,%rax
    4b2e:	48 89 84 24 18 01 00 00 	mov    %rax,0x118(%rsp)
    4b36:	31 c0                	xor    %eax,%eax
    4b38:	e8 c3 fc ff ff       	call   4800 <puts@plt>
    4b3d:	bf 0a 00 00 00       	mov    $0xa,%edi
    4b42:	e8 e9 f9 ff ff       	call   4530 <putchar@plt>
    4b47:	ba 0c 00 00 00       	mov    $0xc,%edx
    4b4c:	48 8d 35 8d c5 00 00 	lea    0xc58d(%rip),%rsi        # 110e0 <_IO_stdin_used+0x10e0>
    4b53:	31 c0                	xor    %eax,%eax
    4b55:	bf 01 00 00 00       	mov    $0x1,%edi
    4b5a:	e8 c1 f9 ff ff       	call   4520 <__printf_chk@plt>
    4b5f:	48 8d 3d ba c5 00 00 	lea    0xc5ba(%rip),%rdi        # 11120 <_IO_stdin_used+0x1120>
    4b66:	e8 95 fc ff ff       	call   4800 <puts@plt>
    4b6b:	ba 02 00 00 00       	mov    $0x2,%edx
    4b70:	48 8d 35 e9 c5 00 00 	lea    0xc5e9(%rip),%rsi        # 11160 <_IO_stdin_used+0x1160>
    4b77:	31 c0                	xor    %eax,%eax
    4b79:	bf 01 00 00 00       	mov    $0x1,%edi
    4b7e:	e8 9d f9 ff ff       	call   4520 <__printf_chk@plt>
    4b83:	ba 10 00 00 00       	mov    $0x10,%edx
    4b88:	48 8d 35 11 c6 00 00 	lea    0xc611(%rip),%rsi        # 111a0 <_IO_stdin_used+0x11a0>
    4b8f:	31 c0                	xor    %eax,%eax
    4b91:	bf 01 00 00 00       	mov    $0x1,%edi
    4b96:	e8 85 f9 ff ff       	call   4520 <__printf_chk@plt>
    4b9b:	ba 01 00 00 00       	mov    $0x1,%edx
    4ba0:	48 8d 35 39 c6 00 00 	lea    0xc639(%rip),%rsi        # 111e0 <_IO_stdin_used+0x11e0>
    4ba7:	31 c0                	xor    %eax,%eax
    4ba9:	bf 01 00 00 00       	mov    $0x1,%edi
    4bae:	e8 6d f9 ff ff       	call   4520 <__printf_chk@plt>
    4bb3:	ba 01 00 00 00       	mov    $0x1,%edx
    4bb8:	48 8d 35 61 c6 00 00 	lea    0xc661(%rip),%rsi        # 11220 <_IO_stdin_used+0x1220>
    4bbf:	31 c0                	xor    %eax,%eax
    4bc1:	bf 01 00 00 00       	mov    $0x1,%edi
    4bc6:	e8 55 f9 ff ff       	call   4520 <__printf_chk@plt>
    4bcb:	ba 02 00 00 00       	mov    $0x2,%edx
    4bd0:	48 8d 35 89 c6 00 00 	lea    0xc689(%rip),%rsi        # 11260 <_IO_stdin_used+0x1260>
    4bd7:	31 c0                	xor    %eax,%eax
    4bd9:	bf 01 00 00 00       	mov    $0x1,%edi
    4bde:	e8 3d f9 ff ff       	call   4520 <__printf_chk@plt>
    4be3:	ba 01 00 00 00       	mov    $0x1,%edx
    4be8:	48 8d 35 b1 c6 00 00 	lea    0xc6b1(%rip),%rsi        # 112a0 <_IO_stdin_used+0x12a0>
    4bef:	31 c0                	xor    %eax,%eax
    4bf1:	bf 01 00 00 00       	mov    $0x1,%edi
    4bf6:	e8 25 f9 ff ff       	call   4520 <__printf_chk@plt>
    4bfb:	ba 01 00 00 00       	mov    $0x1,%edx
    4c00:	48 8d 35 f9 c6 00 00 	lea    0xc6f9(%rip),%rsi        # 11300 <_IO_stdin_used+0x1300>
    4c07:	31 c0                	xor    %eax,%eax
    4c09:	bf 01 00 00 00       	mov    $0x1,%edi
    4c0e:	e8 0d f9 ff ff       	call   4520 <__printf_chk@plt>
    4c13:	ba 40 42 0f 00       	mov    $0xf4240,%edx
    4c18:	48 8d 35 41 c7 00 00 	lea    0xc741(%rip),%rsi        # 11360 <_IO_stdin_used+0x1360>
    4c1f:	31 c0                	xor    %eax,%eax
    4c21:	bf 01 00 00 00       	mov    $0x1,%edi
    4c26:	e8 f5 f8 ff ff       	call   4520 <__printf_chk@plt>
    4c2b:	ba 05 00 00 00       	mov    $0x5,%edx
    4c30:	48 8d 35 69 c7 00 00 	lea    0xc769(%rip),%rsi        # 113a0 <_IO_stdin_used+0x13a0>
    4c37:	31 c0                	xor    %eax,%eax
    4c39:	bf 01 00 00 00       	mov    $0x1,%edi
    4c3e:	e8 dd f8 ff ff       	call   4520 <__printf_chk@plt>
    4c43:	48 8d 3d 96 c7 00 00 	lea    0xc796(%rip),%rdi        # 113e0 <_IO_stdin_used+0x13e0>
    4c4a:	e8 b1 fb ff ff       	call   4800 <puts@plt>
  struct ProtectedState *protected_state = calloc(group_count, sizeof(struct ProtectedState));
    4c4f:	be 18 00 00 00       	mov    $0x18,%esi
    4c54:	bf 06 00 00 00       	mov    $0x6,%edi
    4c59:	e8 02 f8 ff ff       	call   4460 <calloc@plt>
  struct KernelThread *thread_data = calloc(total_threads, sizeof(struct KernelThread)); 
    4c5e:	be c0 00 00 00       	mov    $0xc0,%esi
    4c63:	bf 10 00 00 00       	mov    $0x10,%edi
  struct ProtectedState *protected_state = calloc(group_count, sizeof(struct ProtectedState));
    4c68:	48 89 84 24 98 00 00 00 	mov    %rax,0x98(%rsp)
  struct KernelThread *thread_data = calloc(total_threads, sizeof(struct KernelThread)); 
    4c70:	e8 eb f7 ff ff       	call   4460 <calloc@plt>
    4c75:	ba 0c 00 00 00       	mov    $0xc,%edx
    4c7a:	bf 01 00 00 00       	mov    $0x1,%edi
    4c7f:	48 8d 35 9a c7 00 00 	lea    0xc79a(%rip),%rsi        # 11420 <_IO_stdin_used+0x1420>
    4c86:	48 89 04 24          	mov    %rax,(%rsp)
    4c8a:	31 c0                	xor    %eax,%eax
    4c8c:	e8 8f f8 ff ff       	call   4520 <__printf_chk@plt>
    4c91:	ba 18 00 00 00       	mov    $0x18,%edx
    4c96:	48 8d 35 c3 c7 00 00 	lea    0xc7c3(%rip),%rsi        # 11460 <_IO_stdin_used+0x1460>
    4c9d:	31 c0                	xor    %eax,%eax
    4c9f:	bf 01 00 00 00       	mov    $0x1,%edi
    4ca4:	e8 77 f8 ff ff       	call   4520 <__printf_chk@plt>
  struct Buffers *buffers = calloc(buffers_required, sizeof(struct Buffers));
    4ca9:	be 10 00 00 00       	mov    $0x10,%esi
    4cae:	bf 18 00 00 00       	mov    $0x18,%edi
    4cb3:	e8 a8 f7 ff ff       	call   4460 <calloc@plt>
    4cb8:	4c 8b 24 24          	mov    (%rsp),%r12
    4cbc:	48 89 84 24 88 00 00 00 	mov    %rax,0x88(%rsp)
    4cc4:	49 89 c5             	mov    %rax,%r13
    4cc7:	48 8d 98 80 01 00 00 	lea    0x180(%rax),%rbx
    4cce:	48 89 84 24 a0 00 00 00 	mov    %rax,0xa0(%rsp)
    4cd6:	66 2e 0f 1f 84 00 00 00 00 00 	cs nopw 0x0(%rax,%rax,1)
    buffers[x].count = buffer_size;
    4ce0:	4c 89 e8             	mov    %r13,%rax
    4ce3:	48 c1 e8 03          	shr    $0x3,%rax
    4ce7:	0f b6 80 00 80 ff 7f 	movzbl 0x7fff8000(%rax),%eax
    4cee:	84 c0                	test   %al,%al
    4cf0:	74 08                	je     4cfa <main+0x26a>
    4cf2:	3c 03                	cmp    $0x3,%al
    4cf4:	0f 8e 2f 29 00 00    	jle    7629 <main+0x2b99>
    4cfa:	41 c7 45 00 01 00 00 00 	movl   $0x1,0x0(%r13)
    buffers[x].buffer = calloc(buffer_size, sizeof(struct Buffer));
    4d02:	bf 01 00 00 00       	mov    $0x1,%edi
    4d07:	be 00 01 00 00       	mov    $0x100,%esi
    4d0c:	e8 4f f7 ff ff       	call   4460 <calloc@plt>
    4d11:	49 8d 7d 08          	lea    0x8(%r13),%rdi
    4d15:	48 89 c5             	mov    %rax,%rbp
    4d18:	48 89 f8             	mov    %rdi,%rax
    4d1b:	48 c1 e8 03          	shr    $0x3,%rax
    4d1f:	80 b8 00 80 ff 7f 00 	cmpb   $0x0,0x7fff8000(%rax)
    4d26:	0f 85 f8 28 00 00    	jne    7624 <main+0x2b94>
      buffers[x].buffer[y].available = 0;
    4d2c:	48 8d bd 80 00 00 00 	lea    0x80(%rbp),%rdi
    buffers[x].buffer = calloc(buffer_size, sizeof(struct Buffer));
    4d33:	49 89 6d 08          	mov    %rbp,0x8(%r13)
      buffers[x].buffer[y].available = 0;
    4d37:	48 89 f8             	mov    %rdi,%rax
    4d3a:	48 c1 e8 03          	shr    $0x3,%rax
    4d3e:	0f b6 80 00 80 ff 7f 	movzbl 0x7fff8000(%rax),%eax
    4d45:	84 c0                	test   %al,%al
    4d47:	74 08                	je     4d51 <main+0x2c1>
    4d49:	3c 03                	cmp    $0x3,%al
    4d4b:	0f 8e 2e 29 00 00    	jle    767f <main+0x2bef>
      buffers[x].buffer[y].snapshot_limit = snapshot_limit;
    4d51:	48 8d bd 90 00 00 00 	lea    0x90(%rbp),%rdi
      buffers[x].buffer[y].available = 0;
    4d58:	c7 85 80 00 00 00 00 00 00 00 	movl   $0x0,0x80(%rbp)
      buffers[x].buffer[y].snapshot_limit = snapshot_limit;
    4d62:	48 89 f8             	mov    %rdi,%rax
    4d65:	48 c1 e8 03          	shr    $0x3,%rax
    4d69:	0f b6 80 00 80 ff 7f 	movzbl 0x7fff8000(%rax),%eax
    4d70:	84 c0                	test   %al,%al
    4d72:	74 08                	je     4d7c <main+0x2ec>
    4d74:	3c 03                	cmp    $0x3,%al
    4d76:	0f 8e fe 28 00 00    	jle    767a <main+0x2bea>
    4d7c:	c7 85 90 00 00 00 64 00 00 00 	movl   $0x64,0x90(%rbp)
      buffers[x].buffer[y].snapshots = calloc(snapshot_limit, sizeof(struct Snapshot));
    4d86:	bf 64 00 00 00       	mov    $0x64,%edi
    4d8b:	be 20 00 00 00       	mov    $0x20,%esi
    4d90:	e8 cb f6 ff ff       	call   4460 <calloc@plt>
    4d95:	48 8d bd 88 00 00 00 	lea    0x88(%rbp),%rdi
    4d9c:	48 89 fa             	mov    %rdi,%rdx
    4d9f:	48 c1 ea 03          	shr    $0x3,%rdx
    4da3:	80 ba 00 80 ff 7f 00 	cmpb   $0x0,0x7fff8000(%rdx)
    4daa:	0f 85 c5 28 00 00    	jne    7675 <main+0x2be5>
  for (int x = 0 ; x < buffers_required; x++) {
    4db0:	49 83 c5 10          	add    $0x10,%r13
      buffers[x].buffer[y].snapshots = calloc(snapshot_limit, sizeof(struct Snapshot));
    4db4:	48 89 85 88 00 00 00 	mov    %rax,0x88(%rbp)
  for (int x = 0 ; x < buffers_required; x++) {
    4dbb:	49 39 dd             	cmp    %rbx,%r13
    4dbe:	0f 85 1c ff ff ff    	jne    4ce0 <main+0x250>
    4dc4:	48 8b 84 24 98 00 00 00 	mov    0x98(%rsp),%rax
  int curcpu = 0;
    4dcc:	c7 44 24 50 00 00 00 00 	movl   $0x0,0x50(%rsp)
  for (int x = 0 ; x < buffers_required; x++) {
    4dd4:	45 31 c9             	xor    %r9d,%r9d
  int cur_buffer = 0;
    4dd7:	31 d2                	xor    %edx,%edx
    4dd9:	4c 89 64 24 48       	mov    %r12,0x48(%rsp)
    4dde:	48 89 84 24 80 00 00 00 	mov    %rax,0x80(%rsp)
  for (int x = 0 ; x < buffers_required; x++) {
    4de6:	48 89 44 24 60       	mov    %rax,0x60(%rsp)
    4deb:	48 8b 5c 24 48       	mov    0x48(%rsp),%rbx
    4df0:	4b 8d 04 49          	lea    (%r9,%r9,2),%rax
    4df4:	43 8d 2c 09          	lea    (%r9,%r9,1),%ebp
    4df8:	44 89 4c 24 68       	mov    %r9d,0x68(%rsp)
    for (int d = 0 ; d < threads_per_group ; d++) {
    4dfd:	48 c1 e0 07          	shl    $0x7,%rax
    4e01:	4c 89 4c 24 70       	mov    %r9,0x70(%rsp)
    4e06:	44 8d 75 01          	lea    0x1(%rbp),%r14d
    4e0a:	4c 8d 14 18          	lea    (%rax,%rbx,1),%r10
    4e0e:	48 63 c2             	movslq %edx,%rax
    4e11:	48 8b 9c 24 88 00 00 00 	mov    0x88(%rsp),%rbx
    4e19:	29 ea                	sub    %ebp,%edx
    4e1b:	48 c1 e0 04          	shl    $0x4,%rax
    4e1f:	89 54 24 7c          	mov    %edx,0x7c(%rsp)
    4e23:	48 01 d8             	add    %rbx,%rax
    4e26:	48 89 44 24 40       	mov    %rax,0x40(%rsp)
    4e2b:	8d 45 03             	lea    0x3(%rbp),%eax
    4e2e:	89 44 24 58          	mov    %eax,0x58(%rsp)
    4e32:	8b 54 24 68          	mov    0x68(%rsp),%edx
    4e36:	89 e9                	mov    %ebp,%ecx
    4e38:	48 8d 35 61 c6 00 00 	lea    0xc661(%rip),%rsi        # 114a0 <_IO_stdin_used+0x14a0>
    4e3f:	31 c0                	xor    %eax,%eax
    4e41:	bf 01 00 00 00       	mov    $0x1,%edi
    4e46:	4c 89 14 24          	mov    %r10,(%rsp)
    4e4a:	e8 d1 f6 ff ff       	call   4520 <__printf_chk@plt>
      struct KernelThread **my_thread_data = calloc(2, sizeof(struct KernelThread*)); 
    4e4f:	be 08 00 00 00       	mov    $0x8,%esi
    4e54:	bf 02 00 00 00       	mov    $0x2,%edi
    4e59:	e8 02 f6 ff ff       	call   4460 <calloc@plt>
      cpu_set_t *sendercpu = calloc(1, sizeof(cpu_set_t));
    4e5e:	be 80 00 00 00       	mov    $0x80,%esi
    4e63:	bf 01 00 00 00       	mov    $0x1,%edi
      struct KernelThread **my_thread_data = calloc(2, sizeof(struct KernelThread*)); 
    4e68:	49 89 c4             	mov    %rax,%r12
      cpu_set_t *sendercpu = calloc(1, sizeof(cpu_set_t));
    4e6b:	e8 f0 f5 ff ff       	call   4460 <calloc@plt>
      if (x % 2 == 1) {
    4e70:	40 f6 c5 01          	test   $0x1,%bpl
    4e74:	4c 8b 14 24          	mov    (%rsp),%r10
      cpu_set_t *sendercpu = calloc(1, sizeof(cpu_set_t));
    4e78:	49 89 c7             	mov    %rax,%r15
      if (x % 2 == 1) {
    4e7b:	0f 84 73 0f 00 00    	je     5df4 <main+0x1364>
        other = abs(x - 1) % total_threads;
    4e81:	8d 45 ff             	lea    -0x1(%rbp),%eax
        my_thread_data[0] = &thread_data[other]; 
    4e84:	48 8b 74 24 48       	mov    0x48(%rsp),%rsi
        my_thread_data[1] = &thread_data[x]; 
    4e89:	4c 89 d2             	mov    %r10,%rdx
    4e8c:	41 b8 01 00 00 00    	mov    $0x1,%r8d
        other = abs(x - 1) % total_threads;
    4e92:	48 89 c3             	mov    %rax,%rbx
        my_thread_data[0] = &thread_data[other]; 
    4e95:	48 8d 04 40          	lea    (%rax,%rax,2),%rax
    4e99:	48 c1 e0 06          	shl    $0x6,%rax
    4e9d:	48 01 f0             	add    %rsi,%rax
          thread_data[x].tasks[y].thread_index = my_thread_data[me_thread]->thread_index;
    4ea0:	49 8d 74 24 08       	lea    0x8(%r12),%rsi
    4ea5:	48 89 74 24 08       	mov    %rsi,0x8(%rsp)
        thread_data[x].thread_index = 1;
    4eaa:	49 8d 7a 04          	lea    0x4(%r10),%rdi
    4eae:	48 89 f9             	mov    %rdi,%rcx
    4eb1:	48 89 7c 24 30       	mov    %rdi,0x30(%rsp)
    4eb6:	48 c1 e9 03          	shr    $0x3,%rcx
    4eba:	0f b6 b1 00 80 ff 7f 	movzbl 0x7fff8000(%rcx),%esi
    4ec1:	48 89 f9             	mov    %rdi,%rcx
    4ec4:	83 e1 07             	and    $0x7,%ecx
    4ec7:	83 c1 03             	add    $0x3,%ecx
    4eca:	40 38 f1             	cmp    %sil,%cl
    4ecd:	7c 09                	jl     4ed8 <main+0x448>
    4ecf:	40 84 f6             	test   %sil,%sil
    4ed2:	0f 85 98 27 00 00    	jne    7670 <main+0x2be0>
        thread_data[x].protected_state = &protected_state[k];
    4ed8:	49 8d 7a 48          	lea    0x48(%r10),%rdi
        thread_data[x].thread_index = 1;
    4edc:	45 89 42 04          	mov    %r8d,0x4(%r10)
        thread_data[x].protected_state = &protected_state[k];
    4ee0:	48 89 f9             	mov    %rdi,%rcx
    4ee3:	48 c1 e9 03          	shr    $0x3,%rcx
    4ee7:	80 b9 00 80 ff 7f 00 	cmpb   $0x0,0x7fff8000(%rcx)
    4eee:	0f 85 77 27 00 00    	jne    766b <main+0x2bdb>
        my_thread_data[1] = &thread_data[x]; 
    4ef4:	49 8d 7c 24 08       	lea    0x8(%r12),%rdi
        thread_data[x].protected_state = &protected_state[k];
    4ef9:	48 8b 74 24 60       	mov    0x60(%rsp),%rsi
        my_thread_data[1] = &thread_data[x]; 
    4efe:	48 89 f9             	mov    %rdi,%rcx
    4f01:	48 c1 e9 03          	shr    $0x3,%rcx
        thread_data[x].protected_state = &protected_state[k];
    4f05:	49 89 72 48          	mov    %rsi,0x48(%r10)
        my_thread_data[1] = &thread_data[x]; 
    4f09:	80 b9 00 80 ff 7f 00 	cmpb   $0x0,0x7fff8000(%rcx)
    4f10:	0f 85 50 27 00 00    	jne    7666 <main+0x2bd6>
    4f16:	49 89 54 24 08       	mov    %rdx,0x8(%r12)
        my_thread_data[0] = &thread_data[other]; 
    4f1b:	4c 89 e2             	mov    %r12,%rdx
    4f1e:	48 c1 ea 03          	shr    $0x3,%rdx
    4f22:	80 ba 00 80 ff 7f 00 	cmpb   $0x0,0x7fff8000(%rdx)
    4f29:	0f 85 2f 27 00 00    	jne    765e <main+0x2bce>
    4f2f:	49 89 04 24          	mov    %rax,(%r12)
    4f33:	bf 01 00 00 00       	mov    $0x1,%edi
    4f38:	89 d9                	mov    %ebx,%ecx
    4f3a:	89 ea                	mov    %ebp,%edx
    4f3c:	48 8d 35 bd c5 00 00 	lea    0xc5bd(%rip),%rsi        # 11500 <_IO_stdin_used+0x1500>
    4f43:	31 c0                	xor    %eax,%eax
    4f45:	4c 89 14 24          	mov    %r10,(%rsp)
    4f49:	e8 d2 f5 ff ff       	call   4520 <__printf_chk@plt>
      thread_data[x].other = other;
    4f4e:	4c 8b 14 24          	mov    (%rsp),%r10
    4f52:	49 8d ba b8 00 00 00 	lea    0xb8(%r10),%rdi
    4f59:	48 89 f8             	mov    %rdi,%rax
    4f5c:	48 c1 e8 03          	shr    $0x3,%rax
    4f60:	0f b6 80 00 80 ff 7f 	movzbl 0x7fff8000(%rax),%eax
    4f67:	84 c0                	test   %al,%al
    4f69:	74 08                	je     4f73 <main+0x4e3>
    4f6b:	3c 03                	cmp    $0x3,%al
    4f6d:	0f 8e e6 26 00 00    	jle    7659 <main+0x2bc9>
    4f73:	41 89 9a b8 00 00 00 	mov    %ebx,0xb8(%r10)
    4f7a:	8b 4c 24 50          	mov    0x50(%rsp),%ecx
    4f7e:	31 c0                	xor    %eax,%eax
    4f80:	89 ea                	mov    %ebp,%edx
    4f82:	48 8d 35 d7 c5 00 00 	lea    0xc5d7(%rip),%rsi        # 11560 <_IO_stdin_used+0x1560>
    4f89:	bf 01 00 00 00       	mov    $0x1,%edi
    4f8e:	4c 89 14 24          	mov    %r10,(%rsp)
    4f92:	e8 89 f5 ff ff       	call   4520 <__printf_chk@plt>
        if (x < thread_count) {
    4f97:	83 fd 01             	cmp    $0x1,%ebp
    4f9a:	4c 8b 14 24          	mov    (%rsp),%r10
    4f9e:	0f 8f 76 0e 00 00    	jg     5e1a <main+0x138a>
          CPU_SET(curcpu, sendercpu);
    4fa4:	48 63 44 24 50       	movslq 0x50(%rsp),%rax
    4fa9:	48 3d ff 03 00 00    	cmp    $0x3ff,%rax
    4faf:	77 2c                	ja     4fdd <main+0x54d>
    4fb1:	48 c1 e8 06          	shr    $0x6,%rax
    4fb5:	49 8d 3c c7          	lea    (%r15,%rax,8),%rdi
    4fb9:	48 89 f8             	mov    %rdi,%rax
    4fbc:	48 c1 e8 03          	shr    $0x3,%rax
    4fc0:	80 b8 00 80 ff 7f 00 	cmpb   $0x0,0x7fff8000(%rax)
    4fc7:	0f 85 15 27 00 00    	jne    76e2 <main+0x2c52>
    4fcd:	0f b6 4c 24 50       	movzbl 0x50(%rsp),%ecx
    4fd2:	b8 01 00 00 00       	mov    $0x1,%eax
    4fd7:	48 d3 e0             	shl    %cl,%rax
    4fda:	48 09 07             	or     %rax,(%rdi)
          curcpu += 2;
    4fdd:	83 44 24 50 02       	addl   $0x2,0x50(%rsp)
      thread_data[x].kind = KERNEL_THREAD;
    4fe2:	4c 89 d0             	mov    %r10,%rax
    4fe5:	48 c1 e8 03          	shr    $0x3,%rax
    4fe9:	0f b6 80 00 80 ff 7f 	movzbl 0x7fff8000(%rax),%eax
    4ff0:	84 c0                	test   %al,%al
    4ff2:	74 08                	je     4ffc <main+0x56c>
    4ff4:	3c 03                	cmp    $0x3,%al
    4ff6:	0f 8e de 26 00 00    	jle    76da <main+0x2c4a>
      thread_data[x].cpu_set = sendercpu;
    4ffc:	49 8d ba b0 00 00 00 	lea    0xb0(%r10),%rdi
      thread_data[x].kind = KERNEL_THREAD;
    5003:	41 c7 02 5f 00 00 00 	movl   $0x5f,(%r10)
      thread_data[x].cpu_set = sendercpu;
    500a:	48 89 f8             	mov    %rdi,%rax
    500d:	48 c1 e8 03          	shr    $0x3,%rax
    5011:	80 b8 00 80 ff 7f 00 	cmpb   $0x0,0x7fff8000(%rax)
    5018:	0f 85 b7 26 00 00    	jne    76d5 <main+0x2c45>
      thread_data[x].real_thread_index = x;
    501e:	49 8d 7a 08          	lea    0x8(%r10),%rdi
      thread_data[x].cpu_set = sendercpu;
    5022:	4d 89 ba b0 00 00 00 	mov    %r15,0xb0(%r10)
      thread_data[x].real_thread_index = x;
    5029:	48 89 f8             	mov    %rdi,%rax
    502c:	48 c1 e8 03          	shr    $0x3,%rax
    5030:	0f b6 80 00 80 ff 7f 	movzbl 0x7fff8000(%rax),%eax
    5037:	84 c0                	test   %al,%al
    5039:	74 08                	je     5043 <main+0x5b3>
    503b:	3c 03                	cmp    $0x3,%al
    503d:	0f 8e 8d 26 00 00    	jle    76d0 <main+0x2c40>
      thread_data[x].threads = my_thread_data;
    5043:	49 8d 7a 18          	lea    0x18(%r10),%rdi
      thread_data[x].real_thread_index = x;
    5047:	41 89 6a 08          	mov    %ebp,0x8(%r10)
      thread_data[x].threads = my_thread_data;
    504b:	48 89 f8             	mov    %rdi,%rax
    504e:	48 c1 e8 03          	shr    $0x3,%rax
    5052:	80 b8 00 80 ff 7f 00 	cmpb   $0x0,0x7fff8000(%rax)
    5059:	0f 85 6c 26 00 00    	jne    76cb <main+0x2c3b>
      thread_data[x].all_threads = thread_data;
    505f:	49 8d 7a 20          	lea    0x20(%r10),%rdi
      thread_data[x].threads = my_thread_data;
    5063:	4d 89 62 18          	mov    %r12,0x18(%r10)
      thread_data[x].all_threads = thread_data;
    5067:	48 89 f8             	mov    %rdi,%rax
    506a:	48 c1 e8 03          	shr    $0x3,%rax
    506e:	80 b8 00 80 ff 7f 00 	cmpb   $0x0,0x7fff8000(%rax)
    5075:	0f 85 4b 26 00 00    	jne    76c6 <main+0x2c36>
    507b:	48 8b 44 24 48       	mov    0x48(%rsp),%rax
      thread_data[x].thread_count = 2;
    5080:	49 8d 7a 28          	lea    0x28(%r10),%rdi
      thread_data[x].all_threads = thread_data;
    5084:	49 89 42 20          	mov    %rax,0x20(%r10)
      thread_data[x].thread_count = 2;
    5088:	48 89 f8             	mov    %rdi,%rax
    508b:	48 c1 e8 03          	shr    $0x3,%rax
    508f:	0f b6 80 00 80 ff 7f 	movzbl 0x7fff8000(%rax),%eax
    5096:	84 c0                	test   %al,%al
    5098:	74 08                	je     50a2 <main+0x612>
    509a:	3c 03                	cmp    $0x3,%al
    509c:	0f 8e 1f 26 00 00    	jle    76c1 <main+0x2c31>
      thread_data[x].total_thread_count = total_threads;
    50a2:	49 8d 7a 2c          	lea    0x2c(%r10),%rdi
      thread_data[x].thread_count = 2;
    50a6:	41 c7 42 28 02 00 00 00 	movl   $0x2,0x28(%r10)
      thread_data[x].total_thread_count = total_threads;
    50ae:	48 89 f8             	mov    %rdi,%rax
    50b1:	48 c1 e8 03          	shr    $0x3,%rax
    50b5:	0f b6 90 00 80 ff 7f 	movzbl 0x7fff8000(%rax),%edx
    50bc:	48 89 f8             	mov    %rdi,%rax
    50bf:	83 e0 07             	and    $0x7,%eax
    50c2:	83 c0 03             	add    $0x3,%eax
    50c5:	38 d0                	cmp    %dl,%al
    50c7:	7c 08                	jl     50d1 <main+0x641>
    50c9:	84 d2                	test   %dl,%dl
    50cb:	0f 85 eb 25 00 00    	jne    76bc <main+0x2c2c>
      thread_data[x].task_count = total_barrier_count;
    50d1:	49 8d 7a 40          	lea    0x40(%r10),%rdi
      thread_data[x].total_thread_count = total_threads;
    50d5:	41 c7 42 2c 10 00 00 00 	movl   $0x10,0x2c(%r10)
      thread_data[x].task_count = total_barrier_count;
    50dd:	48 89 f8             	mov    %rdi,%rax
    50e0:	48 c1 e8 03          	shr    $0x3,%rax
    50e4:	0f b6 80 00 80 ff 7f 	movzbl 0x7fff8000(%rax),%eax
    50eb:	84 c0                	test   %al,%al
    50ed:	74 08                	je     50f7 <main+0x667>
    50ef:	3c 03                	cmp    $0x3,%al
    50f1:	0f 8e c0 25 00 00    	jle    76b7 <main+0x2c27>
      thread_data[x].start = calloc(timestamp_limit, sizeof(struct timespec));
    50f7:	bf 64 00 00 00       	mov    $0x64,%edi
    50fc:	be 10 00 00 00       	mov    $0x10,%esi
      thread_data[x].task_count = total_barrier_count;
    5101:	41 c7 42 40 03 00 00 00 	movl   $0x3,0x40(%r10)
    5109:	4c 89 14 24          	mov    %r10,(%rsp)
      thread_data[x].start = calloc(timestamp_limit, sizeof(struct timespec));
    510d:	e8 4e f3 ff ff       	call   4460 <calloc@plt>
    5112:	4c 8b 14 24          	mov    (%rsp),%r10
    5116:	49 8d 7a 68          	lea    0x68(%r10),%rdi
    511a:	48 89 fa             	mov    %rdi,%rdx
    511d:	48 c1 ea 03          	shr    $0x3,%rdx
    5121:	80 ba 00 80 ff 7f 00 	cmpb   $0x0,0x7fff8000(%rdx)
    5128:	0f 85 75 26 00 00    	jne    77a3 <main+0x2d13>
    512e:	49 89 42 68          	mov    %rax,0x68(%r10)
      thread_data[x].end = calloc(timestamp_limit, sizeof(struct timespec));
    5132:	bf 64 00 00 00       	mov    $0x64,%edi
    5137:	be 10 00 00 00       	mov    $0x10,%esi
      thread_data[x].start = calloc(timestamp_limit, sizeof(struct timespec));
    513c:	4c 89 14 24          	mov    %r10,(%rsp)
      thread_data[x].end = calloc(timestamp_limit, sizeof(struct timespec));
    5140:	e8 1b f3 ff ff       	call   4460 <calloc@plt>
    5145:	4c 8b 14 24          	mov    (%rsp),%r10
    5149:	49 8d 7a 70          	lea    0x70(%r10),%rdi
    514d:	48 89 fa             	mov    %rdi,%rdx
    5150:	48 c1 ea 03          	shr    $0x3,%rdx
    5154:	80 ba 00 80 ff 7f 00 	cmpb   $0x0,0x7fff8000(%rdx)
    515b:	0f 85 3d 26 00 00    	jne    779e <main+0x2d0e>
      thread_data[x].timestamp_count = 0;
    5161:	49 8d ba 80 00 00 00 	lea    0x80(%r10),%rdi
      thread_data[x].end = calloc(timestamp_limit, sizeof(struct timespec));
    5168:	49 89 42 70          	mov    %rax,0x70(%r10)
      thread_data[x].timestamp_count = 0;
    516c:	48 89 f8             	mov    %rdi,%rax
    516f:	48 c1 e8 03          	shr    $0x3,%rax
    5173:	80 b8 00 80 ff 7f 00 	cmpb   $0x0,0x7fff8000(%rax)
    517a:	0f 85 19 26 00 00    	jne    7799 <main+0x2d09>
      thread_data[x].timestamp_limit = timestamp_limit;
    5180:	49 8d ba 88 00 00 00 	lea    0x88(%r10),%rdi
      thread_data[x].timestamp_count = 0;
    5187:	49 c7 82 80 00 00 00 00 00 00 00 	movq   $0x0,0x80(%r10)
      thread_data[x].timestamp_limit = timestamp_limit;
    5192:	48 89 f8             	mov    %rdi,%rax
    5195:	48 c1 e8 03          	shr    $0x3,%rax
    5199:	80 b8 00 80 ff 7f 00 	cmpb   $0x0,0x7fff8000(%rax)
    51a0:	0f 85 ee 25 00 00    	jne    7794 <main+0x2d04>
      thread_data[x].task_snapshot = calloc(timestamp_limit, sizeof(struct TaskSnapshot));
    51a6:	bf 64 00 00 00       	mov    $0x64,%edi
    51ab:	be 28 00 00 00       	mov    $0x28,%esi
      thread_data[x].timestamp_limit = timestamp_limit;
    51b0:	4c 89 14 24          	mov    %r10,(%rsp)
    51b4:	49 c7 82 88 00 00 00 64 00 00 00 	movq   $0x64,0x88(%r10)
      thread_data[x].task_snapshot = calloc(timestamp_limit, sizeof(struct TaskSnapshot));
    51bf:	e8 9c f2 ff ff       	call   4460 <calloc@plt>
    51c4:	4c 8b 14 24          	mov    (%rsp),%r10
    51c8:	49 8d ba 90 00 00 00 	lea    0x90(%r10),%rdi
    51cf:	48 89 fa             	mov    %rdi,%rdx
    51d2:	48 c1 ea 03          	shr    $0x3,%rdx
    51d6:	80 ba 00 80 ff 7f 00 	cmpb   $0x0,0x7fff8000(%rdx)
    51dd:	0f 85 ac 25 00 00    	jne    778f <main+0x2cff>
      thread_data[x].task_timestamp_count = 0;
    51e3:	49 8d ba 98 00 00 00 	lea    0x98(%r10),%rdi
      thread_data[x].task_snapshot = calloc(timestamp_limit, sizeof(struct TaskSnapshot));
    51ea:	49 89 82 90 00 00 00 	mov    %rax,0x90(%r10)
      thread_data[x].task_timestamp_count = 0;
    51f1:	48 89 f8             	mov    %rdi,%rax
    51f4:	48 c1 e8 03          	shr    $0x3,%rax
    51f8:	80 b8 00 80 ff 7f 00 	cmpb   $0x0,0x7fff8000(%rax)
    51ff:	0f 85 85 25 00 00    	jne    778a <main+0x2cfa>
      thread_data[x].task_timestamp_limit = timestamp_limit;
    5205:	49 8d ba a0 00 00 00 	lea    0xa0(%r10),%rdi
      thread_data[x].task_timestamp_count = 0;
    520c:	49 c7 82 98 00 00 00 00 00 00 00 	movq   $0x0,0x98(%r10)
      thread_data[x].task_timestamp_limit = timestamp_limit;
    5217:	48 89 f8             	mov    %rdi,%rax
    521a:	48 c1 e8 03          	shr    $0x3,%rax
    521e:	80 b8 00 80 ff 7f 00 	cmpb   $0x0,0x7fff8000(%rax)
    5225:	0f 85 5a 25 00 00    	jne    7785 <main+0x2cf5>
        struct BarrierTask *barriers = calloc(total_barrier_count, sizeof(struct BarrierTask));
    522b:	be 00 02 00 00       	mov    $0x200,%esi
    5230:	bf 03 00 00 00       	mov    $0x3,%edi
      thread_data[x].task_timestamp_limit = timestamp_limit;
    5235:	4c 89 14 24          	mov    %r10,(%rsp)
    5239:	49 c7 82 a0 00 00 00 64 00 00 00 	movq   $0x64,0xa0(%r10)
        struct BarrierTask *barriers = calloc(total_barrier_count, sizeof(struct BarrierTask));
    5244:	e8 17 f2 ff ff       	call   4460 <calloc@plt>
        thread_data[x].tasks = barriers;
    5249:	4c 8b 14 24          	mov    (%rsp),%r10
        struct BarrierTask *barriers = calloc(total_barrier_count, sizeof(struct BarrierTask));
    524d:	49 89 c7             	mov    %rax,%r15
        thread_data[x].tasks = barriers;
    5250:	4d 8d 4a 38          	lea    0x38(%r10),%r9
    5254:	4c 89 c8             	mov    %r9,%rax
    5257:	48 c1 e8 03          	shr    $0x3,%rax
    525b:	80 b8 00 80 ff 7f 00 	cmpb   $0x0,0x7fff8000(%rax)
    5262:	0f 85 15 25 00 00    	jne    777d <main+0x2ced>
    5268:	4d 89 7a 38          	mov    %r15,0x38(%r10)
        for (int y = 0 ; y < total_barrier_count ; y++) {
    526c:	45 31 e4             	xor    %r12d,%r12d
    526f:	4c 89 fa             	mov    %r15,%rdx
    5272:	4c 89 4c 24 38       	mov    %r9,0x38(%rsp)
    5277:	4c 89 14 24          	mov    %r10,(%rsp)
          thread_data[x].tasks[y].protected = do_protected_write; 
    527b:	49 63 c4             	movslq %r12d,%rax
    527e:	48 89 44 24 18       	mov    %rax,0x18(%rsp)
    5283:	48 c1 e0 09          	shl    $0x9,%rax
    5287:	4c 8d 2c 02          	lea    (%rdx,%rax,1),%r13
    528b:	48 89 44 24 10       	mov    %rax,0x10(%rsp)
    5290:	49 8d bd 20 01 00 00 	lea    0x120(%r13),%rdi
    5297:	48 89 f8             	mov    %rdi,%rax
    529a:	48 c1 e8 03          	shr    $0x3,%rax
    529e:	80 b8 00 80 ff 7f 00 	cmpb   $0x0,0x7fff8000(%rax)
    52a5:	0f 85 8d 26 00 00    	jne    7938 <main+0x2ea8>
    52ab:	48 8d 05 be 27 00 00 	lea    0x27be(%rip),%rax        # 7a70 <do_protected_write>
          struct Mailbox *mailboxes = calloc(mailboxes_needed, sizeof(struct Mailbox));
    52b2:	bf 0c 00 00 00       	mov    $0xc,%edi
    52b7:	be 28 00 00 00       	mov    $0x28,%esi
          thread_data[x].tasks[y].protected = do_protected_write; 
    52bc:	49 89 85 20 01 00 00 	mov    %rax,0x120(%r13)
          struct Mailbox *mailboxes = calloc(mailboxes_needed, sizeof(struct Mailbox));
    52c3:	e8 98 f1 ff ff       	call   4460 <calloc@plt>
          thread_data[x].tasks[y].mailboxes = mailboxes;
    52c8:	49 8d bd 70 01 00 00 	lea    0x170(%r13),%rdi
          struct Mailbox *mailboxes = calloc(mailboxes_needed, sizeof(struct Mailbox));
    52cf:	48 89 c3             	mov    %rax,%rbx
          thread_data[x].tasks[y].mailboxes = mailboxes;
    52d2:	48 89 f8             	mov    %rdi,%rax
    52d5:	48 c1 e8 03          	shr    $0x3,%rax
    52d9:	80 b8 00 80 ff 7f 00 	cmpb   $0x0,0x7fff8000(%rax)
    52e0:	0f 85 45 26 00 00    	jne    792b <main+0x2e9b>
    52e6:	49 89 9d 70 01 00 00 	mov    %rbx,0x170(%r13)
    52ed:	49 89 df             	mov    %rbx,%r15
          for (int b = 0 ; b < mailboxes_needed ; b++) {
    52f0:	45 31 ed             	xor    %r13d,%r13d
    52f3:	44 89 64 24 20       	mov    %r12d,0x20(%rsp)
    52f8:	45 89 f4             	mov    %r14d,%r12d
    52fb:	48 89 5c 24 28       	mov    %rbx,0x28(%rsp)
    5300:	eb 18                	jmp    531a <main+0x88a>
    5302:	66 0f 1f 44 00 00    	nopw   0x0(%rax,%rax,1)
    5308:	41 83 c5 01          	add    $0x1,%r13d
    530c:	49 83 c7 28          	add    $0x28,%r15
    5310:	41 83 fd 0c          	cmp    $0xc,%r13d
    5314:	0f 84 75 01 00 00    	je     548f <main+0x9ff>
            if ( b == x || b == x + 1) {
    531a:	41 39 ed             	cmp    %ebp,%r13d
    531d:	74 05                	je     5324 <main+0x894>
    531f:	45 39 e5             	cmp    %r12d,%r13d
    5322:	75 e4                	jne    5308 <main+0x878>
    5324:	44 89 ea             	mov    %r13d,%edx
    5327:	48 8d 35 72 c2 00 00 	lea    0xc272(%rip),%rsi        # 115a0 <_IO_stdin_used+0x15a0>
    532e:	bf 01 00 00 00       	mov    $0x1,%edi
    5333:	31 c0                	xor    %eax,%eax
    5335:	e8 e6 f1 ff ff       	call   4520 <__printf_chk@plt>
              struct Message **messages = calloc(messages_limit, sizeof(struct Message*));
    533a:	be 08 00 00 00       	mov    $0x8,%esi
    533f:	bf 01 00 00 00       	mov    $0x1,%edi
    5344:	e8 17 f1 ff ff       	call   4460 <calloc@plt>
              struct Message **messages2 = calloc(messages_limit, sizeof(struct Message*));
    5349:	be 08 00 00 00       	mov    $0x8,%esi
    534e:	bf 01 00 00 00       	mov    $0x1,%edi
              struct Message **messages = calloc(messages_limit, sizeof(struct Message*));
    5353:	49 89 c6             	mov    %rax,%r14
              struct Message **messages2 = calloc(messages_limit, sizeof(struct Message*));
    5356:	e8 05 f1 ff ff       	call   4460 <calloc@plt>
              struct Data *data = calloc(2, sizeof(struct Data));
    535b:	bf 02 00 00 00       	mov    $0x2,%edi
    5360:	be 20 00 00 00       	mov    $0x20,%esi
              struct Message **messages2 = calloc(messages_limit, sizeof(struct Message*));
    5365:	48 89 c3             	mov    %rax,%rbx
              struct Data *data = calloc(2, sizeof(struct Data));
    5368:	e8 f3 f0 ff ff       	call   4460 <calloc@plt>
    536d:	48 89 c7             	mov    %rax,%rdi
              mailboxes[b].lower = &data[0];
    5370:	4c 89 f8             	mov    %r15,%rax
    5373:	48 c1 e8 03          	shr    $0x3,%rax
    5377:	80 b8 00 80 ff 7f 00 	cmpb   $0x0,0x7fff8000(%rax)
    537e:	0f 85 b8 20 00 00    	jne    743c <main+0x29ac>
              mailboxes[b].higher = &data[1];
    5384:	49 8d 77 08          	lea    0x8(%r15),%rsi
              mailboxes[b].lower = &data[0];
    5388:	49 89 3f             	mov    %rdi,(%r15)
              mailboxes[b].higher = &data[1];
    538b:	48 8d 47 20          	lea    0x20(%rdi),%rax
    538f:	48 89 f2             	mov    %rsi,%rdx
    5392:	48 c1 ea 03          	shr    $0x3,%rdx
    5396:	80 ba 00 80 ff 7f 00 	cmpb   $0x0,0x7fff8000(%rdx)
    539d:	0f 85 a1 20 00 00    	jne    7444 <main+0x29b4>
              mailboxes[b].kind = MAILBOX_FRIEND;
    53a3:	4d 8d 47 20          	lea    0x20(%r15),%r8
              mailboxes[b].higher = &data[1];
    53a7:	49 89 47 08          	mov    %rax,0x8(%r15)
              mailboxes[b].kind = MAILBOX_FRIEND;
    53ab:	4c 89 c2             	mov    %r8,%rdx
    53ae:	48 c1 ea 03          	shr    $0x3,%rdx
    53b2:	0f b6 92 00 80 ff 7f 	movzbl 0x7fff8000(%rdx),%edx
    53b9:	84 d2                	test   %dl,%dl
    53bb:	74 09                	je     53c6 <main+0x936>
    53bd:	80 fa 03             	cmp    $0x3,%dl
    53c0:	0f 8e 86 20 00 00    	jle    744c <main+0x29bc>
              data[0].messages = messages;
    53c6:	48 89 fa             	mov    %rdi,%rdx
              mailboxes[b].kind = MAILBOX_FRIEND;
    53c9:	41 c7 47 20 01 00 00 00 	movl   $0x1,0x20(%r15)
              data[0].messages = messages;
    53d1:	48 c1 ea 03          	shr    $0x3,%rdx
    53d5:	80 ba 00 80 ff 7f 00 	cmpb   $0x0,0x7fff8000(%rdx)
    53dc:	0f 85 72 20 00 00    	jne    7454 <main+0x29c4>
              data[1].messages = messages2;
    53e2:	48 89 c2             	mov    %rax,%rdx
              data[0].messages = messages;
    53e5:	4c 89 37             	mov    %r14,(%rdi)
              data[1].messages = messages2;
    53e8:	48 c1 ea 03          	shr    $0x3,%rdx
    53ec:	80 ba 00 80 ff 7f 00 	cmpb   $0x0,0x7fff8000(%rdx)
    53f3:	0f 85 60 20 00 00    	jne    7459 <main+0x29c9>
              data[0].messages_limit = messages_limit;
    53f9:	48 8d 47 10          	lea    0x10(%rdi),%rax
              data[1].messages = messages2;
    53fd:	48 89 5f 20          	mov    %rbx,0x20(%rdi)
              data[0].messages_limit = messages_limit;
    5401:	48 89 c2             	mov    %rax,%rdx
    5404:	48 c1 ea 03          	shr    $0x3,%rdx
    5408:	80 ba 00 80 ff 7f 00 	cmpb   $0x0,0x7fff8000(%rdx)
    540f:	0f 85 4c 20 00 00    	jne    7461 <main+0x29d1>
              data[0].messages_count = 0;
    5415:	48 8d 47 08          	lea    0x8(%rdi),%rax
              data[0].messages_limit = messages_limit;
    5419:	48 c7 47 10 01 00 00 00 	movq   $0x1,0x10(%rdi)
              data[0].messages_count = 0;
    5421:	48 89 c2             	mov    %rax,%rdx
    5424:	48 c1 ea 03          	shr    $0x3,%rdx
    5428:	80 ba 00 80 ff 7f 00 	cmpb   $0x0,0x7fff8000(%rdx)
    542f:	0f 85 34 20 00 00    	jne    7469 <main+0x29d9>
              data[1].messages_count = 0;
    5435:	48 8d 47 28          	lea    0x28(%rdi),%rax
              data[0].messages_count = 0;
    5439:	48 c7 47 08 00 00 00 00 	movq   $0x0,0x8(%rdi)
              data[1].messages_count = 0;
    5441:	48 89 c2             	mov    %rax,%rdx
    5444:	48 c1 ea 03          	shr    $0x3,%rdx
    5448:	80 ba 00 80 ff 7f 00 	cmpb   $0x0,0x7fff8000(%rdx)
    544f:	0f 85 1c 20 00 00    	jne    7471 <main+0x29e1>
              data[1].messages_limit = messages_limit;
    5455:	48 8d 47 30          	lea    0x30(%rdi),%rax
              data[1].messages_count = 0;
    5459:	48 c7 47 28 00 00 00 00 	movq   $0x0,0x28(%rdi)
              data[1].messages_limit = messages_limit;
    5461:	48 89 c2             	mov    %rax,%rdx
    5464:	48 c1 ea 03          	shr    $0x3,%rdx
    5468:	80 ba 00 80 ff 7f 00 	cmpb   $0x0,0x7fff8000(%rdx)
    546f:	0f 85 04 20 00 00    	jne    7479 <main+0x29e9>
          for (int b = 0 ; b < mailboxes_needed ; b++) {
    5475:	41 83 c5 01          	add    $0x1,%r13d
              data[1].messages_limit = messages_limit;
    5479:	48 c7 47 30 01 00 00 00 	movq   $0x1,0x30(%rdi)
          for (int b = 0 ; b < mailboxes_needed ; b++) {
    5481:	49 83 c7 28          	add    $0x28,%r15
    5485:	41 83 fd 0c          	cmp    $0xc,%r13d
    5489:	0f 85 8b fe ff ff    	jne    531a <main+0x88a>
          for (int b = 0 ; b < mailboxes_needed ; b++) {
    548f:	48 8b 5c 24 28       	mov    0x28(%rsp),%rbx
    5494:	45 89 e6             	mov    %r12d,%r14d
    5497:	45 31 ff             	xor    %r15d,%r15d
    549a:	41 89 ec             	mov    %ebp,%r12d
    549d:	0f 1f 00             	nopl   (%rax)
            if (b == x || b == x + 1) { continue; }
    54a0:	45 39 e7             	cmp    %r12d,%r15d
    54a3:	0f 84 ac 01 00 00    	je     5655 <main+0xbc5>
    54a9:	45 39 f7             	cmp    %r14d,%r15d
    54ac:	0f 84 a3 01 00 00    	je     5655 <main+0xbc5>
    54b2:	44 89 fa             	mov    %r15d,%edx
    54b5:	48 8d 35 24 c1 00 00 	lea    0xc124(%rip),%rsi        # 115e0 <_IO_stdin_used+0x15e0>
    54bc:	bf 01 00 00 00       	mov    $0x1,%edi
    54c1:	31 c0                	xor    %eax,%eax
    54c3:	e8 58 f0 ff ff       	call   4520 <__printf_chk@plt>
            struct Message **messages = calloc(messages_limit, sizeof(struct Message*));
    54c8:	be 08 00 00 00       	mov    $0x8,%esi
    54cd:	bf 01 00 00 00       	mov    $0x1,%edi
    54d2:	e8 89 ef ff ff       	call   4460 <calloc@plt>
            struct Message **messages2 = calloc(messages_limit, sizeof(struct Message*));
    54d7:	be 08 00 00 00       	mov    $0x8,%esi
    54dc:	bf 01 00 00 00       	mov    $0x1,%edi
            struct Message **messages = calloc(messages_limit, sizeof(struct Message*));
    54e1:	48 89 c5             	mov    %rax,%rbp
            struct Message **messages2 = calloc(messages_limit, sizeof(struct Message*));
    54e4:	e8 77 ef ff ff       	call   4460 <calloc@plt>
            struct Data *data = calloc(2, sizeof(struct Data));
    54e9:	bf 02 00 00 00       	mov    $0x2,%edi
    54ee:	be 20 00 00 00       	mov    $0x20,%esi
            struct Message **messages2 = calloc(messages_limit, sizeof(struct Message*));
    54f3:	49 89 c5             	mov    %rax,%r13
            struct Data *data = calloc(2, sizeof(struct Data));
    54f6:	e8 65 ef ff ff       	call   4460 <calloc@plt>
    54fb:	48 89 c7             	mov    %rax,%rdi
            mailboxes[b].lower = &data[0];
    54fe:	48 89 d8             	mov    %rbx,%rax
    5501:	48 c1 e8 03          	shr    $0x3,%rax
    5505:	80 b8 00 80 ff 7f 00 	cmpb   $0x0,0x7fff8000(%rax)
    550c:	0f 85 6f 1f 00 00    	jne    7481 <main+0x29f1>
            mailboxes[b].higher = &data[1];
    5512:	48 8d 4b 08          	lea    0x8(%rbx),%rcx
            mailboxes[b].lower = &data[0];
    5516:	48 89 3b             	mov    %rdi,(%rbx)
            mailboxes[b].higher = &data[1];
    5519:	48 8d 47 20          	lea    0x20(%rdi),%rax
    551d:	48 89 ca             	mov    %rcx,%rdx
    5520:	48 c1 ea 03          	shr    $0x3,%rdx
    5524:	80 ba 00 80 ff 7f 00 	cmpb   $0x0,0x7fff8000(%rdx)
    552b:	0f 85 58 1f 00 00    	jne    7489 <main+0x29f9>
            mailboxes[b].kind = MAILBOX_FOREIGN;
    5531:	48 8d 73 20          	lea    0x20(%rbx),%rsi
            mailboxes[b].higher = &data[1];
    5535:	48 89 43 08          	mov    %rax,0x8(%rbx)
            mailboxes[b].kind = MAILBOX_FOREIGN;
    5539:	48 89 f2             	mov    %rsi,%rdx
    553c:	48 c1 ea 03          	shr    $0x3,%rdx
    5540:	0f b6 92 00 80 ff 7f 	movzbl 0x7fff8000(%rdx),%edx
    5547:	84 d2                	test   %dl,%dl
    5549:	74 09                	je     5554 <main+0xac4>
    554b:	80 fa 03             	cmp    $0x3,%dl
    554e:	0f 8e 3d 1f 00 00    	jle    7491 <main+0x2a01>
            data[0].available = 0;
    5554:	48 8d 77 18          	lea    0x18(%rdi),%rsi
            mailboxes[b].kind = MAILBOX_FOREIGN;
    5558:	c7 43 20 02 00 00 00 	movl   $0x2,0x20(%rbx)
            data[0].available = 0;
    555f:	48 89 f2             	mov    %rsi,%rdx
    5562:	48 c1 ea 03          	shr    $0x3,%rdx
    5566:	0f b6 92 00 80 ff 7f 	movzbl 0x7fff8000(%rdx),%edx
    556d:	84 d2                	test   %dl,%dl
    556f:	74 09                	je     557a <main+0xaea>
    5571:	80 fa 03             	cmp    $0x3,%dl
    5574:	0f 8e 1f 1f 00 00    	jle    7499 <main+0x2a09>
            data[0].messages = messages;
    557a:	48 89 fa             	mov    %rdi,%rdx
            data[0].available = 0;
    557d:	c7 47 18 00 00 00 00 	movl   $0x0,0x18(%rdi)
            data[0].messages = messages;
    5584:	48 c1 ea 03          	shr    $0x3,%rdx
    5588:	80 ba 00 80 ff 7f 00 	cmpb   $0x0,0x7fff8000(%rdx)
    558f:	0f 85 0c 1f 00 00    	jne    74a1 <main+0x2a11>
            data[1].messages = messages2;
    5595:	48 89 c2             	mov    %rax,%rdx
            data[0].messages = messages;
    5598:	48 89 2f             	mov    %rbp,(%rdi)
            data[1].messages = messages2;
    559b:	48 c1 ea 03          	shr    $0x3,%rdx
    559f:	80 ba 00 80 ff 7f 00 	cmpb   $0x0,0x7fff8000(%rdx)
    55a6:	0f 85 fa 1e 00 00    	jne    74a6 <main+0x2a16>
            data[1].available = 0;
    55ac:	48 8d 4f 38          	lea    0x38(%rdi),%rcx
            data[1].messages = messages2;
    55b0:	4c 89 6f 20          	mov    %r13,0x20(%rdi)
            data[1].available = 0;
    55b4:	48 89 c8             	mov    %rcx,%rax
    55b7:	48 c1 e8 03          	shr    $0x3,%rax
    55bb:	0f b6 80 00 80 ff 7f 	movzbl 0x7fff8000(%rax),%eax
    55c2:	84 c0                	test   %al,%al
    55c4:	74 08                	je     55ce <main+0xb3e>
    55c6:	3c 03                	cmp    $0x3,%al
    55c8:	0f 8e e0 1e 00 00    	jle    74ae <main+0x2a1e>
            data[0].messages_limit = messages_limit;
    55ce:	48 8d 47 10          	lea    0x10(%rdi),%rax
            data[1].available = 0;
    55d2:	c7 47 38 00 00 00 00 	movl   $0x0,0x38(%rdi)
            data[0].messages_limit = messages_limit;
    55d9:	48 89 c2             	mov    %rax,%rdx
    55dc:	48 c1 ea 03          	shr    $0x3,%rdx
    55e0:	80 ba 00 80 ff 7f 00 	cmpb   $0x0,0x7fff8000(%rdx)
    55e7:	0f 85 c9 1e 00 00    	jne    74b6 <main+0x2a26>
            data[0].messages_count = 0;
    55ed:	48 8d 47 08          	lea    0x8(%rdi),%rax
            data[0].messages_limit = messages_limit;
    55f1:	48 c7 47 10 01 00 00 00 	movq   $0x1,0x10(%rdi)
            data[0].messages_count = 0;
    55f9:	48 89 c2             	mov    %rax,%rdx
    55fc:	48 c1 ea 03          	shr    $0x3,%rdx
    5600:	80 ba 00 80 ff 7f 00 	cmpb   $0x0,0x7fff8000(%rdx)
    5607:	0f 85 b1 1e 00 00    	jne    74be <main+0x2a2e>
            data[1].messages_count = 0;
    560d:	48 8d 47 28          	lea    0x28(%rdi),%rax
            data[0].messages_count = 0;
    5611:	48 c7 47 08 00 00 00 00 	movq   $0x0,0x8(%rdi)
            data[1].messages_count = 0;
    5619:	48 89 c2             	mov    %rax,%rdx
    561c:	48 c1 ea 03          	shr    $0x3,%rdx
    5620:	80 ba 00 80 ff 7f 00 	cmpb   $0x0,0x7fff8000(%rdx)
    5627:	0f 85 99 1e 00 00    	jne    74c6 <main+0x2a36>
            data[1].messages_limit = messages_limit;
    562d:	48 8d 47 30          	lea    0x30(%rdi),%rax
            data[1].messages_count = 0;
    5631:	48 c7 47 28 00 00 00 00 	movq   $0x0,0x28(%rdi)
            data[1].messages_limit = messages_limit;
    5639:	48 89 c2             	mov    %rax,%rdx
    563c:	48 c1 ea 03          	shr    $0x3,%rdx
    5640:	80 ba 00 80 ff 7f 00 	cmpb   $0x0,0x7fff8000(%rdx)
    5647:	0f 85 81 1e 00 00    	jne    74ce <main+0x2a3e>
    564d:	48 c7 47 30 01 00 00 00 	movq   $0x1,0x30(%rdi)
          for (int b = 0 ; b < mailboxes_needed ; b++) {
    5655:	41 83 c7 01          	add    $0x1,%r15d
    5659:	48 83 c3 28          	add    $0x28,%rbx
    565d:	41 83 ff 0c          	cmp    $0xc,%r15d
    5661:	0f 85 39 fe ff ff    	jne    54a0 <main+0xa10>
          char *message = malloc(sizeof(char) * 256);
    5667:	be 01 00 00 00       	mov    $0x1,%esi
    566c:	bf 00 01 00 00       	mov    $0x100,%edi
    5671:	44 89 e5             	mov    %r12d,%ebp
    5674:	44 8b 64 24 20       	mov    0x20(%rsp),%r12d
    5679:	e8 e2 ed ff ff       	call   4460 <calloc@plt>
          struct Message *messaged = malloc(sizeof(struct Message));
    567e:	bf 18 00 00 00       	mov    $0x18,%edi
          char *message = malloc(sizeof(char) * 256);
    5683:	48 89 c3             	mov    %rax,%rbx
          struct Message *messaged = malloc(sizeof(struct Message));
    5686:	e8 05 ef ff ff       	call   4590 <malloc@plt>
  return __builtin___sprintf_chk (__s, __USE_FORTIFY_LEVEL - 1,
    568b:	45 89 e1             	mov    %r12d,%r9d
    568e:	41 89 e8             	mov    %ebp,%r8d
    5691:	ba 00 01 00 00       	mov    $0x100,%edx
    5696:	48 89 44 24 20       	mov    %rax,0x20(%rsp)
    569b:	48 8d 0d 7e bf 00 00 	lea    0xbf7e(%rip),%rcx        # 11620 <_IO_stdin_used+0x1620>
    56a2:	31 c0                	xor    %eax,%eax
    56a4:	48 89 df             	mov    %rbx,%rdi
    56a7:	be 01 00 00 00       	mov    $0x1,%esi
    56ac:	e8 6f f0 ff ff       	call   4720 <__sprintf_chk@plt>
          messaged->message = message;
    56b1:	4c 8b 5c 24 20       	mov    0x20(%rsp),%r11
    56b6:	4c 89 d8             	mov    %r11,%rax
    56b9:	48 c1 e8 03          	shr    $0x3,%rax
    56bd:	80 b8 00 80 ff 7f 00 	cmpb   $0x0,0x7fff8000(%rax)
    56c4:	0f 85 66 22 00 00    	jne    7930 <main+0x2ea0>
          messaged->task_index = y;
    56ca:	49 8d 7b 10          	lea    0x10(%r11),%rdi
          messaged->message = message;
    56ce:	49 89 1b             	mov    %rbx,(%r11)
          messaged->task_index = y;
    56d1:	48 89 f8             	mov    %rdi,%rax
    56d4:	48 c1 e8 03          	shr    $0x3,%rax
    56d8:	80 b8 00 80 ff 7f 00 	cmpb   $0x0,0x7fff8000(%rax)
    56df:	0f 85 9a 1e 00 00    	jne    757f <main+0x2aef>
    56e5:	48 8b 44 24 18       	mov    0x18(%rsp),%rax
          messaged->thread_index = thread_data[x].thread_index;
    56ea:	48 8b 5c 24 30       	mov    0x30(%rsp),%rbx
          messaged->task_index = y;
    56ef:	49 89 43 10          	mov    %rax,0x10(%r11)
          messaged->thread_index = thread_data[x].thread_index;
    56f3:	48 89 d8             	mov    %rbx,%rax
    56f6:	48 c1 e8 03          	shr    $0x3,%rax
    56fa:	0f b6 90 00 80 ff 7f 	movzbl 0x7fff8000(%rax),%edx
    5701:	48 89 d8             	mov    %rbx,%rax
    5704:	83 e0 07             	and    $0x7,%eax
    5707:	83 c0 03             	add    $0x3,%eax
    570a:	38 d0                	cmp    %dl,%al
    570c:	7c 08                	jl     5716 <main+0xc86>
    570e:	84 d2                	test   %dl,%dl
    5710:	0f 85 61 1e 00 00    	jne    7577 <main+0x2ae7>
    5716:	48 8b 04 24          	mov    (%rsp),%rax
    571a:	49 8d 7b 08          	lea    0x8(%r11),%rdi
    571e:	48 89 fa             	mov    %rdi,%rdx
    5721:	48 63 40 04          	movslq 0x4(%rax),%rax
    5725:	48 c1 ea 03          	shr    $0x3,%rdx
    5729:	80 ba 00 80 ff 7f 00 	cmpb   $0x0,0x7fff8000(%rdx)
    5730:	49 89 c7             	mov    %rax,%r15
    5733:	0f 85 39 1e 00 00    	jne    7572 <main+0x2ae2>
    5739:	49 89 43 08          	mov    %rax,0x8(%r11)
          thread_data[x].tasks[y].kind = BARRIER_TASK;
    573d:	48 8b 44 24 38       	mov    0x38(%rsp),%rax
    5742:	48 c1 e8 03          	shr    $0x3,%rax
    5746:	80 b8 00 80 ff 7f 00 	cmpb   $0x0,0x7fff8000(%rax)
    574d:	0f 85 15 1e 00 00    	jne    7568 <main+0x2ad8>
    5753:	48 8b 04 24          	mov    (%rsp),%rax
    5757:	48 8b 5c 24 10       	mov    0x10(%rsp),%rbx
    575c:	48 8b 50 38          	mov    0x38(%rax),%rdx
    5760:	48 01 d3             	add    %rdx,%rbx
    5763:	48 89 d8             	mov    %rbx,%rax
    5766:	48 c1 e8 03          	shr    $0x3,%rax
    576a:	0f b6 80 00 80 ff 7f 	movzbl 0x7fff8000(%rax),%eax
    5771:	84 c0                	test   %al,%al
    5773:	74 08                	je     577d <main+0xced>
    5775:	3c 03                	cmp    $0x3,%al
    5777:	0f 8e e3 1d 00 00    	jle    7560 <main+0x2ad0>
          thread_data[x].tasks[y].next_thread = (y + 1) % thread_count;
    577d:	48 8d bb 90 01 00 00 	lea    0x190(%rbx),%rdi
    5784:	41 8d 44 24 01       	lea    0x1(%r12),%eax
          thread_data[x].tasks[y].kind = BARRIER_TASK;
    5789:	c7 03 41 00 00 00    	movl   $0x41,(%rbx)
          thread_data[x].tasks[y].next_thread = (y + 1) % thread_count;
    578f:	48 89 f9             	mov    %rdi,%rcx
    5792:	83 e0 01             	and    $0x1,%eax
    5795:	48 c1 e9 03          	shr    $0x3,%rcx
    5799:	0f b6 89 00 80 ff 7f 	movzbl 0x7fff8000(%rcx),%ecx
    57a0:	84 c9                	test   %cl,%cl
    57a2:	74 09                	je     57ad <main+0xd1d>
    57a4:	80 f9 03             	cmp    $0x3,%cl
    57a7:	0f 8e ae 1d 00 00    	jle    755b <main+0x2acb>
          thread_data[x].tasks[y].message = messaged;
    57ad:	48 8d bb 88 01 00 00 	lea    0x188(%rbx),%rdi
          thread_data[x].tasks[y].next_thread = (y + 1) % thread_count;
    57b4:	89 83 90 01 00 00    	mov    %eax,0x190(%rbx)
          thread_data[x].tasks[y].message = messaged;
    57ba:	48 89 f8             	mov    %rdi,%rax
    57bd:	48 c1 e8 03          	shr    $0x3,%rax
    57c1:	80 b8 00 80 ff 7f 00 	cmpb   $0x0,0x7fff8000(%rax)
    57c8:	0f 85 88 1d 00 00    	jne    7556 <main+0x2ac6>
          thread_data[x].tasks[y].sending = 1;
    57ce:	48 8d bb 80 01 00 00 	lea    0x180(%rbx),%rdi
          thread_data[x].tasks[y].message = messaged;
    57d5:	4c 89 9b 88 01 00 00 	mov    %r11,0x188(%rbx)
          thread_data[x].tasks[y].sending = 1;
    57dc:	48 89 f8             	mov    %rdi,%rax
    57df:	48 c1 e8 03          	shr    $0x3,%rax
    57e3:	0f b6 80 00 80 ff 7f 	movzbl 0x7fff8000(%rax),%eax
    57ea:	84 c0                	test   %al,%al
    57ec:	74 08                	je     57f6 <main+0xd66>
    57ee:	3c 03                	cmp    $0x3,%al
    57f0:	0f 8e 5b 1d 00 00    	jle    7551 <main+0x2ac1>
          thread_data[x].tasks[y].snapshot_count = 99;
    57f6:	48 8d bb 58 01 00 00 	lea    0x158(%rbx),%rdi
          thread_data[x].tasks[y].sending = 1;
    57fd:	c7 83 80 01 00 00 01 00 00 00 	movl   $0x1,0x180(%rbx)
          thread_data[x].tasks[y].snapshot_count = 99;
    5807:	48 89 f8             	mov    %rdi,%rax
    580a:	48 c1 e8 03          	shr    $0x3,%rax
    580e:	80 b8 00 80 ff 7f 00 	cmpb   $0x0,0x7fff8000(%rax)
    5815:	0f 85 c3 1d 00 00    	jne    75de <main+0x2b4e>
          thread_data[x].tasks[y].snapshots = calloc(thread_data[x].tasks[y].snapshot_count, sizeof(struct Snapshot));
    581b:	bf 63 00 00 00       	mov    $0x63,%edi
    5820:	be 20 00 00 00       	mov    $0x20,%esi
    5825:	48 89 54 24 10       	mov    %rdx,0x10(%rsp)
          thread_data[x].tasks[y].snapshot_count = 99;
    582a:	48 c7 83 58 01 00 00 63 00 00 00 	movq   $0x63,0x158(%rbx)
          thread_data[x].tasks[y].snapshots = calloc(thread_data[x].tasks[y].snapshot_count, sizeof(struct Snapshot));
    5835:	e8 26 ec ff ff       	call   4460 <calloc@plt>
    583a:	48 8d bb 50 01 00 00 	lea    0x150(%rbx),%rdi
    5841:	48 8b 54 24 10       	mov    0x10(%rsp),%rdx
    5846:	48 89 f9             	mov    %rdi,%rcx
    5849:	48 c1 e9 03          	shr    $0x3,%rcx
    584d:	80 b9 00 80 ff 7f 00 	cmpb   $0x0,0x7fff8000(%rcx)
    5854:	0f 85 7f 1d 00 00    	jne    75d9 <main+0x2b49>
          thread_data[x].tasks[y].current_snapshot = 0;
    585a:	48 8d bb 60 01 00 00 	lea    0x160(%rbx),%rdi
          thread_data[x].tasks[y].snapshots = calloc(thread_data[x].tasks[y].snapshot_count, sizeof(struct Snapshot));
    5861:	48 89 83 50 01 00 00 	mov    %rax,0x150(%rbx)
          thread_data[x].tasks[y].current_snapshot = 0;
    5868:	48 89 f8             	mov    %rdi,%rax
    586b:	48 c1 e8 03          	shr    $0x3,%rax
    586f:	80 b8 00 80 ff 7f 00 	cmpb   $0x0,0x7fff8000(%rax)
    5876:	0f 85 58 1d 00 00    	jne    75d4 <main+0x2b44>
    587c:	48 c7 83 60 01 00 00 00 00 00 00 	movq   $0x0,0x160(%rbx)
          thread_data[x].tasks[y].thread_index = my_thread_data[me_thread]->thread_index;
    5887:	48 8b 44 24 08       	mov    0x8(%rsp),%rax
    588c:	48 c1 e8 03          	shr    $0x3,%rax
    5890:	80 b8 00 80 ff 7f 00 	cmpb   $0x0,0x7fff8000(%rax)
    5897:	0f 85 2d 1d 00 00    	jne    75ca <main+0x2b3a>
    589d:	48 8b 44 24 08       	mov    0x8(%rsp),%rax
    58a2:	48 8b 00             	mov    (%rax),%rax
    58a5:	48 8d 78 04          	lea    0x4(%rax),%rdi
    58a9:	48 89 f9             	mov    %rdi,%rcx
    58ac:	48 c1 e9 03          	shr    $0x3,%rcx
    58b0:	0f b6 b1 00 80 ff 7f 	movzbl 0x7fff8000(%rcx),%esi
    58b7:	48 89 f9             	mov    %rdi,%rcx
    58ba:	83 e1 07             	and    $0x7,%ecx
    58bd:	83 c1 03             	add    $0x3,%ecx
    58c0:	40 38 f1             	cmp    %sil,%cl
    58c3:	7c 09                	jl     58ce <main+0xe3e>
    58c5:	40 84 f6             	test   %sil,%sil
    58c8:	0f 85 f7 1c 00 00    	jne    75c5 <main+0x2b35>
    58ce:	48 8d bb 30 01 00 00 	lea    0x130(%rbx),%rdi
    58d5:	8b 70 04             	mov    0x4(%rax),%esi
    58d8:	48 89 f9             	mov    %rdi,%rcx
    58db:	48 c1 e9 03          	shr    $0x3,%rcx
    58df:	0f b6 89 00 80 ff 7f 	movzbl 0x7fff8000(%rcx),%ecx
    58e6:	84 c9                	test   %cl,%cl
    58e8:	74 09                	je     58f3 <main+0xe63>
    58ea:	80 f9 03             	cmp    $0x3,%cl
    58ed:	0f 8e cd 1c 00 00    	jle    75c0 <main+0x2b30>
          thread_data[x].tasks[y].thread = my_thread_data[me_thread]; 
    58f3:	48 8d bb 28 01 00 00 	lea    0x128(%rbx),%rdi
          thread_data[x].tasks[y].thread_index = my_thread_data[me_thread]->thread_index;
    58fa:	89 b3 30 01 00 00    	mov    %esi,0x130(%rbx)
          thread_data[x].tasks[y].thread = my_thread_data[me_thread]; 
    5900:	48 89 f9             	mov    %rdi,%rcx
    5903:	48 c1 e9 03          	shr    $0x3,%rcx
    5907:	80 b9 00 80 ff 7f 00 	cmpb   $0x0,0x7fff8000(%rcx)
    590e:	0f 85 a7 1c 00 00    	jne    75bb <main+0x2b2b>
          if (thread_data[x].tasks[y].thread != &thread_data[x]) {
    5914:	48 8b 34 24          	mov    (%rsp),%rsi
          thread_data[x].tasks[y].thread = my_thread_data[me_thread]; 
    5918:	48 89 83 28 01 00 00 	mov    %rax,0x128(%rbx)
          if (thread_data[x].tasks[y].thread != &thread_data[x]) {
    591f:	48 39 f0             	cmp    %rsi,%rax
    5922:	0f 85 84 1c 00 00    	jne    75ac <main+0x2b1c>
          thread_data[x].tasks[y].available = 1;
    5928:	48 8d bb 44 01 00 00 	lea    0x144(%rbx),%rdi
    592f:	48 89 f8             	mov    %rdi,%rax
    5932:	48 c1 e8 03          	shr    $0x3,%rax
    5936:	0f b6 88 00 80 ff 7f 	movzbl 0x7fff8000(%rax),%ecx
    593d:	48 89 f8             	mov    %rdi,%rax
    5940:	83 e0 07             	and    $0x7,%eax
    5943:	83 c0 03             	add    $0x3,%eax
    5946:	38 c8                	cmp    %cl,%al
    5948:	7c 08                	jl     5952 <main+0xec2>
    594a:	84 c9                	test   %cl,%cl
    594c:	0f 85 55 1c 00 00    	jne    75a7 <main+0x2b17>
          thread_data[x].tasks[y].arrived = 0;
    5952:	48 8d bb 80 00 00 00 	lea    0x80(%rbx),%rdi
          thread_data[x].tasks[y].available = 1;
    5959:	c7 83 44 01 00 00 01 00 00 00 	movl   $0x1,0x144(%rbx)
          thread_data[x].tasks[y].arrived = 0;
    5963:	48 89 f8             	mov    %rdi,%rax
    5966:	48 c1 e8 03          	shr    $0x3,%rax
    596a:	0f b6 80 00 80 ff 7f 	movzbl 0x7fff8000(%rax),%eax
    5971:	84 c0                	test   %al,%al
    5973:	74 08                	je     597d <main+0xeed>
    5975:	3c 03                	cmp    $0x3,%al
    5977:	0f 8e 25 1c 00 00    	jle    75a2 <main+0x2b12>
          thread_data[x].tasks[y].thread_count = 2;
    597d:	48 8d bb 34 01 00 00 	lea    0x134(%rbx),%rdi
          thread_data[x].tasks[y].arrived = 0;
    5984:	c7 83 80 00 00 00 00 00 00 00 	movl   $0x0,0x80(%rbx)
          thread_data[x].tasks[y].thread_count = 2;
    598e:	48 89 f8             	mov    %rdi,%rax
    5991:	48 c1 e8 03          	shr    $0x3,%rax
    5995:	0f b6 88 00 80 ff 7f 	movzbl 0x7fff8000(%rax),%ecx
    599c:	48 89 f8             	mov    %rdi,%rax
    599f:	83 e0 07             	and    $0x7,%eax
    59a2:	83 c0 03             	add    $0x3,%eax
    59a5:	38 c8                	cmp    %cl,%al
    59a7:	7c 08                	jl     59b1 <main+0xf21>
    59a9:	84 c9                	test   %cl,%cl
    59ab:	0f 85 ec 1b 00 00    	jne    759d <main+0x2b0d>
          thread_data[x].tasks[y].total_thread_count = thread_count;
    59b1:	48 8d bb 38 01 00 00 	lea    0x138(%rbx),%rdi
          thread_data[x].tasks[y].thread_count = 2;
    59b8:	c7 83 34 01 00 00 02 00 00 00 	movl   $0x2,0x134(%rbx)
          thread_data[x].tasks[y].total_thread_count = thread_count;
    59c2:	48 89 f8             	mov    %rdi,%rax
    59c5:	48 c1 e8 03          	shr    $0x3,%rax
    59c9:	0f b6 80 00 80 ff 7f 	movzbl 0x7fff8000(%rax),%eax
    59d0:	84 c0                	test   %al,%al
    59d2:	74 08                	je     59dc <main+0xf4c>
    59d4:	3c 03                	cmp    $0x3,%al
    59d6:	0f 8e bc 1b 00 00    	jle    7598 <main+0x2b08>
          thread_data[x].tasks[y].all_thread_count = thread_count;
    59dc:	48 8d bb 3c 01 00 00 	lea    0x13c(%rbx),%rdi
          thread_data[x].tasks[y].total_thread_count = thread_count;
    59e3:	c7 83 38 01 00 00 02 00 00 00 	movl   $0x2,0x138(%rbx)
          thread_data[x].tasks[y].all_thread_count = thread_count;
    59ed:	48 89 f8             	mov    %rdi,%rax
    59f0:	48 c1 e8 03          	shr    $0x3,%rax
    59f4:	0f b6 88 00 80 ff 7f 	movzbl 0x7fff8000(%rax),%ecx
    59fb:	48 89 f8             	mov    %rdi,%rax
    59fe:	83 e0 07             	and    $0x7,%eax
    5a01:	83 c0 03             	add    $0x3,%eax
    5a04:	38 c8                	cmp    %cl,%al
    5a06:	7c 08                	jl     5a10 <main+0xf80>
    5a08:	84 c9                	test   %cl,%cl
    5a0a:	0f 85 83 1b 00 00    	jne    7593 <main+0x2b03>
          thread_data[x].tasks[y].mailbox_thread_count = mailboxes_needed;
    5a10:	48 8d bb 40 01 00 00 	lea    0x140(%rbx),%rdi
          thread_data[x].tasks[y].all_thread_count = thread_count;
    5a17:	c7 83 3c 01 00 00 02 00 00 00 	movl   $0x2,0x13c(%rbx)
          thread_data[x].tasks[y].mailbox_thread_count = mailboxes_needed;
    5a21:	48 89 f8             	mov    %rdi,%rax
    5a24:	48 c1 e8 03          	shr    $0x3,%rax
    5a28:	0f b6 80 00 80 ff 7f 	movzbl 0x7fff8000(%rax),%eax
    5a2f:	84 c0                	test   %al,%al
    5a31:	74 08                	je     5a3b <main+0xfab>
    5a33:	3c 03                	cmp    $0x3,%al
    5a35:	0f 8e 53 1b 00 00    	jle    758e <main+0x2afe>
          thread_data[x].tasks[y].task_count = total_barrier_count;
    5a3b:	48 8d bb 48 01 00 00 	lea    0x148(%rbx),%rdi
          thread_data[x].tasks[y].mailbox_thread_count = mailboxes_needed;
    5a42:	c7 83 40 01 00 00 0c 00 00 00 	movl   $0xc,0x140(%rbx)
          thread_data[x].tasks[y].task_count = total_barrier_count;
    5a4c:	48 89 f8             	mov    %rdi,%rax
    5a4f:	48 c1 e8 03          	shr    $0x3,%rax
    5a53:	0f b6 80 00 80 ff 7f 	movzbl 0x7fff8000(%rax),%eax
    5a5a:	84 c0                	test   %al,%al
    5a5c:	74 08                	je     5a66 <main+0xfd6>
    5a5e:	3c 03                	cmp    $0x3,%al
    5a60:	0f 8e 23 1b 00 00    	jle    7589 <main+0x2af9>
          thread_data[x].tasks[y].worker_count = thread_count;
    5a66:	48 8d bb 84 01 00 00 	lea    0x184(%rbx),%rdi
          thread_data[x].tasks[y].task_count = total_barrier_count;
    5a6d:	c7 83 48 01 00 00 03 00 00 00 	movl   $0x3,0x148(%rbx)
          thread_data[x].tasks[y].worker_count = thread_count;
    5a77:	48 89 f8             	mov    %rdi,%rax
    5a7a:	48 c1 e8 03          	shr    $0x3,%rax
    5a7e:	0f b6 88 00 80 ff 7f 	movzbl 0x7fff8000(%rax),%ecx
    5a85:	48 89 f8             	mov    %rdi,%rax
    5a88:	83 e0 07             	and    $0x7,%eax
    5a8b:	83 c0 03             	add    $0x3,%eax
    5a8e:	38 c8                	cmp    %cl,%al
    5a90:	7c 08                	jl     5a9a <main+0x100a>
    5a92:	84 c9                	test   %cl,%cl
    5a94:	0f 85 ea 1a 00 00    	jne    7584 <main+0x2af4>
    5a9a:	c7 83 84 01 00 00 02 00 00 00 	movl   $0x2,0x184(%rbx)
          thread_data[x].tasks[y].task_index = y;
    5aa4:	48 8d 7b 04          	lea    0x4(%rbx),%rdi
    5aa8:	48 89 f8             	mov    %rdi,%rax
    5aab:	48 c1 e8 03          	shr    $0x3,%rax
    5aaf:	0f b6 88 00 80 ff 7f 	movzbl 0x7fff8000(%rax),%ecx
    5ab6:	48 89 f8             	mov    %rdi,%rax
    5ab9:	83 e0 07             	and    $0x7,%eax
    5abc:	83 c0 03             	add    $0x3,%eax
    5abf:	38 c8                	cmp    %cl,%al
    5ac1:	7c 08                	jl     5acb <main+0x103b>
    5ac3:	84 c9                	test   %cl,%cl
    5ac5:	0f 85 45 1a 00 00    	jne    7510 <main+0x2a80>
    5acb:	44 89 63 04          	mov    %r12d,0x4(%rbx)
          if (y == barrier_count - 1) {
    5acf:	41 83 fc 01          	cmp    $0x1,%r12d
    5ad3:	0f 84 eb 02 00 00    	je     5dc4 <main+0x1334>
            if (y == 0) {
    5ad9:	45 85 e4             	test   %r12d,%r12d
    5adc:	0f 84 ae 02 00 00    	je     5d90 <main+0x1300>
               thread_data[x].tasks[y].run = barriered_work; 
    5ae2:	48 8d bb 18 01 00 00 	lea    0x118(%rbx),%rdi
    5ae9:	45 89 fd             	mov    %r15d,%r13d
    5aec:	4c 8b 14 24          	mov    (%rsp),%r10
    5af0:	49 89 d7             	mov    %rdx,%r15
    5af3:	48 89 f8             	mov    %rdi,%rax
    5af6:	48 c1 e8 03          	shr    $0x3,%rax
    5afa:	80 b8 00 80 ff 7f 00 	cmpb   $0x0,0x7fff8000(%rax)
    5b01:	0f 85 04 1a 00 00    	jne    750b <main+0x2a7b>
    5b07:	48 8d 05 32 8d 00 00 	lea    0x8d32(%rip),%rax        # e840 <barriered_work>
        thread_data[x].buffers_count = buffers_per_thread;
    5b0e:	49 8d ba bc 00 00 00 	lea    0xbc(%r10),%rdi
               thread_data[x].tasks[y].run = barriered_work; 
    5b15:	48 89 83 18 01 00 00 	mov    %rax,0x118(%rbx)
        thread_data[x].buffers_count = buffers_per_thread;
    5b1c:	48 89 f8             	mov    %rdi,%rax
    5b1f:	48 c1 e8 03          	shr    $0x3,%rax
    5b23:	0f b6 90 00 80 ff 7f 	movzbl 0x7fff8000(%rax),%edx
    5b2a:	48 89 f8             	mov    %rdi,%rax
    5b2d:	83 e0 07             	and    $0x7,%eax
    5b30:	83 c0 03             	add    $0x3,%eax
    5b33:	38 d0                	cmp    %dl,%al
    5b35:	7c 08                	jl     5b3f <main+0x10af>
    5b37:	84 d2                	test   %dl,%dl
    5b39:	0f 85 c7 19 00 00    	jne    7506 <main+0x2a76>
        thread_data[x].buffers = calloc(buffers_per_thread, sizeof(struct Buffers*)); 
    5b3f:	bf 01 00 00 00       	mov    $0x1,%edi
    5b44:	be 08 00 00 00       	mov    $0x8,%esi
        thread_data[x].buffers_count = buffers_per_thread;
    5b49:	4c 89 14 24          	mov    %r10,(%rsp)
    5b4d:	41 c7 82 bc 00 00 00 01 00 00 00 	movl   $0x1,0xbc(%r10)
        thread_data[x].buffers = calloc(buffers_per_thread, sizeof(struct Buffers*)); 
    5b58:	e8 03 e9 ff ff       	call   4460 <calloc@plt>
    5b5d:	4c 8b 14 24          	mov    (%rsp),%r10
    5b61:	48 89 c7             	mov    %rax,%rdi
    5b64:	49 8d 42 50          	lea    0x50(%r10),%rax
    5b68:	48 89 c2             	mov    %rax,%rdx
    5b6b:	48 c1 ea 03          	shr    $0x3,%rdx
    5b6f:	80 ba 00 80 ff 7f 00 	cmpb   $0x0,0x7fff8000(%rdx)
    5b76:	0f 85 82 19 00 00    	jne    74fe <main+0x2a6e>
          thread_data[x].buffers[b] = &buffers[cur_buffer++];
    5b7c:	48 89 f8             	mov    %rdi,%rax
        thread_data[x].buffers = calloc(buffers_per_thread, sizeof(struct Buffers*)); 
    5b7f:	49 89 7a 50          	mov    %rdi,0x50(%r10)
          thread_data[x].buffers[b] = &buffers[cur_buffer++];
    5b83:	48 c1 e8 03          	shr    $0x3,%rax
    5b87:	80 b8 00 80 ff 7f 00 	cmpb   $0x0,0x7fff8000(%rax)
    5b8e:	0f 85 65 19 00 00    	jne    74f9 <main+0x2a69>
    5b94:	48 8b 44 24 40       	mov    0x40(%rsp),%rax
    5b99:	48 89 07             	mov    %rax,(%rdi)
        thread_data[x].tasks[barrier_count].protected = do_protected_write; 
    5b9c:	49 8d bf 20 05 00 00 	lea    0x520(%r15),%rdi
    5ba3:	48 89 f8             	mov    %rdi,%rax
    5ba6:	48 c1 e8 03          	shr    $0x3,%rax
    5baa:	80 b8 00 80 ff 7f 00 	cmpb   $0x0,0x7fff8000(%rax)
    5bb1:	0f 85 3d 19 00 00    	jne    74f4 <main+0x2a64>
    5bb7:	48 8d 05 b2 1e 00 00 	lea    0x1eb2(%rip),%rax        # 7a70 <do_protected_write>
        thread_data[x].tasks[barrier_count].run = barriered_reset; 
    5bbe:	49 8d bf 18 05 00 00 	lea    0x518(%r15),%rdi
        thread_data[x].tasks[barrier_count].protected = do_protected_write; 
    5bc5:	49 89 87 20 05 00 00 	mov    %rax,0x520(%r15)
        thread_data[x].tasks[barrier_count].run = barriered_reset; 
    5bcc:	48 89 f8             	mov    %rdi,%rax
    5bcf:	48 c1 e8 03          	shr    $0x3,%rax
    5bd3:	80 b8 00 80 ff 7f 00 	cmpb   $0x0,0x7fff8000(%rax)
    5bda:	0f 85 0f 19 00 00    	jne    74ef <main+0x2a5f>
        thread_data[x].tasks[barrier_count].thread = my_thread_data[me_thread]; 
    5be0:	49 8d bf 28 05 00 00 	lea    0x528(%r15),%rdi
        thread_data[x].tasks[barrier_count].run = barriered_reset; 
    5be7:	48 8d 05 62 1f 00 00 	lea    0x1f62(%rip),%rax        # 7b50 <barriered_reset>
        thread_data[x].tasks[barrier_count].thread = my_thread_data[me_thread]; 
    5bee:	48 89 fa             	mov    %rdi,%rdx
        thread_data[x].tasks[barrier_count].run = barriered_reset; 
    5bf1:	49 89 87 18 05 00 00 	mov    %rax,0x518(%r15)
        thread_data[x].tasks[barrier_count].thread = my_thread_data[me_thread]; 
    5bf8:	48 8b 44 24 08       	mov    0x8(%rsp),%rax
    5bfd:	48 c1 ea 03          	shr    $0x3,%rdx
    5c01:	80 ba 00 80 ff 7f 00 	cmpb   $0x0,0x7fff8000(%rdx)
    5c08:	48 8b 00             	mov    (%rax),%rax
    5c0b:	0f 85 d9 18 00 00    	jne    74ea <main+0x2a5a>
        thread_data[x].tasks[barrier_count].available = 1; 
    5c11:	49 8d bf 44 05 00 00 	lea    0x544(%r15),%rdi
        thread_data[x].tasks[barrier_count].thread = my_thread_data[me_thread]; 
    5c18:	49 89 87 28 05 00 00 	mov    %rax,0x528(%r15)
        thread_data[x].tasks[barrier_count].available = 1; 
    5c1f:	48 89 f8             	mov    %rdi,%rax
    5c22:	48 c1 e8 03          	shr    $0x3,%rax
    5c26:	0f b6 90 00 80 ff 7f 	movzbl 0x7fff8000(%rax),%edx
    5c2d:	48 89 f8             	mov    %rdi,%rax
    5c30:	83 e0 07             	and    $0x7,%eax
    5c33:	83 c0 03             	add    $0x3,%eax
    5c36:	38 d0                	cmp    %dl,%al
    5c38:	7c 08                	jl     5c42 <main+0x11b2>
    5c3a:	84 d2                	test   %dl,%dl
    5c3c:	0f 85 a3 18 00 00    	jne    74e5 <main+0x2a55>
        thread_data[x].tasks[barrier_count].arrived = 0; 
    5c42:	49 8d bf 80 04 00 00 	lea    0x480(%r15),%rdi
        thread_data[x].tasks[barrier_count].available = 1; 
    5c49:	41 c7 87 44 05 00 00 01 00 00 00 	movl   $0x1,0x544(%r15)
        thread_data[x].tasks[barrier_count].arrived = 0; 
    5c54:	48 89 f8             	mov    %rdi,%rax
    5c57:	48 c1 e8 03          	shr    $0x3,%rax
    5c5b:	0f b6 80 00 80 ff 7f 	movzbl 0x7fff8000(%rax),%eax
    5c62:	84 c0                	test   %al,%al
    5c64:	74 08                	je     5c6e <main+0x11de>
    5c66:	3c 03                	cmp    $0x3,%al
    5c68:	0f 8e 0a 1b 00 00    	jle    7778 <main+0x2ce8>
        thread_data[x].tasks[barrier_count].task_index = barrier_count; 
    5c6e:	49 8d bf 04 04 00 00 	lea    0x404(%r15),%rdi
        thread_data[x].tasks[barrier_count].arrived = 0; 
    5c75:	41 c7 87 80 04 00 00 00 00 00 00 	movl   $0x0,0x480(%r15)
        thread_data[x].tasks[barrier_count].task_index = barrier_count; 
    5c80:	48 89 f8             	mov    %rdi,%rax
    5c83:	48 c1 e8 03          	shr    $0x3,%rax
    5c87:	0f b6 90 00 80 ff 7f 	movzbl 0x7fff8000(%rax),%edx
    5c8e:	48 89 f8             	mov    %rdi,%rax
    5c91:	83 e0 07             	and    $0x7,%eax
    5c94:	83 c0 03             	add    $0x3,%eax
    5c97:	38 d0                	cmp    %dl,%al
    5c99:	7c 08                	jl     5ca3 <main+0x1213>
    5c9b:	84 d2                	test   %dl,%dl
    5c9d:	0f 85 d0 1a 00 00    	jne    7773 <main+0x2ce3>
        thread_data[x].tasks[barrier_count].thread_count = 2; 
    5ca3:	49 8d bf 34 05 00 00 	lea    0x534(%r15),%rdi
        thread_data[x].tasks[barrier_count].task_index = barrier_count; 
    5caa:	41 c7 87 04 04 00 00 02 00 00 00 	movl   $0x2,0x404(%r15)
        thread_data[x].tasks[barrier_count].thread_count = 2; 
    5cb5:	48 89 f8             	mov    %rdi,%rax
    5cb8:	48 c1 e8 03          	shr    $0x3,%rax
    5cbc:	0f b6 90 00 80 ff 7f 	movzbl 0x7fff8000(%rax),%edx
    5cc3:	48 89 f8             	mov    %rdi,%rax
    5cc6:	83 e0 07             	and    $0x7,%eax
    5cc9:	83 c0 03             	add    $0x3,%eax
    5ccc:	38 d0                	cmp    %dl,%al
    5cce:	7c 08                	jl     5cd8 <main+0x1248>
    5cd0:	84 d2                	test   %dl,%dl
    5cd2:	0f 85 96 1a 00 00    	jne    776e <main+0x2cde>
        thread_data[x].tasks[barrier_count].thread_index = thread_data[x].thread_index; 
    5cd8:	49 8d bf 30 05 00 00 	lea    0x530(%r15),%rdi
        thread_data[x].tasks[barrier_count].thread_count = 2; 
    5cdf:	41 c7 87 34 05 00 00 02 00 00 00 	movl   $0x2,0x534(%r15)
        thread_data[x].tasks[barrier_count].thread_index = thread_data[x].thread_index; 
    5cea:	48 89 f8             	mov    %rdi,%rax
    5ced:	48 c1 e8 03          	shr    $0x3,%rax
    5cf1:	0f b6 80 00 80 ff 7f 	movzbl 0x7fff8000(%rax),%eax
    5cf8:	84 c0                	test   %al,%al
    5cfa:	74 08                	je     5d04 <main+0x1274>
    5cfc:	3c 03                	cmp    $0x3,%al
    5cfe:	0f 8e 65 1a 00 00    	jle    7769 <main+0x2cd9>
        thread_data[x].tasks[barrier_count].worker_count = thread_count; 
    5d04:	49 8d bf 84 05 00 00 	lea    0x584(%r15),%rdi
        thread_data[x].tasks[barrier_count].thread_index = thread_data[x].thread_index; 
    5d0b:	45 89 af 30 05 00 00 	mov    %r13d,0x530(%r15)
        thread_data[x].tasks[barrier_count].worker_count = thread_count; 
    5d12:	48 89 f8             	mov    %rdi,%rax
    5d15:	48 c1 e8 03          	shr    $0x3,%rax
    5d19:	0f b6 90 00 80 ff 7f 	movzbl 0x7fff8000(%rax),%edx
    5d20:	48 89 f8             	mov    %rdi,%rax
    5d23:	83 e0 07             	and    $0x7,%eax
    5d26:	83 c0 03             	add    $0x3,%eax
    5d29:	38 d0                	cmp    %dl,%al
    5d2b:	7c 08                	jl     5d35 <main+0x12a5>
    5d2d:	84 d2                	test   %dl,%dl
    5d2f:	0f 85 2f 1a 00 00    	jne    7764 <main+0x2cd4>
        thread_data[x].tasks[barrier_count].task_count = total_barrier_count; 
    5d35:	49 8d bf 48 05 00 00 	lea    0x548(%r15),%rdi
        thread_data[x].tasks[barrier_count].worker_count = thread_count; 
    5d3c:	41 c7 87 84 05 00 00 02 00 00 00 	movl   $0x2,0x584(%r15)
        thread_data[x].tasks[barrier_count].task_count = total_barrier_count; 
    5d47:	48 89 f8             	mov    %rdi,%rax
    5d4a:	48 c1 e8 03          	shr    $0x3,%rax
    5d4e:	0f b6 80 00 80 ff 7f 	movzbl 0x7fff8000(%rax),%eax
    5d55:	84 c0                	test   %al,%al
    5d57:	74 08                	je     5d61 <main+0x12d1>
    5d59:	3c 03                	cmp    $0x3,%al
    5d5b:	0f 8e fe 19 00 00    	jle    775f <main+0x2ccf>
    for (int d = 0 ; d < threads_per_group ; d++) {
    5d61:	8b 5c 24 58          	mov    0x58(%rsp),%ebx
    5d65:	41 8d 46 01          	lea    0x1(%r14),%eax
    5d69:	48 83 44 24 40 10    	addq   $0x10,0x40(%rsp)
    5d6f:	83 c5 01             	add    $0x1,%ebp
        thread_data[x].tasks[barrier_count].task_count = total_barrier_count; 
    5d72:	41 c7 87 48 05 00 00 03 00 00 00 	movl   $0x3,0x548(%r15)
    for (int d = 0 ; d < threads_per_group ; d++) {
    5d7d:	49 81 c2 c0 00 00 00 	add    $0xc0,%r10
    5d84:	39 d8                	cmp    %ebx,%eax
    5d86:	74 4b                	je     5dd3 <main+0x1343>
    5d88:	41 89 c6             	mov    %eax,%r14d
    5d8b:	e9 a2 f0 ff ff       	jmp    4e32 <main+0x3a2>
    5d90:	48 8d 0d 39 93 00 00 	lea    0x9339(%rip),%rcx        # f0d0 <barriered_work_ingest_andwork>
    5d97:	41 bc 01 00 00 00    	mov    $0x1,%r12d
            thread_data[x].tasks[y].run = barriered_work; 
    5d9d:	48 8d bb 18 01 00 00 	lea    0x118(%rbx),%rdi
    5da4:	48 89 f8             	mov    %rdi,%rax
    5da7:	48 c1 e8 03          	shr    $0x3,%rax
    5dab:	80 b8 00 80 ff 7f 00 	cmpb   $0x0,0x7fff8000(%rax)
    5db2:	0f 85 a2 19 00 00    	jne    775a <main+0x2cca>
    5db8:	48 89 8b 18 01 00 00 	mov    %rcx,0x118(%rbx)
        for (int y = 0 ; y < total_barrier_count ; y++) {
    5dbf:	e9 b7 f4 ff ff       	jmp    527b <main+0x7eb>
    5dc4:	48 8d 0d 75 8a 00 00 	lea    0x8a75(%rip),%rcx        # e840 <barriered_work>
    5dcb:	41 bc 02 00 00 00    	mov    $0x2,%r12d
    5dd1:	eb ca                	jmp    5d9d <main+0x130d>
    5dd3:	4c 8b 4c 24 70       	mov    0x70(%rsp),%r9
  for (int k = 0 ; k < group_count ; k++) {
    5dd8:	48 83 44 24 60 18    	addq   $0x18,0x60(%rsp)
    5dde:	49 83 c1 01          	add    $0x1,%r9
    5de2:	49 83 f9 06          	cmp    $0x6,%r9
    5de6:	74 52                	je     5e3a <main+0x13aa>
          thread_data[x].buffers[b] = &buffers[cur_buffer++];
    5de8:	8b 54 24 7c          	mov    0x7c(%rsp),%edx
    5dec:	44 01 f2             	add    %r14d,%edx
    5def:	e9 f7 ef ff ff       	jmp    4deb <main+0x35b>
        my_thread_data[1] = &thread_data[other]; 
    5df4:	49 63 c6             	movslq %r14d,%rax
    5df7:	4c 89 64 24 08       	mov    %r12,0x8(%rsp)
        other = (x + 1) % total_threads;
    5dfc:	44 89 f3             	mov    %r14d,%ebx
        my_thread_data[1] = &thread_data[other]; 
    5dff:	45 31 c0             	xor    %r8d,%r8d
    5e02:	48 8d 14 40          	lea    (%rax,%rax,2),%rdx
    5e06:	48 8b 44 24 48       	mov    0x48(%rsp),%rax
    5e0b:	48 c1 e2 06          	shl    $0x6,%rdx
    5e0f:	48 01 c2             	add    %rax,%rdx
        my_thread_data[0] = &thread_data[x]; 
    5e12:	4c 89 d0             	mov    %r10,%rax
    5e15:	e9 90 f0 ff ff       	jmp    4eaa <main+0x41a>
            CPU_SET(j, sendercpu);
    5e1a:	4c 89 f8             	mov    %r15,%rax
    5e1d:	48 c1 e8 03          	shr    $0x3,%rax
    5e21:	80 b8 00 80 ff 7f 00 	cmpb   $0x0,0x7fff8000(%rax)
    5e28:	0f 85 1b 17 00 00    	jne    7549 <main+0x2ab9>
    5e2e:	49 81 0f ff 0f 00 00 	orq    $0xfff,(%r15)
          for (int j = 0 ; j < cores ; j++) {
    5e35:	e9 a8 f1 ff ff       	jmp    4fe2 <main+0x552>
  return __printf_chk (__USE_FORTIFY_LEVEL - 1, __fmt, __va_arg_pack ());
    5e3a:	4c 8b 5c 24 48       	mov    0x48(%rsp),%r11
    5e3f:	ba 0d 00 00 00       	mov    $0xd,%edx
    5e44:	48 8d 35 35 b8 00 00 	lea    0xb835(%rip),%rsi        # 11680 <_IO_stdin_used+0x1680>
    5e4b:	31 c0                	xor    %eax,%eax
    5e4d:	bf 01 00 00 00       	mov    $0x1,%edi
    5e52:	4c 89 1c 24          	mov    %r11,(%rsp)
    5e56:	e8 c5 e6 ff ff       	call   4520 <__printf_chk@plt>
    struct KernelThread **my_thread_data = calloc(2, sizeof(struct KernelThread*)); 
    5e5b:	bf 02 00 00 00       	mov    $0x2,%edi
    5e60:	be 08 00 00 00       	mov    $0x8,%esi
    5e65:	e8 f6 e5 ff ff       	call   4460 <calloc@plt>
    my_thread_data[0] = &thread_data[x]; 
    5e6a:	4c 8b 1c 24          	mov    (%rsp),%r11
    struct KernelThread **my_thread_data = calloc(2, sizeof(struct KernelThread*)); 
    5e6e:	48 89 c7             	mov    %rax,%rdi
    my_thread_data[0] = &thread_data[x]; 
    5e71:	49 8d 83 c0 09 00 00 	lea    0x9c0(%r11),%rax
    5e78:	48 89 44 24 38       	mov    %rax,0x38(%rsp)
    5e7d:	48 89 f8             	mov    %rdi,%rax
    5e80:	48 c1 e8 03          	shr    $0x3,%rax
    5e84:	80 b8 00 80 ff 7f 00 	cmpb   $0x0,0x7fff8000(%rax)
    5e8b:	0f 85 b3 16 00 00    	jne    7544 <main+0x2ab4>
    5e91:	48 8b 44 24 38       	mov    0x38(%rsp),%rax
    5e96:	48 89 07             	mov    %rax,(%rdi)
    my_thread_data[1] = &thread_data[(x + 1) % thread_count]; 
    5e99:	48 8d 47 08          	lea    0x8(%rdi),%rax
    5e9d:	48 89 c2             	mov    %rax,%rdx
    5ea0:	48 c1 ea 03          	shr    $0x3,%rdx
    5ea4:	80 ba 00 80 ff 7f 00 	cmpb   $0x0,0x7fff8000(%rdx)
    5eab:	0f 85 8b 16 00 00    	jne    753c <main+0x2aac>
    thread_data[x].threads = my_thread_data;
    5eb1:	49 8d 83 d8 09 00 00 	lea    0x9d8(%r11),%rax
    my_thread_data[1] = &thread_data[(x + 1) % thread_count]; 
    5eb8:	4c 89 5f 08          	mov    %r11,0x8(%rdi)
    thread_data[x].threads = my_thread_data;
    5ebc:	48 89 44 24 30       	mov    %rax,0x30(%rsp)
    5ec1:	48 c1 e8 03          	shr    $0x3,%rax
    5ec5:	80 b8 00 80 ff 7f 00 	cmpb   $0x0,0x7fff8000(%rax)
    5ecc:	0f 85 60 16 00 00    	jne    7532 <main+0x2aa2>
    thread_data[x].thread_count = 2;
    5ed2:	49 8d 83 e8 09 00 00 	lea    0x9e8(%r11),%rax
    thread_data[x].threads = my_thread_data;
    5ed9:	49 89 bb d8 09 00 00 	mov    %rdi,0x9d8(%r11)
    thread_data[x].thread_count = 2;
    5ee0:	48 89 44 24 28       	mov    %rax,0x28(%rsp)
    5ee5:	48 c1 e8 03          	shr    $0x3,%rax
    5ee9:	0f b6 80 00 80 ff 7f 	movzbl 0x7fff8000(%rax),%eax
    5ef0:	84 c0                	test   %al,%al
    5ef2:	74 08                	je     5efc <main+0x146c>
    5ef4:	3c 03                	cmp    $0x3,%al
    5ef6:	0f 8e df 15 00 00    	jle    74db <main+0x2a4b>
    thread_data[x].thread_index = 0;
    5efc:	4d 8d bb c4 09 00 00 	lea    0x9c4(%r11),%r15
    thread_data[x].thread_count = 2;
    5f03:	41 c7 83 e8 09 00 00 02 00 00 00 	movl   $0x2,0x9e8(%r11)
    thread_data[x].thread_index = 0;
    5f0e:	4c 89 f8             	mov    %r15,%rax
    5f11:	48 c1 e8 03          	shr    $0x3,%rax
    5f15:	0f b6 90 00 80 ff 7f 	movzbl 0x7fff8000(%rax),%edx
    5f1c:	4c 89 f8             	mov    %r15,%rax
    5f1f:	83 e0 07             	and    $0x7,%eax
    5f22:	83 c0 03             	add    $0x3,%eax
    5f25:	38 d0                	cmp    %dl,%al
    5f27:	7c 08                	jl     5f31 <main+0x14a1>
    5f29:	84 d2                	test   %dl,%dl
    5f2b:	0f 85 0c 1a 00 00    	jne    793d <main+0x2ead>
    thread_data[x].task_count = total_barrier_count;
    5f31:	49 8d 83 00 0a 00 00 	lea    0xa00(%r11),%rax
    thread_data[x].thread_index = 0;
    5f38:	41 c7 83 c4 09 00 00 00 00 00 00 	movl   $0x0,0x9c4(%r11)
    thread_data[x].task_count = total_barrier_count;
    5f43:	48 89 44 24 20       	mov    %rax,0x20(%rsp)
    5f48:	48 c1 e8 03          	shr    $0x3,%rax
    5f4c:	0f b6 80 00 80 ff 7f 	movzbl 0x7fff8000(%rax),%eax
    5f53:	84 c0                	test   %al,%al
    5f55:	74 08                	je     5f5f <main+0x14cf>
    5f57:	3c 03                	cmp    $0x3,%al
    5f59:	0f 8e 6c 18 00 00    	jle    77cb <main+0x2d3b>
    5f5f:	41 c7 83 00 0a 00 00 03 00 00 00 	movl   $0x3,0xa00(%r11)
    thread_data[n].tasks[0].scheduled = 1;
    5f6a:	49 8d 43 38          	lea    0x38(%r11),%rax
    5f6e:	48 89 44 24 40       	mov    %rax,0x40(%rsp)
    5f73:	48 c1 e8 03          	shr    $0x3,%rax
    5f77:	80 b8 00 80 ff 7f 00 	cmpb   $0x0,0x7fff8000(%rax)
    5f7e:	0f 85 fe 18 00 00    	jne    7882 <main+0x2df2>
    5f84:	49 8b 53 38          	mov    0x38(%r11),%rdx
    5f88:	48 8d ba 4c 01 00 00 	lea    0x14c(%rdx),%rdi
    5f8f:	48 89 f8             	mov    %rdi,%rax
    5f92:	48 c1 e8 03          	shr    $0x3,%rax
    5f96:	0f b6 88 00 80 ff 7f 	movzbl 0x7fff8000(%rax),%ecx
    5f9d:	48 89 f8             	mov    %rdi,%rax
    5fa0:	83 e0 07             	and    $0x7,%eax
    5fa3:	83 c0 03             	add    $0x3,%eax
    5fa6:	38 c8                	cmp    %cl,%al
    5fa8:	7c 08                	jl     5fb2 <main+0x1522>
    5faa:	84 c9                	test   %cl,%cl
    5fac:	0f 85 14 18 00 00    	jne    77c6 <main+0x2d36>
    5fb2:	49 8d 83 c0 00 00 00 	lea    0xc0(%r11),%rax
    5fb9:	49 8d bb f8 00 00 00 	lea    0xf8(%r11),%rdi
    5fc0:	c7 82 4c 01 00 00 01 00 00 00 	movl   $0x1,0x14c(%rdx)
    5fca:	48 89 44 24 18       	mov    %rax,0x18(%rsp)
    5fcf:	48 89 f8             	mov    %rdi,%rax
    5fd2:	48 c1 e8 03          	shr    $0x3,%rax
    5fd6:	80 b8 00 80 ff 7f 00 	cmpb   $0x0,0x7fff8000(%rax)
    5fdd:	0f 85 08 16 00 00    	jne    75eb <main+0x2b5b>
    5fe3:	49 8b 93 f8 00 00 00 	mov    0xf8(%r11),%rdx
    5fea:	48 8d ba 4c 01 00 00 	lea    0x14c(%rdx),%rdi
    5ff1:	48 89 f8             	mov    %rdi,%rax
    5ff4:	48 c1 e8 03          	shr    $0x3,%rax
    5ff8:	0f b6 88 00 80 ff 7f 	movzbl 0x7fff8000(%rax),%ecx
    5fff:	48 89 f8             	mov    %rdi,%rax
    6002:	83 e0 07             	and    $0x7,%eax
    6005:	83 c0 03             	add    $0x3,%eax
    6008:	38 c8                	cmp    %cl,%al
    600a:	7c 08                	jl     6014 <main+0x1584>
    600c:	84 c9                	test   %cl,%cl
    600e:	0f 85 ad 17 00 00    	jne    77c1 <main+0x2d31>
  pthread_attr_t      *thread_attr = calloc(total_threads, sizeof(pthread_attr_t));
    6014:	be 38 00 00 00       	mov    $0x38,%esi
    6019:	bf 10 00 00 00       	mov    $0x10,%edi
    601e:	4c 89 1c 24          	mov    %r11,(%rsp)
    thread_data[n].tasks[0].scheduled = 1;
    6022:	c7 82 4c 01 00 00 01 00 00 00 	movl   $0x1,0x14c(%rdx)
  pthread_attr_t      *thread_attr = calloc(total_threads, sizeof(pthread_attr_t));
    602c:	e8 2f e4 ff ff       	call   4460 <calloc@plt>
  pthread_attr_t      *timer_attr = calloc(total_threads, sizeof(pthread_attr_t));
    6031:	be 38 00 00 00       	mov    $0x38,%esi
    6036:	bf 10 00 00 00       	mov    $0x10,%edi
  pthread_attr_t      *thread_attr = calloc(total_threads, sizeof(pthread_attr_t));
    603b:	49 89 c6             	mov    %rax,%r14
  pthread_attr_t      *timer_attr = calloc(total_threads, sizeof(pthread_attr_t));
    603e:	e8 1d e4 ff ff       	call   4460 <calloc@plt>
  pthread_attr_t      *io_attr = calloc(total_threads, sizeof(pthread_attr_t));
    6043:	be 38 00 00 00       	mov    $0x38,%esi
    6048:	bf 10 00 00 00       	mov    $0x10,%edi
  pthread_attr_t      *timer_attr = calloc(total_threads, sizeof(pthread_attr_t));
    604d:	49 89 c4             	mov    %rax,%r12
  pthread_attr_t      *io_attr = calloc(total_threads, sizeof(pthread_attr_t));
    6050:	e8 0b e4 ff ff       	call   4460 <calloc@plt>
  pthread_attr_t      *external_attr = calloc(total_threads, sizeof(pthread_attr_t));
    6055:	be 38 00 00 00       	mov    $0x38,%esi
    605a:	bf 10 00 00 00       	mov    $0x10,%edi
  pthread_attr_t      *io_attr = calloc(total_threads, sizeof(pthread_attr_t));
    605f:	48 89 44 24 48       	mov    %rax,0x48(%rsp)
  pthread_attr_t      *external_attr = calloc(total_threads, sizeof(pthread_attr_t));
    6064:	e8 f7 e3 ff ff       	call   4460 <calloc@plt>
  pthread_t *thread = calloc(total_threads, sizeof(pthread_t));
    6069:	bf 10 00 00 00       	mov    $0x10,%edi
    606e:	be 08 00 00 00       	mov    $0x8,%esi
  pthread_attr_t      *external_attr = calloc(total_threads, sizeof(pthread_attr_t));
    6073:	48 89 44 24 50       	mov    %rax,0x50(%rsp)
  pthread_t *thread = calloc(total_threads, sizeof(pthread_t));
    6078:	e8 e3 e3 ff ff       	call   4460 <calloc@plt>
  thread_data[timer_threadi].type = TIMER;
    607d:	4c 8b 1c 24          	mov    (%rsp),%r11
  pthread_t *thread = calloc(total_threads, sizeof(pthread_t));
    6081:	48 89 c3             	mov    %rax,%rbx
  thread_data[timer_threadi].type = TIMER;
    6084:	49 8d bb 0c 09 00 00 	lea    0x90c(%r11),%rdi
    608b:	48 89 f8             	mov    %rdi,%rax
    608e:	48 c1 e8 03          	shr    $0x3,%rax
    6092:	0f b6 90 00 80 ff 7f 	movzbl 0x7fff8000(%rax),%edx
    6099:	48 89 f8             	mov    %rdi,%rax
    609c:	83 e0 07             	and    $0x7,%eax
    609f:	83 c0 03             	add    $0x3,%eax
    60a2:	38 d0                	cmp    %dl,%al
    60a4:	7c 08                	jl     60ae <main+0x161e>
    60a6:	84 d2                	test   %dl,%dl
    60a8:	0f 85 0e 17 00 00    	jne    77bc <main+0x2d2c>
  thread_data[timer_threadi].running = 1;
    60ae:	49 8d bb 44 09 00 00 	lea    0x944(%r11),%rdi
  thread_data[timer_threadi].type = TIMER;
    60b5:	41 c7 83 0c 09 00 00 00 00 00 00 	movl   $0x0,0x90c(%r11)
  thread_data[timer_threadi].running = 1;
    60c0:	48 89 f8             	mov    %rdi,%rax
    60c3:	48 c1 e8 03          	shr    $0x3,%rax
    60c7:	0f b6 90 00 80 ff 7f 	movzbl 0x7fff8000(%rax),%edx
    60ce:	48 89 f8             	mov    %rdi,%rax
    60d1:	83 e0 07             	and    $0x7,%eax
    60d4:	83 c0 03             	add    $0x3,%eax
    60d7:	38 d0                	cmp    %dl,%al
    60d9:	7c 08                	jl     60e3 <main+0x1653>
    60db:	84 d2                	test   %dl,%dl
    60dd:	0f 85 d4 16 00 00    	jne    77b7 <main+0x2d27>
  thread_data[timer_threadi].task_count = total_barrier_count;
    60e3:	49 8d bb 40 09 00 00 	lea    0x940(%r11),%rdi
  thread_data[timer_threadi].running = 1;
    60ea:	41 c7 83 44 09 00 00 01 00 00 00 	movl   $0x1,0x944(%r11)
  thread_data[timer_threadi].task_count = total_barrier_count;
    60f5:	48 89 f8             	mov    %rdi,%rax
    60f8:	48 c1 e8 03          	shr    $0x3,%rax
    60fc:	0f b6 80 00 80 ff 7f 	movzbl 0x7fff8000(%rax),%eax
    6103:	84 c0                	test   %al,%al
    6105:	74 08                	je     610f <main+0x167f>
    6107:	3c 03                	cmp    $0x3,%al
    6109:	0f 8e a3 16 00 00    	jle    77b2 <main+0x2d22>
  struct KernelThread **my_thread_data = calloc(total_threads, sizeof(struct KernelThread*)); 
    610f:	bf 10 00 00 00       	mov    $0x10,%edi
    6114:	be 08 00 00 00       	mov    $0x8,%esi
  thread_data[timer_threadi].task_count = total_barrier_count;
    6119:	4c 89 1c 24          	mov    %r11,(%rsp)
    611d:	41 c7 83 40 09 00 00 03 00 00 00 	movl   $0x3,0x940(%r11)
  struct KernelThread **my_thread_data = calloc(total_threads, sizeof(struct KernelThread*)); 
    6128:	e8 33 e3 ff ff       	call   4460 <calloc@plt>
    my_thread_data[n] = &thread_data[n]; 
    612d:	4c 8b 1c 24          	mov    (%rsp),%r11
  struct KernelThread **my_thread_data = calloc(total_threads, sizeof(struct KernelThread*)); 
    6131:	48 89 c7             	mov    %rax,%rdi
    my_thread_data[n] = &thread_data[n]; 
    6134:	48 c1 e8 03          	shr    $0x3,%rax
    6138:	80 b8 00 80 ff 7f 00 	cmpb   $0x0,0x7fff8000(%rax)
    613f:	0f 85 e8 13 00 00    	jne    752d <main+0x2a9d>
    6145:	48 8d 47 08          	lea    0x8(%rdi),%rax
    6149:	4c 89 1f             	mov    %r11,(%rdi)
    614c:	48 89 c2             	mov    %rax,%rdx
    614f:	48 c1 ea 03          	shr    $0x3,%rdx
    6153:	80 ba 00 80 ff 7f 00 	cmpb   $0x0,0x7fff8000(%rdx)
    615a:	0f 85 c5 13 00 00    	jne    7525 <main+0x2a95>
    6160:	48 8b 44 24 18       	mov    0x18(%rsp),%rax
    6165:	49 8d 93 80 01 00 00 	lea    0x180(%r11),%rdx
    616c:	48 89 47 08          	mov    %rax,0x8(%rdi)
    6170:	48 8d 47 10          	lea    0x10(%rdi),%rax
    6174:	48 89 c1             	mov    %rax,%rcx
    6177:	48 c1 e9 03          	shr    $0x3,%rcx
    617b:	80 b9 00 80 ff 7f 00 	cmpb   $0x0,0x7fff8000(%rcx)
    6182:	0f 85 ca 15 00 00    	jne    7752 <main+0x2cc2>
    6188:	48 8d 47 18          	lea    0x18(%rdi),%rax
    618c:	48 89 57 10          	mov    %rdx,0x10(%rdi)
    6190:	49 8d 93 40 02 00 00 	lea    0x240(%r11),%rdx
    6197:	48 89 c1             	mov    %rax,%rcx
    619a:	48 c1 e9 03          	shr    $0x3,%rcx
    619e:	80 b9 00 80 ff 7f 00 	cmpb   $0x0,0x7fff8000(%rcx)
    61a5:	0f 85 9f 15 00 00    	jne    774a <main+0x2cba>
    61ab:	48 8d 47 20          	lea    0x20(%rdi),%rax
    61af:	48 89 57 18          	mov    %rdx,0x18(%rdi)
    61b3:	49 8d 93 00 03 00 00 	lea    0x300(%r11),%rdx
    61ba:	48 89 c1             	mov    %rax,%rcx
    61bd:	48 c1 e9 03          	shr    $0x3,%rcx
    61c1:	80 b9 00 80 ff 7f 00 	cmpb   $0x0,0x7fff8000(%rcx)
    61c8:	0f 85 74 15 00 00    	jne    7742 <main+0x2cb2>
    61ce:	48 8d 47 28          	lea    0x28(%rdi),%rax
    61d2:	48 89 57 20          	mov    %rdx,0x20(%rdi)
    61d6:	49 8d 93 c0 03 00 00 	lea    0x3c0(%r11),%rdx
    61dd:	48 89 c1             	mov    %rax,%rcx
    61e0:	48 c1 e9 03          	shr    $0x3,%rcx
    61e4:	80 b9 00 80 ff 7f 00 	cmpb   $0x0,0x7fff8000(%rcx)
    61eb:	0f 85 49 15 00 00    	jne    773a <main+0x2caa>
    61f1:	48 8d 47 30          	lea    0x30(%rdi),%rax
    61f5:	48 89 57 28          	mov    %rdx,0x28(%rdi)
    61f9:	49 8d 93 80 04 00 00 	lea    0x480(%r11),%rdx
    6200:	48 89 c1             	mov    %rax,%rcx
    6203:	48 c1 e9 03          	shr    $0x3,%rcx
    6207:	80 b9 00 80 ff 7f 00 	cmpb   $0x0,0x7fff8000(%rcx)
    620e:	0f 85 1e 15 00 00    	jne    7732 <main+0x2ca2>
    6214:	48 8d 47 38          	lea    0x38(%rdi),%rax
    6218:	48 89 57 30          	mov    %rdx,0x30(%rdi)
    621c:	49 8d 93 40 05 00 00 	lea    0x540(%r11),%rdx
    6223:	48 89 c1             	mov    %rax,%rcx
    6226:	48 c1 e9 03          	shr    $0x3,%rcx
    622a:	80 b9 00 80 ff 7f 00 	cmpb   $0x0,0x7fff8000(%rcx)
    6231:	0f 85 f3 14 00 00    	jne    772a <main+0x2c9a>
    6237:	48 8d 47 40          	lea    0x40(%rdi),%rax
    623b:	48 89 57 38          	mov    %rdx,0x38(%rdi)
    623f:	49 8d 93 00 06 00 00 	lea    0x600(%r11),%rdx
    6246:	48 89 c1             	mov    %rax,%rcx
    6249:	48 c1 e9 03          	shr    $0x3,%rcx
    624d:	80 b9 00 80 ff 7f 00 	cmpb   $0x0,0x7fff8000(%rcx)
    6254:	0f 85 c8 14 00 00    	jne    7722 <main+0x2c92>
    625a:	48 8d 47 48          	lea    0x48(%rdi),%rax
    625e:	48 89 57 40          	mov    %rdx,0x40(%rdi)
    6262:	49 8d 93 c0 06 00 00 	lea    0x6c0(%r11),%rdx
    6269:	48 89 c1             	mov    %rax,%rcx
    626c:	48 c1 e9 03          	shr    $0x3,%rcx
    6270:	80 b9 00 80 ff 7f 00 	cmpb   $0x0,0x7fff8000(%rcx)
    6277:	0f 85 9d 14 00 00    	jne    771a <main+0x2c8a>
    627d:	48 8d 47 50          	lea    0x50(%rdi),%rax
    6281:	48 89 57 48          	mov    %rdx,0x48(%rdi)
    6285:	49 8d 93 80 07 00 00 	lea    0x780(%r11),%rdx
    628c:	48 89 c1             	mov    %rax,%rcx
    628f:	48 c1 e9 03          	shr    $0x3,%rcx
    6293:	80 b9 00 80 ff 7f 00 	cmpb   $0x0,0x7fff8000(%rcx)
    629a:	0f 85 7d 12 00 00    	jne    751d <main+0x2a8d>
    62a0:	48 8d 47 58          	lea    0x58(%rdi),%rax
    62a4:	48 89 57 50          	mov    %rdx,0x50(%rdi)
    62a8:	49 8d 93 40 08 00 00 	lea    0x840(%r11),%rdx
    62af:	48 89 c1             	mov    %rax,%rcx
    62b2:	48 c1 e9 03          	shr    $0x3,%rcx
    62b6:	80 b9 00 80 ff 7f 00 	cmpb   $0x0,0x7fff8000(%rcx)
    62bd:	0f 85 52 12 00 00    	jne    7515 <main+0x2a85>
  thread_data[timer_threadi].threads = my_thread_data;
    62c3:	49 8d 83 18 09 00 00 	lea    0x918(%r11),%rax
    my_thread_data[n] = &thread_data[n]; 
    62ca:	48 89 57 58          	mov    %rdx,0x58(%rdi)
  thread_data[timer_threadi].threads = my_thread_data;
    62ce:	48 89 c2             	mov    %rax,%rdx
    62d1:	48 c1 ea 03          	shr    $0x3,%rdx
    62d5:	80 ba 00 80 ff 7f 00 	cmpb   $0x0,0x7fff8000(%rdx)
    62dc:	0f 85 01 13 00 00    	jne    75e3 <main+0x2b53>
    62e2:	49 89 bb 18 09 00 00 	mov    %rdi,0x918(%r11)
  thread_data[timer_threadi].thread_count = group_count * threads_per_group;
    62e9:	49 8d bb 28 09 00 00 	lea    0x928(%r11),%rdi
    62f0:	48 89 f8             	mov    %rdi,%rax
    62f3:	48 c1 e8 03          	shr    $0x3,%rax
    62f7:	0f b6 80 00 80 ff 7f 	movzbl 0x7fff8000(%rax),%eax
    62fe:	84 c0                	test   %al,%al
    6300:	74 08                	je     630a <main+0x187a>
    6302:	3c 03                	cmp    $0x3,%al
    6304:	0f 8e a3 14 00 00    	jle    77ad <main+0x2d1d>
  thread_data[timer_threadi].my_thread_count = 2;
    630a:	49 8d bb 30 09 00 00 	lea    0x930(%r11),%rdi
  thread_data[timer_threadi].thread_count = group_count * threads_per_group;
    6311:	41 c7 83 28 09 00 00 0c 00 00 00 	movl   $0xc,0x928(%r11)
  thread_data[timer_threadi].my_thread_count = 2;
    631c:	48 89 f8             	mov    %rdi,%rax
    631f:	48 c1 e8 03          	shr    $0x3,%rax
    6323:	0f b6 80 00 80 ff 7f 	movzbl 0x7fff8000(%rax),%eax
    632a:	84 c0                	test   %al,%al
    632c:	74 08                	je     6336 <main+0x18a6>
    632e:	3c 03                	cmp    $0x3,%al
    6330:	0f 8e 72 14 00 00    	jle    77a8 <main+0x2d18>
  thread_data[timer_threadi].thread_index = 0;
    6336:	49 8d bb 04 09 00 00 	lea    0x904(%r11),%rdi
  thread_data[timer_threadi].my_thread_count = 2;
    633d:	41 c7 83 30 09 00 00 02 00 00 00 	movl   $0x2,0x930(%r11)
  thread_data[timer_threadi].thread_index = 0;
    6348:	48 89 f8             	mov    %rdi,%rax
    634b:	48 c1 e8 03          	shr    $0x3,%rax
    634f:	0f b6 90 00 80 ff 7f 	movzbl 0x7fff8000(%rax),%edx
    6356:	48 89 f8             	mov    %rdi,%rax
    6359:	83 e0 07             	and    $0x7,%eax
    635c:	83 c0 03             	add    $0x3,%eax
    635f:	38 d0                	cmp    %dl,%al
    6361:	7c 08                	jl     636b <main+0x18db>
    6363:	84 d2                	test   %dl,%dl
    6365:	0f 85 ce 14 00 00    	jne    7839 <main+0x2da9>
    636b:	ba 0c 00 00 00       	mov    $0xc,%edx
    6370:	48 8d 35 49 b3 00 00 	lea    0xb349(%rip),%rsi        # 116c0 <_IO_stdin_used+0x16c0>
    6377:	31 c0                	xor    %eax,%eax
  for (int k = 0 ; k < group_count ; k++) {
    6379:	31 ed                	xor    %ebp,%ebp
    637b:	bf 01 00 00 00       	mov    $0x1,%edi
  thread_data[timer_threadi].thread_index = 0;
    6380:	4c 89 1c 24          	mov    %r11,(%rsp)
    6384:	41 89 ed             	mov    %ebp,%r13d
    6387:	41 c7 83 04 09 00 00 00 00 00 00 	movl   $0x0,0x904(%r11)
    6392:	e8 89 e1 ff ff       	call   4520 <__printf_chk@plt>
  pthread_create(&thread[timer_threadi], &timer_attr[timer_threadi], &timer_thread, &thread_data[timer_threadi]);
    6397:	4c 8b 1c 24          	mov    (%rsp),%r11
    639b:	48 8d 15 1e 1d 00 00 	lea    0x1d1e(%rip),%rdx        # 80c0 <timer_thread>
    63a2:	49 8d b4 24 a0 02 00 00 	lea    0x2a0(%r12),%rsi
    63aa:	48 8d 7b 60          	lea    0x60(%rbx),%rdi
    63ae:	49 8d 8b 00 09 00 00 	lea    0x900(%r11),%rcx
    63b5:	e8 96 e2 ff ff       	call   4650 <pthread_create@plt>
    63ba:	4c 8b 1c 24          	mov    (%rsp),%r11
    63be:	4d 89 f0             	mov    %r14,%r8
    63c1:	48 89 d9             	mov    %rbx,%rcx
    63c4:	48 89 5c 24 58       	mov    %rbx,0x58(%rsp)
    63c9:	41 be 02 00 00 00    	mov    $0x2,%r14d
    63cf:	4c 89 5c 24 60       	mov    %r11,0x60(%rsp)
    63d4:	4c 89 da             	mov    %r11,%rdx
    63d7:	4c 89 7c 24 68       	mov    %r15,0x68(%rsp)
    63dc:	48 89 5c 24 70       	mov    %rbx,0x70(%rsp)
    for (int d = 0 ; d < threads_per_group ; d++) {
    63e1:	48 89 14 24          	mov    %rdx,(%rsp)
    63e5:	47 8d 7c 2d 00       	lea    0x0(%r13,%r13,1),%r15d
  int curcpu = 0;
    63ea:	4c 89 c5             	mov    %r8,%rbp
    63ed:	49 89 cc             	mov    %rcx,%r12
    63f0:	48 89 4c 24 08       	mov    %rcx,0x8(%rsp)
    63f5:	48 89 d3             	mov    %rdx,%rbx
    63f8:	4c 89 44 24 10       	mov    %r8,0x10(%rsp)
      thread_data[x].type = WORKER;
    63fd:	48 8d 7b 0c          	lea    0xc(%rbx),%rdi
    6401:	48 89 f8             	mov    %rdi,%rax
    6404:	48 c1 e8 03          	shr    $0x3,%rax
    6408:	0f b6 90 00 80 ff 7f 	movzbl 0x7fff8000(%rax),%edx
    640f:	48 89 f8             	mov    %rdi,%rax
    6412:	83 e0 07             	and    $0x7,%eax
    6415:	83 c0 03             	add    $0x3,%eax
    6418:	38 d0                	cmp    %dl,%al
    641a:	7c 08                	jl     6424 <main+0x1994>
    641c:	84 d2                	test   %dl,%dl
    641e:	0f 85 f1 12 00 00    	jne    7715 <main+0x2c85>
      thread_data[x].running = 1;
    6424:	48 8d 7b 44          	lea    0x44(%rbx),%rdi
      thread_data[x].type = WORKER;
    6428:	c7 43 0c 01 00 00 00 	movl   $0x1,0xc(%rbx)
      thread_data[x].running = 1;
    642f:	48 89 f8             	mov    %rdi,%rax
    6432:	48 c1 e8 03          	shr    $0x3,%rax
    6436:	0f b6 90 00 80 ff 7f 	movzbl 0x7fff8000(%rax),%edx
    643d:	48 89 f8             	mov    %rdi,%rax
    6440:	83 e0 07             	and    $0x7,%eax
    6443:	83 c0 03             	add    $0x3,%eax
    6446:	38 d0                	cmp    %dl,%al
    6448:	7c 08                	jl     6452 <main+0x19c2>
    644a:	84 d2                	test   %dl,%dl
    644c:	0f 85 be 12 00 00    	jne    7710 <main+0x2c80>
    6452:	c7 43 44 01 00 00 00 	movl   $0x1,0x44(%rbx)
    6459:	44 89 e9             	mov    %r13d,%ecx
    645c:	44 89 fa             	mov    %r15d,%edx
    645f:	31 c0                	xor    %eax,%eax
    6461:	48 8d 35 98 b2 00 00 	lea    0xb298(%rip),%rsi        # 11700 <_IO_stdin_used+0x1700>
    6468:	bf 01 00 00 00       	mov    $0x1,%edi
    646d:	e8 ae e0 ff ff       	call   4520 <__printf_chk@plt>
      pthread_create(&thread[x], &thread_attr[x], &barriered_thread, &thread_data[x]);
    6472:	4c 89 e7             	mov    %r12,%rdi
    6475:	48 89 d9             	mov    %rbx,%rcx
    6478:	48 89 ee             	mov    %rbp,%rsi
    647b:	48 8d 15 fe 6f 00 00 	lea    0x6ffe(%rip),%rdx        # d480 <barriered_thread>
    6482:	e8 c9 e1 ff ff       	call   4650 <pthread_create@plt>
      pthread_setaffinity_np(thread[x], sizeof(thread_data[x].cpu_set), thread_data[x].cpu_set);
    6487:	48 8d bb b0 00 00 00 	lea    0xb0(%rbx),%rdi
    648e:	48 89 f8             	mov    %rdi,%rax
    6491:	48 c1 e8 03          	shr    $0x3,%rax
    6495:	80 b8 00 80 ff 7f 00 	cmpb   $0x0,0x7fff8000(%rax)
    649c:	0f 85 69 12 00 00    	jne    770b <main+0x2c7b>
    64a2:	4c 89 e0             	mov    %r12,%rax
    64a5:	48 8b 93 b0 00 00 00 	mov    0xb0(%rbx),%rdx
    64ac:	48 c1 e8 03          	shr    $0x3,%rax
    64b0:	80 b8 00 80 ff 7f 00 	cmpb   $0x0,0x7fff8000(%rax)
    64b7:	0f 85 46 12 00 00    	jne    7703 <main+0x2c73>
    64bd:	49 8b 3c 24          	mov    (%r12),%rdi
    for (int d = 0 ; d < threads_per_group ; d++) {
    64c1:	41 83 c7 01          	add    $0x1,%r15d
    64c5:	49 83 c4 08          	add    $0x8,%r12
    64c9:	48 83 c5 38          	add    $0x38,%rbp
      pthread_setaffinity_np(thread[x], sizeof(thread_data[x].cpu_set), thread_data[x].cpu_set);
    64cd:	be 08 00 00 00       	mov    $0x8,%esi
    for (int d = 0 ; d < threads_per_group ; d++) {
    64d2:	48 81 c3 c0 00 00 00 	add    $0xc0,%rbx
      pthread_setaffinity_np(thread[x], sizeof(thread_data[x].cpu_set), thread_data[x].cpu_set);
    64d9:	e8 62 df ff ff       	call   4440 <pthread_setaffinity_np@plt>
    for (int d = 0 ; d < threads_per_group ; d++) {
    64de:	45 39 f7             	cmp    %r14d,%r15d
    64e1:	0f 85 16 ff ff ff    	jne    63fd <main+0x196d>
  for (int k = 0 ; k < group_count ; k++) {
    64e7:	48 8b 14 24          	mov    (%rsp),%rdx
    64eb:	48 8b 4c 24 08       	mov    0x8(%rsp),%rcx
    64f0:	41 83 c5 01          	add    $0x1,%r13d
    64f4:	45 8d 77 02          	lea    0x2(%r15),%r14d
    64f8:	4c 8b 44 24 10       	mov    0x10(%rsp),%r8
    64fd:	48 81 c2 80 01 00 00 	add    $0x180,%rdx
    6504:	48 83 c1 10          	add    $0x10,%rcx
    6508:	49 83 c0 70          	add    $0x70,%r8
    650c:	41 83 fd 06          	cmp    $0x6,%r13d
    6510:	0f 85 cb fe ff ff    	jne    63e1 <main+0x1951>
    thread_data[x].type = IO;
    6516:	4c 8b 5c 24 60       	mov    0x60(%rsp),%r11
    651b:	4c 8b 6c 24 58       	mov    0x58(%rsp),%r13
    6520:	4c 8b 7c 24 68       	mov    0x68(%rsp),%r15
    6525:	48 8b 5c 24 70       	mov    0x70(%rsp),%rbx
    652a:	49 8d bb cc 09 00 00 	lea    0x9cc(%r11),%rdi
    6531:	48 89 f8             	mov    %rdi,%rax
    6534:	48 c1 e8 03          	shr    $0x3,%rax
    6538:	0f b6 90 00 80 ff 7f 	movzbl 0x7fff8000(%rax),%edx
    653f:	48 89 f8             	mov    %rdi,%rax
    6542:	83 e0 07             	and    $0x7,%eax
    6545:	83 c0 03             	add    $0x3,%eax
    6548:	38 d0                	cmp    %dl,%al
    654a:	7c 08                	jl     6554 <main+0x1ac4>
    654c:	84 d2                	test   %dl,%dl
    654e:	0f 85 e0 12 00 00    	jne    7834 <main+0x2da4>
    thread_data[x].running = 1;
    6554:	49 8d bb 04 0a 00 00 	lea    0xa04(%r11),%rdi
    thread_data[x].type = IO;
    655b:	41 c7 83 cc 09 00 00 02 00 00 00 	movl   $0x2,0x9cc(%r11)
    thread_data[x].running = 1;
    6566:	48 89 f8             	mov    %rdi,%rax
    6569:	48 c1 e8 03          	shr    $0x3,%rax
    656d:	0f b6 90 00 80 ff 7f 	movzbl 0x7fff8000(%rax),%edx
    6574:	48 89 f8             	mov    %rdi,%rax
    6577:	83 e0 07             	and    $0x7,%eax
    657a:	83 c0 03             	add    $0x3,%eax
    657d:	38 d0                	cmp    %dl,%al
    657f:	7c 08                	jl     6589 <main+0x1af9>
    6581:	84 d2                	test   %dl,%dl
    6583:	0f 85 a6 12 00 00    	jne    782f <main+0x2d9f>
    6589:	41 c7 83 04 0a 00 00 01 00 00 00 	movl   $0x1,0xa04(%r11)
    thread_data[x].task_count = 0;
    6594:	48 8b 44 24 20       	mov    0x20(%rsp),%rax
    6599:	48 c1 e8 03          	shr    $0x3,%rax
    659d:	0f b6 80 00 80 ff 7f 	movzbl 0x7fff8000(%rax),%eax
    65a4:	84 c0                	test   %al,%al
    65a6:	74 08                	je     65b0 <main+0x1b20>
    65a8:	3c 03                	cmp    $0x3,%al
    65aa:	0f 8e 75 12 00 00    	jle    7825 <main+0x2d95>
    thread_data[x].ring = calloc(1, sizeof(struct io_uring));
    65b0:	bf 01 00 00 00       	mov    $0x1,%edi
    65b5:	be d8 00 00 00       	mov    $0xd8,%esi
    thread_data[x].task_count = 0;
    65ba:	4c 89 1c 24          	mov    %r11,(%rsp)
    65be:	41 c7 83 00 0a 00 00 00 00 00 00 	movl   $0x0,0xa00(%r11)
    thread_data[x].ring = calloc(1, sizeof(struct io_uring));
    65c9:	e8 92 de ff ff       	call   4460 <calloc@plt>
    65ce:	4c 8b 1c 24          	mov    (%rsp),%r11
    65d2:	49 8d bb 18 0a 00 00 	lea    0xa18(%r11),%rdi
    65d9:	48 89 fa             	mov    %rdi,%rdx
    65dc:	48 c1 ea 03          	shr    $0x3,%rdx
    65e0:	80 ba 00 80 ff 7f 00 	cmpb   $0x0,0x7fff8000(%rdx)
    65e7:	0f 85 ff 10 00 00    	jne    76ec <main+0x2c5c>
    65ed:	49 89 83 18 0a 00 00 	mov    %rax,0xa18(%r11)
    thread_data[x]._eventfd = eventfd(0, EFD_NONBLOCK); 
    65f4:	31 ff                	xor    %edi,%edi
    65f6:	be 00 08 00 00       	mov    $0x800,%esi
    thread_data[x].ring = calloc(1, sizeof(struct io_uring));
    65fb:	4c 89 1c 24          	mov    %r11,(%rsp)
    thread_data[x]._eventfd = eventfd(0, EFD_NONBLOCK); 
    65ff:	e8 cc df ff ff       	call   45d0 <eventfd@plt>
    6604:	4c 8b 1c 24          	mov    (%rsp),%r11
    6608:	49 8d bb 20 0a 00 00 	lea    0xa20(%r11),%rdi
    660f:	48 89 fa             	mov    %rdi,%rdx
    6612:	48 c1 ea 03          	shr    $0x3,%rdx
    6616:	0f b6 92 00 80 ff 7f 	movzbl 0x7fff8000(%rdx),%edx
    661d:	84 d2                	test   %dl,%dl
    661f:	74 09                	je     662a <main+0x1b9a>
    6621:	80 fa 03             	cmp    $0x3,%dl
    6624:	0f 8e f6 11 00 00    	jle    7820 <main+0x2d90>
    struct KernelThread **my_thread_data = calloc(thread_count, sizeof(struct KernelThread*)); 
    662a:	bf 02 00 00 00       	mov    $0x2,%edi
    thread_data[x]._eventfd = eventfd(0, EFD_NONBLOCK); 
    662f:	41 89 83 20 0a 00 00 	mov    %eax,0xa20(%r11)
    struct KernelThread **my_thread_data = calloc(thread_count, sizeof(struct KernelThread*)); 
    6636:	be 08 00 00 00       	mov    $0x8,%esi
    thread_data[x]._eventfd = eventfd(0, EFD_NONBLOCK); 
    663b:	4c 89 1c 24          	mov    %r11,(%rsp)
    struct KernelThread **my_thread_data = calloc(thread_count, sizeof(struct KernelThread*)); 
    663f:	e8 1c de ff ff       	call   4460 <calloc@plt>
      my_thread_data[n] = &thread_data[n]; 
    6644:	4c 8b 1c 24          	mov    (%rsp),%r11
    struct KernelThread **my_thread_data = calloc(thread_count, sizeof(struct KernelThread*)); 
    6648:	48 89 c7             	mov    %rax,%rdi
      my_thread_data[n] = &thread_data[n]; 
    664b:	48 c1 e8 03          	shr    $0x3,%rax
    664f:	80 b8 00 80 ff 7f 00 	cmpb   $0x0,0x7fff8000(%rax)
    6656:	0f 85 8b 10 00 00    	jne    76e7 <main+0x2c57>
    665c:	48 8d 47 08          	lea    0x8(%rdi),%rax
    6660:	4c 89 1f             	mov    %r11,(%rdi)
    6663:	48 89 c2             	mov    %rax,%rdx
    6666:	48 c1 ea 03          	shr    $0x3,%rdx
    666a:	80 ba 00 80 ff 7f 00 	cmpb   $0x0,0x7fff8000(%rdx)
    6671:	0f 85 84 10 00 00    	jne    76fb <main+0x2c6b>
    6677:	48 8b 44 24 18       	mov    0x18(%rsp),%rax
    667c:	48 89 47 08          	mov    %rax,0x8(%rdi)
    thread_data[x].threads = my_thread_data;
    6680:	48 8b 44 24 30       	mov    0x30(%rsp),%rax
    6685:	48 c1 e8 03          	shr    $0x3,%rax
    6689:	80 b8 00 80 ff 7f 00 	cmpb   $0x0,0x7fff8000(%rax)
    6690:	0f 85 5b 10 00 00    	jne    76f1 <main+0x2c61>
    thread_data[x].thread_count = thread_count;
    6696:	48 8b 44 24 28       	mov    0x28(%rsp),%rax
    thread_data[x].threads = my_thread_data;
    669b:	49 89 bb d8 09 00 00 	mov    %rdi,0x9d8(%r11)
    thread_data[x].thread_count = thread_count;
    66a2:	48 c1 e8 03          	shr    $0x3,%rax
    66a6:	0f b6 80 00 80 ff 7f 	movzbl 0x7fff8000(%rax),%eax
    66ad:	84 c0                	test   %al,%al
    66af:	74 08                	je     66b9 <main+0x1c29>
    66b1:	3c 03                	cmp    $0x3,%al
    66b3:	0f 8e 5d 11 00 00    	jle    7816 <main+0x2d86>
    66b9:	41 c7 83 e8 09 00 00 02 00 00 00 	movl   $0x2,0x9e8(%r11)
    thread_data[x].thread_index = x;
    66c4:	4c 89 f8             	mov    %r15,%rax
    66c7:	48 c1 e8 03          	shr    $0x3,%rax
    66cb:	0f b6 90 00 80 ff 7f 	movzbl 0x7fff8000(%rax),%edx
    66d2:	4c 89 f8             	mov    %r15,%rax
    66d5:	83 e0 07             	and    $0x7,%eax
    66d8:	83 c0 03             	add    $0x3,%eax
    66db:	38 d0                	cmp    %dl,%al
    66dd:	7c 08                	jl     66e7 <main+0x1c57>
    66df:	84 d2                	test   %dl,%dl
    66e1:	0f 85 27 11 00 00    	jne    780e <main+0x2d7e>
    66e7:	ba 0d 00 00 00       	mov    $0xd,%edx
    66ec:	bf 01 00 00 00       	mov    $0x1,%edi
    66f1:	31 c0                	xor    %eax,%eax
    66f3:	4c 89 1c 24          	mov    %r11,(%rsp)
    66f7:	41 c7 83 c4 09 00 00 0d 00 00 00 	movl   $0xd,0x9c4(%r11)
    6702:	48 8d 35 57 b0 00 00 	lea    0xb057(%rip),%rsi        # 11760 <_IO_stdin_used+0x1760>
    6709:	4c 8d 73 70          	lea    0x70(%rbx),%r14
    670d:	e8 0e de ff ff       	call   4520 <__printf_chk@plt>
    pthread_create(&thread[x], &io_attr[x], &io_thread, &thread_data[x]);
    6712:	48 8b 74 24 48       	mov    0x48(%rsp),%rsi
    6717:	48 8d 7b 68          	lea    0x68(%rbx),%rdi
    671b:	48 8b 4c 24 38       	mov    0x38(%rsp),%rcx
    6720:	48 8d 15 39 50 00 00 	lea    0x5039(%rip),%rdx        # b760 <io_thread>
  for (int x = external_index, buffer_index = 0 ; x < external_index + external_threads; x++, buffer_index++) {
    6727:	bb 0e 00 00 00       	mov    $0xe,%ebx
    pthread_create(&thread[x], &io_attr[x], &io_thread, &thread_data[x]);
    672c:	48 81 c6 d8 02 00 00 	add    $0x2d8,%rsi
    6733:	e8 18 df ff ff       	call   4650 <pthread_create@plt>
    6738:	ba 0e 00 00 00       	mov    $0xe,%edx
    673d:	48 8d 35 5c b0 00 00 	lea    0xb05c(%rip),%rsi        # 117a0 <_IO_stdin_used+0x17a0>
    6744:	31 c0                	xor    %eax,%eax
    6746:	bf 01 00 00 00       	mov    $0x1,%edi
    674b:	e8 d0 dd ff ff       	call   4520 <__printf_chk@plt>
  for (int x = external_index, buffer_index = 0 ; x < external_index + external_threads; x++, buffer_index++) {
    6750:	4c 8b 1c 24          	mov    (%rsp),%r11
    6754:	4c 8b 7c 24 50       	mov    0x50(%rsp),%r15
    6759:	4d 8d a3 8c 0a 00 00 	lea    0xa8c(%r11),%r12
    6760:	49 81 c7 10 03 00 00 	add    $0x310,%r15
    6767:	4c 89 e5             	mov    %r12,%rbp
    676a:	4d 89 dc             	mov    %r11,%r12
    676d:	89 da                	mov    %ebx,%edx
    676f:	48 8d 35 6a b0 00 00 	lea    0xb06a(%rip),%rsi        # 117e0 <_IO_stdin_used+0x17e0>
    6776:	bf 01 00 00 00       	mov    $0x1,%edi
    677b:	31 c0                	xor    %eax,%eax
    677d:	e8 9e dd ff ff       	call   4520 <__printf_chk@plt>
    thread_data[x].type = EXTERNAL;
    6782:	48 8d 45 f4          	lea    -0xc(%rbp),%rax
    6786:	48 89 04 24          	mov    %rax,(%rsp)
    678a:	48 89 e8             	mov    %rbp,%rax
    678d:	48 c1 e8 03          	shr    $0x3,%rax
    6791:	0f b6 90 00 80 ff 7f 	movzbl 0x7fff8000(%rax),%edx
    6798:	48 89 e8             	mov    %rbp,%rax
    679b:	83 e0 07             	and    $0x7,%eax
    679e:	83 c0 03             	add    $0x3,%eax
    67a1:	38 d0                	cmp    %dl,%al
    67a3:	7c 08                	jl     67ad <main+0x1d1d>
    67a5:	84 d2                	test   %dl,%dl
    67a7:	0f 85 59 10 00 00    	jne    7806 <main+0x2d76>
    thread_data[x].running = 1;
    67ad:	48 8d 7d 38          	lea    0x38(%rbp),%rdi
    thread_data[x].type = EXTERNAL;
    67b1:	c7 45 00 03 00 00 00 	movl   $0x3,0x0(%rbp)
    thread_data[x].running = 1;
    67b8:	48 89 f8             	mov    %rdi,%rax
    67bb:	48 c1 e8 03          	shr    $0x3,%rax
    67bf:	0f b6 90 00 80 ff 7f 	movzbl 0x7fff8000(%rax),%edx
    67c6:	48 89 f8             	mov    %rdi,%rax
    67c9:	83 e0 07             	and    $0x7,%eax
    67cc:	83 c0 03             	add    $0x3,%eax
    67cf:	38 d0                	cmp    %dl,%al
    67d1:	7c 08                	jl     67db <main+0x1d4b>
    67d3:	84 d2                	test   %dl,%dl
    67d5:	0f 85 26 10 00 00    	jne    7801 <main+0x2d71>
    thread_data[x].task_count = 0;
    67db:	48 8d 7d 34          	lea    0x34(%rbp),%rdi
    thread_data[x].running = 1;
    67df:	c7 45 38 01 00 00 00 	movl   $0x1,0x38(%rbp)
    thread_data[x].task_count = 0;
    67e6:	48 89 f8             	mov    %rdi,%rax
    67e9:	48 c1 e8 03          	shr    $0x3,%rax
    67ed:	0f b6 80 00 80 ff 7f 	movzbl 0x7fff8000(%rax),%eax
    67f4:	84 c0                	test   %al,%al
    67f6:	74 08                	je     6800 <main+0x1d70>
    67f8:	3c 03                	cmp    $0x3,%al
    67fa:	0f 8e fc 0f 00 00    	jle    77fc <main+0x2d6c>
    6800:	c7 45 34 00 00 00 00 	movl   $0x0,0x34(%rbp)
    thread_data[x].buffers = calloc(1, sizeof(struct Buffers*));
    6807:	bf 01 00 00 00       	mov    $0x1,%edi
    680c:	be 08 00 00 00       	mov    $0x8,%esi
    6811:	e8 4a dc ff ff       	call   4460 <calloc@plt>
    6816:	48 89 c7             	mov    %rax,%rdi
    6819:	48 8d 45 44          	lea    0x44(%rbp),%rax
    681d:	48 89 c2             	mov    %rax,%rdx
    6820:	48 c1 ea 03          	shr    $0x3,%rdx
    6824:	80 ba 00 80 ff 7f 00 	cmpb   $0x0,0x7fff8000(%rdx)
    682b:	0f 85 c3 0f 00 00    	jne    77f4 <main+0x2d64>
		thread_data[x].buffers[0] = &buffers[next_buffer++];
    6831:	48 89 f8             	mov    %rdi,%rax
    thread_data[x].buffers = calloc(1, sizeof(struct Buffers*));
    6834:	48 89 7d 44          	mov    %rdi,0x44(%rbp)
		thread_data[x].buffers[0] = &buffers[next_buffer++];
    6838:	48 c1 e8 03          	shr    $0x3,%rax
    683c:	80 b8 00 80 ff 7f 00 	cmpb   $0x0,0x7fff8000(%rax)
    6843:	0f 85 a6 0f 00 00    	jne    77ef <main+0x2d5f>
    6849:	48 8b 84 24 a0 00 00 00 	mov    0xa0(%rsp),%rax
    6851:	48 89 07             	mov    %rax,(%rdi)
	  thread_data[x].buffers_count = 1;
    6854:	48 8d bd b0 00 00 00 	lea    0xb0(%rbp),%rdi
    685b:	48 89 f8             	mov    %rdi,%rax
    685e:	48 c1 e8 03          	shr    $0x3,%rax
    6862:	0f b6 90 00 80 ff 7f 	movzbl 0x7fff8000(%rax),%edx
    6869:	48 89 f8             	mov    %rdi,%rax
    686c:	83 e0 07             	and    $0x7,%eax
    686f:	83 c0 03             	add    $0x3,%eax
    6872:	38 d0                	cmp    %dl,%al
    6874:	7c 08                	jl     687e <main+0x1dee>
    6876:	84 d2                	test   %dl,%dl
    6878:	0f 85 6c 0f 00 00    	jne    77ea <main+0x2d5a>
    687e:	c7 85 b0 00 00 00 01 00 00 00 	movl   $0x1,0xb0(%rbp)
    struct KernelThread **my_thread_data = calloc(thread_count, sizeof(struct KernelThread*)); 
    6888:	bf 02 00 00 00       	mov    $0x2,%edi
    688d:	be 08 00 00 00       	mov    $0x8,%esi
    6892:	e8 c9 db ff ff       	call   4460 <calloc@plt>
    6897:	48 89 c7             	mov    %rax,%rdi
      my_thread_data[n] = &thread_data[n]; 
    689a:	48 c1 e8 03          	shr    $0x3,%rax
    689e:	80 b8 00 80 ff 7f 00 	cmpb   $0x0,0x7fff8000(%rax)
    68a5:	0f 85 3a 0f 00 00    	jne    77e5 <main+0x2d55>
    68ab:	48 8d 47 08          	lea    0x8(%rdi),%rax
    68af:	4c 89 27             	mov    %r12,(%rdi)
    68b2:	48 89 c2             	mov    %rax,%rdx
    68b5:	48 c1 ea 03          	shr    $0x3,%rdx
    68b9:	80 ba 00 80 ff 7f 00 	cmpb   $0x0,0x7fff8000(%rdx)
    68c0:	0f 85 17 0f 00 00    	jne    77dd <main+0x2d4d>
    68c6:	48 8b 44 24 18       	mov    0x18(%rsp),%rax
    68cb:	48 89 47 08          	mov    %rax,0x8(%rdi)
    thread_data[x].threads = my_thread_data;
    68cf:	48 8d 45 0c          	lea    0xc(%rbp),%rax
    68d3:	48 89 c2             	mov    %rax,%rdx
    68d6:	48 c1 ea 03          	shr    $0x3,%rdx
    68da:	80 ba 00 80 ff 7f 00 	cmpb   $0x0,0x7fff8000(%rdx)
    68e1:	0f 85 ee 0e 00 00    	jne    77d5 <main+0x2d45>
    68e7:	48 89 7d 0c          	mov    %rdi,0xc(%rbp)
    thread_data[x].thread_count = thread_count;
    68eb:	48 8d 7d 1c          	lea    0x1c(%rbp),%rdi
    68ef:	48 89 f8             	mov    %rdi,%rax
    68f2:	48 c1 e8 03          	shr    $0x3,%rax
    68f6:	0f b6 80 00 80 ff 7f 	movzbl 0x7fff8000(%rax),%eax
    68fd:	84 c0                	test   %al,%al
    68ff:	74 08                	je     6909 <main+0x1e79>
    6901:	3c 03                	cmp    $0x3,%al
    6903:	0f 8e 1d 10 00 00    	jle    7926 <main+0x2e96>
    thread_data[x].total_thread_count = total_threads;
    6909:	48 8d 7d 20          	lea    0x20(%rbp),%rdi
    thread_data[x].thread_count = thread_count;
    690d:	c7 45 1c 02 00 00 00 	movl   $0x2,0x1c(%rbp)
    thread_data[x].total_thread_count = total_threads;
    6914:	48 89 f8             	mov    %rdi,%rax
    6917:	48 c1 e8 03          	shr    $0x3,%rax
    691b:	0f b6 90 00 80 ff 7f 	movzbl 0x7fff8000(%rax),%edx
    6922:	48 89 f8             	mov    %rdi,%rax
    6925:	83 e0 07             	and    $0x7,%eax
    6928:	83 c0 03             	add    $0x3,%eax
    692b:	38 d0                	cmp    %dl,%al
    692d:	7c 08                	jl     6937 <main+0x1ea7>
    692f:	84 d2                	test   %dl,%dl
    6931:	0f 85 ea 0f 00 00    	jne    7921 <main+0x2e91>
    thread_data[x].thread_index = x;
    6937:	48 8d 7d f8          	lea    -0x8(%rbp),%rdi
    thread_data[x].total_thread_count = total_threads;
    693b:	c7 45 20 10 00 00 00 	movl   $0x10,0x20(%rbp)
    thread_data[x].thread_index = x;
    6942:	48 89 f8             	mov    %rdi,%rax
    6945:	48 c1 e8 03          	shr    $0x3,%rax
    6949:	0f b6 90 00 80 ff 7f 	movzbl 0x7fff8000(%rax),%edx
    6950:	48 89 f8             	mov    %rdi,%rax
    6953:	83 e0 07             	and    $0x7,%eax
    6956:	83 c0 03             	add    $0x3,%eax
    6959:	38 d0                	cmp    %dl,%al
    695b:	7c 08                	jl     6965 <main+0x1ed5>
    695d:	84 d2                	test   %dl,%dl
    695f:	0f 85 b7 0f 00 00    	jne    791c <main+0x2e8c>
    6965:	89 5d f8             	mov    %ebx,-0x8(%rbp)
    pthread_create(&thread[x], &external_attr[x], &external_thread, &thread_data[x]);
    6968:	48 8b 0c 24          	mov    (%rsp),%rcx
    696c:	4c 89 fe             	mov    %r15,%rsi
    696f:	4c 89 f7             	mov    %r14,%rdi
    6972:	48 8d 15 b7 13 00 00 	lea    0x13b7(%rip),%rdx        # 7d30 <external_thread>
  for (int x = external_index, buffer_index = 0 ; x < external_index + external_threads; x++, buffer_index++) {
    6979:	48 81 c5 c0 00 00 00 	add    $0xc0,%rbp
    6980:	49 83 c6 08          	add    $0x8,%r14
    6984:	49 83 c7 38          	add    $0x38,%r15
    pthread_create(&thread[x], &external_attr[x], &external_thread, &thread_data[x]);
    6988:	e8 c3 dc ff ff       	call   4650 <pthread_create@plt>
  for (int x = external_index, buffer_index = 0 ; x < external_index + external_threads; x++, buffer_index++) {
    698d:	48 83 84 24 a0 00 00 00 10 	addq   $0x10,0xa0(%rsp)
    6996:	83 fb 0e             	cmp    $0xe,%ebx
    6999:	75 0a                	jne    69a5 <main+0x1f15>
    699b:	bb 0f 00 00 00       	mov    $0xf,%ebx
    69a0:	e9 c8 fd ff ff       	jmp    676d <main+0x1cdd>
    69a5:	4d 89 e3             	mov    %r12,%r11
    69a8:	4d 8d 74 24 08       	lea    0x8(%r12),%r14
    69ad:	48 8d 1d 6c ae 00 00 	lea    0xae6c(%rip),%rbx        # 11820 <_IO_stdin_used+0x1820>
    69b4:	4d 8d a4 24 08 0c 00 00 	lea    0xc08(%r12),%r12
    69bc:	4c 89 dd             	mov    %r11,%rbp
    69bf:	90                   	nop
    printf("threadindex %d %d\n", thread_data[x].thread_index, thread_data[x].real_thread_index);
    69c0:	4c 89 f0             	mov    %r14,%rax
    69c3:	48 c1 e8 03          	shr    $0x3,%rax
    69c7:	0f b6 80 00 80 ff 7f 	movzbl 0x7fff8000(%rax),%eax
    69ce:	84 c0                	test   %al,%al
    69d0:	74 08                	je     69da <main+0x1f4a>
    69d2:	3c 03                	cmp    $0x3,%al
    69d4:	0f 8e 3a 0f 00 00    	jle    7914 <main+0x2e84>
    69da:	49 8d 7e fc          	lea    -0x4(%r14),%rdi
    69de:	41 8b 0e             	mov    (%r14),%ecx
    69e1:	48 89 f8             	mov    %rdi,%rax
    69e4:	48 c1 e8 03          	shr    $0x3,%rax
    69e8:	0f b6 90 00 80 ff 7f 	movzbl 0x7fff8000(%rax),%edx
    69ef:	48 89 f8             	mov    %rdi,%rax
    69f2:	83 e0 07             	and    $0x7,%eax
    69f5:	83 c0 03             	add    $0x3,%eax
    69f8:	38 d0                	cmp    %dl,%al
    69fa:	7c 08                	jl     6a04 <main+0x1f74>
    69fc:	84 d2                	test   %dl,%dl
    69fe:	0f 85 0b 0f 00 00    	jne    790f <main+0x2e7f>
    6a04:	41 8b 56 fc          	mov    -0x4(%r14),%edx
    6a08:	48 89 de             	mov    %rbx,%rsi
    6a0b:	bf 01 00 00 00       	mov    $0x1,%edi
    6a10:	31 c0                	xor    %eax,%eax
  for (int x = 0 ; x < total_threads ; x++) {
    6a12:	49 81 c6 c0 00 00 00 	add    $0xc0,%r14
    6a19:	e8 02 db ff ff       	call   4520 <__printf_chk@plt>
    6a1e:	4d 39 f4             	cmp    %r14,%r12
    6a21:	75 9d                	jne    69c0 <main+0x1f30>
    6a23:	48 8d 3d 36 ae 00 00 	lea    0xae36(%rip),%rdi        # 11860 <_IO_stdin_used+0x1860>
    6a2a:	48 89 2c 24          	mov    %rbp,(%rsp)
  for (int x = 0 ; x < total_threads ; x++) {
    6a2e:	31 db                	xor    %ebx,%ebx
    6a30:	4c 8d 25 69 ae 00 00 	lea    0xae69(%rip),%r12        # 118a0 <_IO_stdin_used+0x18a0>
    6a37:	e8 c4 dd ff ff       	call   4800 <puts@plt>
    6a3c:	48 8b 84 24 b8 00 00 00 	mov    0xb8(%rsp),%rax
    6a44:	4c 8b 34 24          	mov    (%rsp),%r14
    6a48:	4c 8d 78 c0          	lea    -0x40(%rax),%r15
    6a4c:	0f 1f 40 00          	nopl   0x0(%rax)
    void * result; 
    6a50:	4c 89 fd             	mov    %r15,%rbp
    pthread_join(thread[x], &result);
    6a53:	4c 89 e8             	mov    %r13,%rax
    void * result; 
    6a56:	48 c1 ed 03          	shr    $0x3,%rbp
    pthread_join(thread[x], &result);
    6a5a:	48 c1 e8 03          	shr    $0x3,%rax
    void * result; 
    6a5e:	c6 85 00 80 ff 7f 00 	movb   $0x0,0x7fff8000(%rbp)
    pthread_join(thread[x], &result);
    6a65:	80 b8 00 80 ff 7f 00 	cmpb   $0x0,0x7fff8000(%rax)
    6a6c:	0f 85 95 0e 00 00    	jne    7907 <main+0x2e77>
    6a72:	49 8b 7d 00          	mov    0x0(%r13),%rdi
    6a76:	4c 89 fe             	mov    %r15,%rsi
  for (int x = 0 ; x < total_threads ; x++) {
    6a79:	49 83 c5 08          	add    $0x8,%r13
    pthread_join(thread[x], &result);
    6a7d:	e8 ae dd ff ff       	call   4830 <pthread_join@plt>
    6a82:	89 da                	mov    %ebx,%edx
    6a84:	4c 89 e6             	mov    %r12,%rsi
    6a87:	bf 01 00 00 00       	mov    $0x1,%edi
    6a8c:	31 c0                	xor    %eax,%eax
  for (int x = 0 ; x < total_threads ; x++) {
    6a8e:	83 c3 01             	add    $0x1,%ebx
    6a91:	e8 8a da ff ff       	call   4520 <__printf_chk@plt>
    6a96:	c6 85 00 80 ff 7f f8 	movb   $0xf8,0x7fff8000(%rbp)
    6a9d:	83 fb 10             	cmp    $0x10,%ebx
    6aa0:	75 ae                	jne    6a50 <main+0x1fc0>
  long received = 0;
    6aa2:	45 31 d2             	xor    %r10d,%r10d
  long ingests = 0;
    6aa5:	45 31 c0             	xor    %r8d,%r8d
    6aa8:	48 8b 6c 24 40       	mov    0x40(%rsp),%rbp
    6aad:	4c 89 74 24 30       	mov    %r14,0x30(%rsp)
  for (int x = 0 ; x < thread_count ; x++) {
    6ab2:	c7 44 24 28 00 00 00 00 	movl   $0x0,0x28(%rsp)
  long total = 0;
    6aba:	45 31 ff             	xor    %r15d,%r15d
    6abd:	4d 89 d4             	mov    %r10,%r12
    6ac0:	4d 89 c6             	mov    %r8,%r14
  long sents = 0;
    6ac3:	48 c7 44 24 18 00 00 00 00 	movq   $0x0,0x18(%rsp)
  long sends = 0;
    6acc:	48 c7 44 24 20 00 00 00 00 	movq   $0x0,0x20(%rsp)
    6ad5:	bf 0a 00 00 00       	mov    $0xa,%edi
    6ada:	8b 5c 24 28          	mov    0x28(%rsp),%ebx
    6ade:	e8 4d da ff ff       	call   4530 <putchar@plt>
    printf("Total Protected %ld\n", protected_state[me].protected);
    6ae3:	48 8b 84 24 80 00 00 00 	mov    0x80(%rsp),%rax
    6aeb:	83 f3 01             	xor    $0x1,%ebx
    6aee:	48 c1 e8 03          	shr    $0x3,%rax
    6af2:	80 b8 00 80 ff 7f 00 	cmpb   $0x0,0x7fff8000(%rax)
    6af9:	0f 85 fb 0d 00 00    	jne    78fa <main+0x2e6a>
    6aff:	48 8d 35 da ad 00 00 	lea    0xadda(%rip),%rsi        # 118e0 <_IO_stdin_used+0x18e0>
    6b06:	48 8b 84 24 80 00 00 00 	mov    0x80(%rsp),%rax
    6b0e:	bf 01 00 00 00       	mov    $0x1,%edi
    for (int n = 0 ; n < thread_data[me].task_count ; n++) {
    6b13:	4c 8d 6d 08          	lea    0x8(%rbp),%r13
    6b17:	48 8b 10             	mov    (%rax),%rdx
    6b1a:	31 c0                	xor    %eax,%eax
    6b1c:	e8 ff d9 ff ff       	call   4520 <__printf_chk@plt>
    6b21:	4c 89 e8             	mov    %r13,%rax
    6b24:	48 c1 e8 03          	shr    $0x3,%rax
    6b28:	0f b6 80 00 80 ff 7f 	movzbl 0x7fff8000(%rax),%eax
    6b2f:	84 c0                	test   %al,%al
    6b31:	74 08                	je     6b3b <main+0x20ab>
    6b33:	3c 03                	cmp    $0x3,%al
    6b35:	0f 8e 51 0d 00 00    	jle    788c <main+0x2dfc>
    6b3b:	8b 45 08             	mov    0x8(%rbp),%eax
    6b3e:	85 c0                	test   %eax,%eax
    6b40:	0f 8e ea 08 00 00    	jle    7430 <main+0x29a0>
      v += thread_data[me].tasks[n].v;
    6b46:	48 89 ea             	mov    %rbp,%rdx
    6b49:	48 c1 ea 03          	shr    $0x3,%rdx
    6b4d:	80 ba 00 80 ff 7f 00 	cmpb   $0x0,0x7fff8000(%rdx)
    6b54:	0f 85 3f 0d 00 00    	jne    7899 <main+0x2e09>
    6b5a:	48 8b 75 00          	mov    0x0(%rbp),%rsi
    6b5e:	48 63 c8             	movslq %eax,%rcx
    long v = 0;
    6b61:	31 d2                	xor    %edx,%edx
    6b63:	48 c1 e1 09          	shl    $0x9,%rcx
    6b67:	48 8d be 10 01 00 00 	lea    0x110(%rsi),%rdi
    6b6e:	48 01 f9             	add    %rdi,%rcx
    6b71:	0f 1f 80 00 00 00 00 	nopl   0x0(%rax)
      v += thread_data[me].tasks[n].v;
    6b78:	48 89 f8             	mov    %rdi,%rax
    6b7b:	48 c1 e8 03          	shr    $0x3,%rax
    6b7f:	80 b8 00 80 ff 7f 00 	cmpb   $0x0,0x7fff8000(%rax)
    6b86:	0f 85 08 0d 00 00    	jne    7894 <main+0x2e04>
    6b8c:	48 03 17             	add    (%rdi),%rdx
    for (int n = 0 ; n < thread_data[me].task_count ; n++) {
    6b8f:	48 81 c7 00 02 00 00 	add    $0x200,%rdi
    6b96:	48 39 f9             	cmp    %rdi,%rcx
    6b99:	75 dd                	jne    6b78 <main+0x20e8>
    for (int n = 0 ; n < thread_data[other].task_count ; n++) {
    6b9b:	48 63 cb             	movslq %ebx,%rcx
    6b9e:	48 8b 44 24 30       	mov    0x30(%rsp),%rax
    6ba3:	48 f7 d9             	neg    %rcx
    6ba6:	81 e1 c0 00 00 00    	and    $0xc0,%ecx
    6bac:	48 01 c1             	add    %rax,%rcx
    6baf:	48 8d 79 40          	lea    0x40(%rcx),%rdi
    6bb3:	48 89 f8             	mov    %rdi,%rax
    6bb6:	48 c1 e8 03          	shr    $0x3,%rax
    6bba:	0f b6 80 00 80 ff 7f 	movzbl 0x7fff8000(%rax),%eax
    6bc1:	84 c0                	test   %al,%al
    6bc3:	74 08                	je     6bcd <main+0x213d>
    6bc5:	3c 03                	cmp    $0x3,%al
    6bc7:	0f 8e eb 0c 00 00    	jle    78b8 <main+0x2e28>
    6bcd:	8b 41 40             	mov    0x40(%rcx),%eax
    6bd0:	85 c0                	test   %eax,%eax
    6bd2:	7e 57                	jle    6c2b <main+0x219b>
      v += thread_data[other].tasks[n].v;
    6bd4:	48 8d 79 38          	lea    0x38(%rcx),%rdi
    6bd8:	48 89 fe             	mov    %rdi,%rsi
    6bdb:	48 c1 ee 03          	shr    $0x3,%rsi
    6bdf:	80 be 00 80 ff 7f 00 	cmpb   $0x0,0x7fff8000(%rsi)
    6be6:	0f 85 c7 0c 00 00    	jne    78b3 <main+0x2e23>
    6bec:	48 8b 79 38          	mov    0x38(%rcx),%rdi
    6bf0:	48 63 c8             	movslq %eax,%rcx
    6bf3:	48 c1 e1 09          	shl    $0x9,%rcx
    6bf7:	48 81 c7 10 01 00 00 	add    $0x110,%rdi
    6bfe:	48 01 f9             	add    %rdi,%rcx
    6c01:	0f 1f 80 00 00 00 00 	nopl   0x0(%rax)
    6c08:	48 89 f8             	mov    %rdi,%rax
    6c0b:	48 c1 e8 03          	shr    $0x3,%rax
    6c0f:	80 b8 00 80 ff 7f 00 	cmpb   $0x0,0x7fff8000(%rax)
    6c16:	0f 85 92 0c 00 00    	jne    78ae <main+0x2e1e>
    6c1c:	48 03 17             	add    (%rdi),%rdx
    for (int n = 0 ; n < thread_data[other].task_count ; n++) {
    6c1f:	48 81 c7 00 02 00 00 	add    $0x200,%rdi
    6c26:	48 39 f9             	cmp    %rdi,%rcx
    6c29:	75 dd                	jne    6c08 <main+0x2178>
    6c2b:	31 c0                	xor    %eax,%eax
    6c2d:	48 8d 35 ec ac 00 00 	lea    0xacec(%rip),%rsi        # 11920 <_IO_stdin_used+0x1920>
    6c34:	bf 01 00 00 00       	mov    $0x1,%edi
    6c39:	e8 e2 d8 ff ff       	call   4520 <__printf_chk@plt>
    printf("Total Protected per second %ld\n", protected_state[me].protected / DURATION);
    6c3e:	48 8b 84 24 80 00 00 00 	mov    0x80(%rsp),%rax
    6c46:	48 c1 e8 03          	shr    $0x3,%rax
    6c4a:	80 b8 00 80 ff 7f 00 	cmpb   $0x0,0x7fff8000(%rax)
    6c51:	0f 85 4a 0c 00 00    	jne    78a1 <main+0x2e11>
    6c57:	48 8b 84 24 80 00 00 00 	mov    0x80(%rsp),%rax
    6c5f:	48 8d 35 fa ac 00 00 	lea    0xacfa(%rip),%rsi        # 11960 <_IO_stdin_used+0x1960>
    6c66:	bf 01 00 00 00       	mov    $0x1,%edi
    6c6b:	48 8b 08             	mov    (%rax),%rcx
    6c6e:	48 b8 67 66 66 66 66 66 66 66 	movabs $0x6666666666666667,%rax
    6c78:	48 f7 e9             	imul   %rcx
    6c7b:	48 c1 f9 3f          	sar    $0x3f,%rcx
    6c7f:	31 c0                	xor    %eax,%eax
    6c81:	48 d1 fa             	sar    %rdx
    6c84:	48 29 ca             	sub    %rcx,%rdx
    6c87:	e8 94 d8 ff ff       	call   4520 <__printf_chk@plt>
    6c8c:	bf 0a 00 00 00       	mov    $0xa,%edi
    6c91:	e8 9a d8 ff ff       	call   4530 <putchar@plt>
    for (int n = 0 ; n < thread_data[x].task_count ; n++) {
    6c96:	4c 89 e8             	mov    %r13,%rax
    6c99:	48 c1 e8 03          	shr    $0x3,%rax
    6c9d:	0f b6 80 00 80 ff 7f 	movzbl 0x7fff8000(%rax),%eax
    6ca4:	84 c0                	test   %al,%al
    6ca6:	74 08                	je     6cb0 <main+0x2220>
    6ca8:	3c 03                	cmp    $0x3,%al
    6caa:	0f 8e 42 0c 00 00    	jle    78f2 <main+0x2e62>
    6cb0:	8b 45 08             	mov    0x8(%rbp),%eax
    6cb3:	85 c0                	test   %eax,%eax
    6cb5:	0f 8e 2a 01 00 00    	jle    6de5 <main+0x2355>
      total += thread_data[x].tasks[n].n;
    6cbb:	48 89 ea             	mov    %rbp,%rdx
    6cbe:	48 c1 ea 03          	shr    $0x3,%rdx
    6cc2:	80 ba 00 80 ff 7f 00 	cmpb   $0x0,0x7fff8000(%rdx)
    6cc9:	0f 85 1b 0c 00 00    	jne    78ea <main+0x2e5a>
    6ccf:	48 8b 5d 00          	mov    0x0(%rbp),%rbx
    6cd3:	48 63 c8             	movslq %eax,%rcx
    6cd6:	4c 8b 5c 24 18       	mov    0x18(%rsp),%r11
    6cdb:	48 c1 e1 09          	shl    $0x9,%rcx
    6cdf:	4c 8b 54 24 20       	mov    0x20(%rsp),%r10
    6ce4:	48 8d bb 08 01 00 00 	lea    0x108(%rbx),%rdi
    6ceb:	48 01 f9             	add    %rdi,%rcx
    6cee:	66 90                	xchg   %ax,%ax
    6cf0:	48 89 f8             	mov    %rdi,%rax
    6cf3:	48 c1 e8 03          	shr    $0x3,%rax
    6cf7:	80 b8 00 80 ff 7f 00 	cmpb   $0x0,0x7fff8000(%rax)
    6cfe:	0f 85 e1 0b 00 00    	jne    78e5 <main+0x2e55>
      ingests += thread_data[x].tasks[n].ingest_count;
    6d04:	48 8d 47 60          	lea    0x60(%rdi),%rax
      total += thread_data[x].tasks[n].n;
    6d08:	4c 03 3f             	add    (%rdi),%r15
      ingests += thread_data[x].tasks[n].ingest_count;
    6d0b:	48 89 c2             	mov    %rax,%rdx
    6d0e:	48 c1 ea 03          	shr    $0x3,%rdx
    6d12:	80 ba 00 80 ff 7f 00 	cmpb   $0x0,0x7fff8000(%rdx)
    6d19:	0f 85 be 0b 00 00    	jne    78dd <main+0x2e4d>
      sends += thread_data[x].tasks[n].sends;
    6d1f:	48 8d 47 70          	lea    0x70(%rdi),%rax
      ingests += thread_data[x].tasks[n].ingest_count;
    6d23:	4c 03 77 60          	add    0x60(%rdi),%r14
      sends += thread_data[x].tasks[n].sends;
    6d27:	48 89 c2             	mov    %rax,%rdx
    6d2a:	48 c1 ea 03          	shr    $0x3,%rdx
    6d2e:	80 ba 00 80 ff 7f 00 	cmpb   $0x0,0x7fff8000(%rdx)
    6d35:	0f 85 9a 0b 00 00    	jne    78d5 <main+0x2e45>
        sents += ((struct Mailbox)thread_data[x].tasks[n].mailboxes[k]).sent;
    6d3b:	48 8d 47 68          	lea    0x68(%rdi),%rax
      sends += thread_data[x].tasks[n].sends;
    6d3f:	4c 03 57 70          	add    0x70(%rdi),%r10
        sents += ((struct Mailbox)thread_data[x].tasks[n].mailboxes[k]).sent;
    6d43:	48 89 c2             	mov    %rax,%rdx
    6d46:	48 c1 ea 03          	shr    $0x3,%rdx
    6d4a:	80 ba 00 80 ff 7f 00 	cmpb   $0x0,0x7fff8000(%rdx)
    6d51:	0f 85 76 0b 00 00    	jne    78cd <main+0x2e3d>
    6d57:	48 8b 47 68          	mov    0x68(%rdi),%rax
    6d5b:	48 8d 50 10          	lea    0x10(%rax),%rdx
    6d5f:	48 89 d6             	mov    %rdx,%rsi
    6d62:	48 c1 ee 03          	shr    $0x3,%rsi
    6d66:	80 be 00 80 ff 7f 00 	cmpb   $0x0,0x7fff8000(%rsi)
    6d6d:	0f 85 52 0b 00 00    	jne    78c5 <main+0x2e35>
        received += ((struct Mailbox)thread_data[x].tasks[n].mailboxes[k]).received;
    6d73:	48 8d 50 18          	lea    0x18(%rax),%rdx
        sents += ((struct Mailbox)thread_data[x].tasks[n].mailboxes[k]).sent;
    6d77:	4c 03 58 10          	add    0x10(%rax),%r11
        received += ((struct Mailbox)thread_data[x].tasks[n].mailboxes[k]).received;
    6d7b:	48 89 d6             	mov    %rdx,%rsi
    6d7e:	48 c1 ee 03          	shr    $0x3,%rsi
    6d82:	80 be 00 80 ff 7f 00 	cmpb   $0x0,0x7fff8000(%rsi)
    6d89:	0f 85 2e 0b 00 00    	jne    78bd <main+0x2e2d>
        sents += ((struct Mailbox)thread_data[x].tasks[n].mailboxes[k]).sent;
    6d8f:	48 8d 50 38          	lea    0x38(%rax),%rdx
        received += ((struct Mailbox)thread_data[x].tasks[n].mailboxes[k]).received;
    6d93:	4c 03 60 18          	add    0x18(%rax),%r12
        sents += ((struct Mailbox)thread_data[x].tasks[n].mailboxes[k]).sent;
    6d97:	48 89 d6             	mov    %rdx,%rsi
    6d9a:	48 c1 ee 03          	shr    $0x3,%rsi
    6d9e:	80 be 00 80 ff 7f 00 	cmpb   $0x0,0x7fff8000(%rsi)
    6da5:	0f 85 cf 0a 00 00    	jne    787a <main+0x2dea>
        received += ((struct Mailbox)thread_data[x].tasks[n].mailboxes[k]).received;
    6dab:	48 8d 50 40          	lea    0x40(%rax),%rdx
        sents += ((struct Mailbox)thread_data[x].tasks[n].mailboxes[k]).sent;
    6daf:	4c 03 58 38          	add    0x38(%rax),%r11
        received += ((struct Mailbox)thread_data[x].tasks[n].mailboxes[k]).received;
    6db3:	48 89 d6             	mov    %rdx,%rsi
    6db6:	48 c1 ee 03          	shr    $0x3,%rsi
    6dba:	80 be 00 80 ff 7f 00 	cmpb   $0x0,0x7fff8000(%rsi)
    6dc1:	0f 85 ab 0a 00 00    	jne    7872 <main+0x2de2>
    for (int n = 0 ; n < thread_data[x].task_count ; n++) {
    6dc7:	48 81 c7 00 02 00 00 	add    $0x200,%rdi
        received += ((struct Mailbox)thread_data[x].tasks[n].mailboxes[k]).received;
    6dce:	4c 03 60 40          	add    0x40(%rax),%r12
    for (int n = 0 ; n < thread_data[x].task_count ; n++) {
    6dd2:	48 39 f9             	cmp    %rdi,%rcx
    6dd5:	0f 85 15 ff ff ff    	jne    6cf0 <main+0x2260>
    6ddb:	4c 89 5c 24 18       	mov    %r11,0x18(%rsp)
    6de0:	4c 89 54 24 20       	mov    %r10,0x20(%rsp)
    for (int n = 0 ; n < thread_data[x].timestamp_limit ; n++) {
    6de5:	48 8d 7d 50          	lea    0x50(%rbp),%rdi
    6de9:	48 89 f8             	mov    %rdi,%rax
    6dec:	48 c1 e8 03          	shr    $0x3,%rax
    6df0:	80 b8 00 80 ff 7f 00 	cmpb   $0x0,0x7fff8000(%rax)
    6df7:	0f 85 70 0a 00 00    	jne    786d <main+0x2ddd>
    for (int n = 0 ; n < thread_data[x].task_timestamp_limit ; n++) {
    6dfd:	48 8d 4d 68          	lea    0x68(%rbp),%rcx
    6e01:	48 89 cb             	mov    %rcx,%rbx
    6e04:	48 c1 eb 03          	shr    $0x3,%rbx
    6e08:	80 bb 00 80 ff 7f 00 	cmpb   $0x0,0x7fff8000(%rbx)
    6e0f:	0f 85 50 0a 00 00    	jne    7865 <main+0x2dd5>
    6e15:	48 8d 75 58          	lea    0x58(%rbp),%rsi
    6e19:	45 31 ed             	xor    %r13d,%r13d
      struct timespec start = thread_data[x].task_snapshot[n].task_start;
    6e1c:	48 89 f0             	mov    %rsi,%rax
    6e1f:	48 c1 e8 03          	shr    $0x3,%rax
    for (int n = 0 ; n < thread_data[x].task_timestamp_limit ; n++) {
    6e23:	48 83 7d 68 00       	cmpq   $0x0,0x68(%rbp)
    6e28:	0f 8e 15 01 00 00    	jle    6f43 <main+0x24b3>
    6e2e:	48 89 4c 24 08       	mov    %rcx,0x8(%rsp)
    6e33:	48 89 74 24 10       	mov    %rsi,0x10(%rsp)
    6e38:	4c 89 24 24          	mov    %r12,(%rsp)
    6e3c:	49 89 c4             	mov    %rax,%r12
    6e3f:	90                   	nop
      struct timespec start = thread_data[x].task_snapshot[n].task_start;
    6e40:	41 80 bc 24 00 80 ff 7f 00 	cmpb   $0x0,0x7fff8000(%r12)
    6e49:	0f 85 0c 0a 00 00    	jne    785b <main+0x2dcb>
    6e4f:	48 8b 55 58          	mov    0x58(%rbp),%rdx
    6e53:	4b 8d 44 ad 00       	lea    0x0(%r13,%r13,4),%rax
    6e58:	48 8d 3c c2          	lea    (%rdx,%rax,8),%rdi
    6e5c:	48 89 f8             	mov    %rdi,%rax
    6e5f:	48 c1 e8 03          	shr    $0x3,%rax
    6e63:	80 b8 00 80 ff 7f 00 	cmpb   $0x0,0x7fff8000(%rax)
    6e6a:	0f 85 e6 09 00 00    	jne    7856 <main+0x2dc6>
    6e70:	48 8d 47 08          	lea    0x8(%rdi),%rax
    6e74:	48 8b 0f             	mov    (%rdi),%rcx
    6e77:	48 89 c2             	mov    %rax,%rdx
    6e7a:	48 c1 ea 03          	shr    $0x3,%rdx
    6e7e:	80 ba 00 80 ff 7f 00 	cmpb   $0x0,0x7fff8000(%rdx)
    6e85:	0f 85 c3 09 00 00    	jne    784e <main+0x2dbe>
      struct timespec end = thread_data[x].task_snapshot[n].task_end;
    6e8b:	48 8d 47 10          	lea    0x10(%rdi),%rax
      struct timespec start = thread_data[x].task_snapshot[n].task_start;
    6e8f:	48 8b 57 08          	mov    0x8(%rdi),%rdx
      struct timespec end = thread_data[x].task_snapshot[n].task_end;
    6e93:	48 89 c6             	mov    %rax,%rsi
    6e96:	48 c1 ee 03          	shr    $0x3,%rsi
    6e9a:	80 be 00 80 ff 7f 00 	cmpb   $0x0,0x7fff8000(%rsi)
    6ea1:	0f 85 9f 09 00 00    	jne    7846 <main+0x2db6>
    6ea7:	48 8d 47 18          	lea    0x18(%rdi),%rax
    6eab:	4c 8b 47 10          	mov    0x10(%rdi),%r8
    6eaf:	48 89 c6             	mov    %rax,%rsi
    6eb2:	48 c1 ee 03          	shr    $0x3,%rsi
    6eb6:	80 be 00 80 ff 7f 00 	cmpb   $0x0,0x7fff8000(%rsi)
    6ebd:	0f 85 7b 09 00 00    	jne    783e <main+0x2dae>
      printf("%d tasks (%d) synchronized in %ld seconds %ld milliseconds %ld nanoseconds\n", 2, thread_data[x].task_snapshot[n].task, seconds, seconds2 / 1000000, seconds2);
    6ec3:	48 b8 db 34 b6 d7 82 de 1b 43 	movabs $0x431bde82d7b634db,%rax
      const uint64_t seconds = (end.tv_sec) - (start.tv_sec);
    6ecd:	49 29 c8             	sub    %rcx,%r8
      const uint64_t seconds2 = (end.tv_nsec) - (start.tv_nsec);
    6ed0:	48 8b 4f 18          	mov    0x18(%rdi),%rcx
    6ed4:	48 29 d1             	sub    %rdx,%rcx
      printf("%d tasks (%d) synchronized in %ld seconds %ld milliseconds %ld nanoseconds\n", 2, thread_data[x].task_snapshot[n].task, seconds, seconds2 / 1000000, seconds2);
    6ed7:	48 f7 e1             	mul    %rcx
    6eda:	48 c1 ea 12          	shr    $0x12,%rdx
    6ede:	49 89 d1             	mov    %rdx,%r9
    6ee1:	48 8d 57 20          	lea    0x20(%rdi),%rdx
    6ee5:	48 89 d0             	mov    %rdx,%rax
    6ee8:	48 c1 e8 03          	shr    $0x3,%rax
    6eec:	0f b6 80 00 80 ff 7f 	movzbl 0x7fff8000(%rax),%eax
    6ef3:	84 c0                	test   %al,%al
    6ef5:	74 08                	je     6eff <main+0x246f>
    6ef7:	3c 03                	cmp    $0x3,%al
    6ef9:	0f 8e b0 07 00 00    	jle    76af <main+0x2c1f>
    6eff:	48 83 ec 08          	sub    $0x8,%rsp
    6f03:	8b 47 20             	mov    0x20(%rdi),%eax
    6f06:	ba 02 00 00 00       	mov    $0x2,%edx
    6f0b:	bf 01 00 00 00       	mov    $0x1,%edi
    6f10:	51                   	push   %rcx
    6f11:	48 8d 35 88 aa 00 00 	lea    0xaa88(%rip),%rsi        # 119a0 <_IO_stdin_used+0x19a0>
    6f18:	89 c1                	mov    %eax,%ecx
    6f1a:	31 c0                	xor    %eax,%eax
    6f1c:	e8 ff d5 ff ff       	call   4520 <__printf_chk@plt>
    for (int n = 0 ; n < thread_data[x].task_timestamp_limit ; n++) {
    6f21:	80 bb 00 80 ff 7f 00 	cmpb   $0x0,0x7fff8000(%rbx)
    6f28:	5f                   	pop    %rdi
    6f29:	41 58                	pop    %r8
    6f2b:	0f 85 74 07 00 00    	jne    76a5 <main+0x2c15>
    6f31:	49 83 c5 01          	add    $0x1,%r13
    6f35:	4c 39 6d 68          	cmp    %r13,0x68(%rbp)
    6f39:	0f 8f 01 ff ff ff    	jg     6e40 <main+0x23b0>
    6f3f:	4c 8b 24 24          	mov    (%rsp),%r12
    for (int b = 0 ; b < thread_data[x].buffers_count ; b++) {
    6f43:	48 8d bd 84 00 00 00 	lea    0x84(%rbp),%rdi
    6f4a:	48 89 f8             	mov    %rdi,%rax
    6f4d:	48 c1 e8 03          	shr    $0x3,%rax
    6f51:	0f b6 90 00 80 ff 7f 	movzbl 0x7fff8000(%rax),%edx
    6f58:	48 89 f8             	mov    %rdi,%rax
    6f5b:	83 e0 07             	and    $0x7,%eax
    6f5e:	83 c0 03             	add    $0x3,%eax
    6f61:	38 d0                	cmp    %dl,%al
    6f63:	7c 08                	jl     6f6d <main+0x24dd>
    6f65:	84 d2                	test   %dl,%dl
    6f67:	0f 85 33 07 00 00    	jne    76a0 <main+0x2c10>
    6f6d:	8b 85 84 00 00 00    	mov    0x84(%rbp),%eax
    6f73:	85 c0                	test   %eax,%eax
    6f75:	0f 8e ae 02 00 00    	jle    7229 <main+0x2799>
      for (int n = 0 ; n < thread_data[x].buffers[b]->count ; n++) {
    6f7b:	48 8d 5d 18          	lea    0x18(%rbp),%rbx
    6f7f:	48 89 5c 24 10       	mov    %rbx,0x10(%rsp)
    6f84:	48 c1 eb 03          	shr    $0x3,%rbx
    6f88:	80 bb 00 80 ff 7f 00 	cmpb   $0x0,0x7fff8000(%rbx)
    6f8f:	0f 85 01 07 00 00    	jne    7696 <main+0x2c06>
    6f95:	4c 89 7c 24 40       	mov    %r15,0x40(%rsp)
    6f9a:	31 db                	xor    %ebx,%ebx
    6f9c:	4c 8b 4d 18          	mov    0x18(%rbp),%r9
    6fa0:	4c 89 74 24 48       	mov    %r14,0x48(%rsp)
    6fa5:	4c 89 64 24 38       	mov    %r12,0x38(%rsp)
    6faa:	49 89 dc             	mov    %rbx,%r12
    6fad:	0f 1f 00             	nopl   (%rax)
    6fb0:	4e 8d 3c e5 00 00 00 00 	lea    0x0(,%r12,8),%r15
    6fb8:	44 89 e3             	mov    %r12d,%ebx
    6fbb:	4b 8d 3c 39          	lea    (%r9,%r15,1),%rdi
    6fbf:	48 89 fa             	mov    %rdi,%rdx
    6fc2:	48 c1 ea 03          	shr    $0x3,%rdx
    6fc6:	80 ba 00 80 ff 7f 00 	cmpb   $0x0,0x7fff8000(%rdx)
    6fcd:	0f 85 be 06 00 00    	jne    7691 <main+0x2c01>
    6fd3:	48 8b 3f             	mov    (%rdi),%rdi
    6fd6:	48 89 fa             	mov    %rdi,%rdx
    6fd9:	48 c1 ea 03          	shr    $0x3,%rdx
    6fdd:	0f b6 92 00 80 ff 7f 	movzbl 0x7fff8000(%rdx),%edx
    6fe4:	84 d2                	test   %dl,%dl
    6fe6:	74 09                	je     6ff1 <main+0x2561>
    6fe8:	80 fa 03             	cmp    $0x3,%dl
    6feb:	0f 8e 9b 06 00 00    	jle    768c <main+0x2bfc>
    6ff1:	8b 0f                	mov    (%rdi),%ecx
    6ff3:	85 c9                	test   %ecx,%ecx
    6ff5:	0f 8e 12 02 00 00    	jle    720d <main+0x277d>
	for (int k = 0 ; k < thread_data[x].buffers[b]->buffer[n].ingest_snapshot ; k++) {
    6ffb:	48 8d 47 08          	lea    0x8(%rdi),%rax
    6fff:	48 89 c2             	mov    %rax,%rdx
    7002:	48 c1 ea 03          	shr    $0x3,%rdx
    7006:	80 ba 00 80 ff 7f 00 	cmpb   $0x0,0x7fff8000(%rdx)
    700d:	0f 85 71 06 00 00    	jne    7684 <main+0x2bf4>
    7013:	4c 8b 6c 24 10       	mov    0x10(%rsp),%r13
    7018:	4c 8b 47 08          	mov    0x8(%rdi),%r8
    701c:	4c 89 64 24 08       	mov    %r12,0x8(%rsp)
    7021:	31 f6                	xor    %esi,%esi
    7023:	49 c1 ed 03          	shr    $0x3,%r13
    7027:	66 0f 1f 84 00 00 00 00 00 	nopw   0x0(%rax,%rax,1)
    7030:	49 89 f4             	mov    %rsi,%r12
    7033:	49 c1 e4 08          	shl    $0x8,%r12
    7037:	4b 8d 04 20          	lea    (%r8,%r12,1),%rax
    703b:	48 8d b8 94 00 00 00 	lea    0x94(%rax),%rdi
    7042:	48 89 fa             	mov    %rdi,%rdx
    7045:	48 c1 ea 03          	shr    $0x3,%rdx
    7049:	44 0f b6 92 00 80 ff 7f 	movzbl 0x7fff8000(%rdx),%r10d
    7051:	48 89 fa             	mov    %rdi,%rdx
    7054:	83 e2 07             	and    $0x7,%edx
    7057:	83 c2 03             	add    $0x3,%edx
    705a:	44 38 d2             	cmp    %r10b,%dl
    705d:	7c 09                	jl     7068 <main+0x25d8>
    705f:	45 84 d2             	test   %r10b,%r10b
    7062:	0f 85 cf 03 00 00    	jne    7437 <main+0x29a7>
    7068:	8b 90 94 00 00 00    	mov    0x94(%rax),%edx
    706e:	45 31 f6             	xor    %r14d,%r14d
    7071:	85 d2                	test   %edx,%edx
    7073:	0f 8e 7d 01 00 00    	jle    71f6 <main+0x2766>
    7079:	48 89 34 24          	mov    %rsi,(%rsp)
    707d:	0f 1f 00             	nopl   (%rax)
	  struct timespec end = thread_data[x].buffers[b]->buffer[n].snapshots[k].end;
    7080:	48 8d b8 88 00 00 00 	lea    0x88(%rax),%rdi
    7087:	48 89 fa             	mov    %rdi,%rdx
    708a:	48 c1 ea 03          	shr    $0x3,%rdx
    708e:	80 ba 00 80 ff 7f 00 	cmpb   $0x0,0x7fff8000(%rdx)
    7095:	0f 85 90 03 00 00    	jne    742b <main+0x299b>
    709b:	4c 89 f7             	mov    %r14,%rdi
    709e:	48 c1 e7 05          	shl    $0x5,%rdi
    70a2:	48 03 b8 88 00 00 00 	add    0x88(%rax),%rdi
    70a9:	48 8d 47 10          	lea    0x10(%rdi),%rax
    70ad:	48 89 c2             	mov    %rax,%rdx
    70b0:	48 c1 ea 03          	shr    $0x3,%rdx
    70b4:	80 ba 00 80 ff 7f 00 	cmpb   $0x0,0x7fff8000(%rdx)
    70bb:	0f 85 62 03 00 00    	jne    7423 <main+0x2993>
    70c1:	48 8d 47 18          	lea    0x18(%rdi),%rax
    70c5:	4c 8b 47 10          	mov    0x10(%rdi),%r8
    70c9:	48 89 c2             	mov    %rax,%rdx
    70cc:	48 c1 ea 03          	shr    $0x3,%rdx
    70d0:	80 ba 00 80 ff 7f 00 	cmpb   $0x0,0x7fff8000(%rdx)
    70d7:	0f 85 3e 03 00 00    	jne    741b <main+0x298b>
	  struct timespec start = thread_data[x].buffers[b]->buffer[n].snapshots[k].start;
    70dd:	48 89 f8             	mov    %rdi,%rax
	  struct timespec end = thread_data[x].buffers[b]->buffer[n].snapshots[k].end;
    70e0:	48 8b 4f 18          	mov    0x18(%rdi),%rcx
	  struct timespec start = thread_data[x].buffers[b]->buffer[n].snapshots[k].start;
    70e4:	48 c1 e8 03          	shr    $0x3,%rax
    70e8:	80 b8 00 80 ff 7f 00 	cmpb   $0x0,0x7fff8000(%rax)
    70ef:	0f 85 21 03 00 00    	jne    7416 <main+0x2986>
    70f5:	48 8d 47 08          	lea    0x8(%rdi),%rax
    70f9:	48 8b 37             	mov    (%rdi),%rsi
    70fc:	48 89 c2             	mov    %rax,%rdx
    70ff:	48 c1 ea 03          	shr    $0x3,%rdx
    7103:	80 ba 00 80 ff 7f 00 	cmpb   $0x0,0x7fff8000(%rdx)
    710a:	0f 85 fe 02 00 00    	jne    740e <main+0x297e>
	  const uint64_t seconds2 = (end.tv_nsec) - (start.tv_nsec);
    7110:	48 2b 4f 08          	sub    0x8(%rdi),%rcx
    7114:	48 83 ec 08          	sub    $0x8,%rsp
    7118:	49 29 f0             	sub    %rsi,%r8
    711b:	bf 01 00 00 00       	mov    $0x1,%edi
	  printf("%d external ingest latency (%d) in %ld seconds %ld milliseconds %ld nanoseconds\n", 2, b, seconds, seconds2 / 1000000, seconds2);
    7120:	48 b8 db 34 b6 d7 82 de 1b 43 	movabs $0x431bde82d7b634db,%rax
    712a:	51                   	push   %rcx
    712b:	48 8d 35 ee a8 00 00 	lea    0xa8ee(%rip),%rsi        # 11a20 <_IO_stdin_used+0x1a20>
    7132:	48 f7 e1             	mul    %rcx
    7135:	89 d9                	mov    %ebx,%ecx
    7137:	31 c0                	xor    %eax,%eax
    7139:	48 c1 ea 12          	shr    $0x12,%rdx
    713d:	49 89 d1             	mov    %rdx,%r9
    7140:	ba 02 00 00 00       	mov    $0x2,%edx
    7145:	e8 d6 d3 ff ff       	call   4520 <__printf_chk@plt>
	for (int k = 0 ; k < thread_data[x].buffers[b]->buffer[n].ingest_snapshot ; k++) {
    714a:	41 80 bd 00 80 ff 7f 00 	cmpb   $0x0,0x7fff8000(%r13)
    7152:	59                   	pop    %rcx
    7153:	5e                   	pop    %rsi
    7154:	0f 85 aa 02 00 00    	jne    7404 <main+0x2974>
    715a:	4c 8b 4d 18          	mov    0x18(%rbp),%r9
    715e:	4b 8d 3c 39          	lea    (%r9,%r15,1),%rdi
    7162:	48 89 f8             	mov    %rdi,%rax
    7165:	48 c1 e8 03          	shr    $0x3,%rax
    7169:	80 b8 00 80 ff 7f 00 	cmpb   $0x0,0x7fff8000(%rax)
    7170:	0f 85 89 02 00 00    	jne    73ff <main+0x296f>
    7176:	48 8b 3f             	mov    (%rdi),%rdi
    7179:	48 8d 47 08          	lea    0x8(%rdi),%rax
    717d:	48 89 c2             	mov    %rax,%rdx
    7180:	48 c1 ea 03          	shr    $0x3,%rdx
    7184:	80 ba 00 80 ff 7f 00 	cmpb   $0x0,0x7fff8000(%rdx)
    718b:	0f 85 66 02 00 00    	jne    73f7 <main+0x2967>
    7191:	4c 8b 47 08          	mov    0x8(%rdi),%r8
    7195:	4b 8d 04 20          	lea    (%r8,%r12,1),%rax
    7199:	48 8d 88 94 00 00 00 	lea    0x94(%rax),%rcx
    71a0:	48 89 ca             	mov    %rcx,%rdx
    71a3:	48 c1 ea 03          	shr    $0x3,%rdx
    71a7:	0f b6 b2 00 80 ff 7f 	movzbl 0x7fff8000(%rdx),%esi
    71ae:	48 89 ca             	mov    %rcx,%rdx
    71b1:	83 e2 07             	and    $0x7,%edx
    71b4:	83 c2 03             	add    $0x3,%edx
    71b7:	40 38 f2             	cmp    %sil,%dl
    71ba:	7c 09                	jl     71c5 <main+0x2735>
    71bc:	40 84 f6             	test   %sil,%sil
    71bf:	0f 85 2a 02 00 00    	jne    73ef <main+0x295f>
    71c5:	49 83 c6 01          	add    $0x1,%r14
    71c9:	44 39 b0 94 00 00 00 	cmp    %r14d,0x94(%rax)
    71d0:	0f 8f aa fe ff ff    	jg     7080 <main+0x25f0>
      for (int n = 0 ; n < thread_data[x].buffers[b]->count ; n++) {
    71d6:	48 89 f8             	mov    %rdi,%rax
    71d9:	48 8b 34 24          	mov    (%rsp),%rsi
    71dd:	48 c1 e8 03          	shr    $0x3,%rax
    71e1:	0f b6 80 00 80 ff 7f 	movzbl 0x7fff8000(%rax),%eax
    71e8:	84 c0                	test   %al,%al
    71ea:	74 08                	je     71f4 <main+0x2764>
    71ec:	3c 03                	cmp    $0x3,%al
    71ee:	0f 8e e2 02 00 00    	jle    74d6 <main+0x2a46>
    71f4:	8b 0f                	mov    (%rdi),%ecx
    71f6:	48 83 c6 01          	add    $0x1,%rsi
    71fa:	39 f1                	cmp    %esi,%ecx
    71fc:	0f 8f 2e fe ff ff    	jg     7030 <main+0x25a0>
    for (int b = 0 ; b < thread_data[x].buffers_count ; b++) {
    7202:	4c 8b 64 24 08       	mov    0x8(%rsp),%r12
    7207:	8b 85 84 00 00 00    	mov    0x84(%rbp),%eax
    720d:	49 83 c4 01          	add    $0x1,%r12
    7211:	44 39 e0             	cmp    %r12d,%eax
    7214:	0f 8f 96 fd ff ff    	jg     6fb0 <main+0x2520>
    721a:	4c 8b 64 24 38       	mov    0x38(%rsp),%r12
    721f:	4c 8b 7c 24 40       	mov    0x40(%rsp),%r15
    7224:	4c 8b 74 24 48       	mov    0x48(%rsp),%r14
  for (int x = 0 ; x < thread_count ; x++) {
    7229:	8b 44 24 28          	mov    0x28(%rsp),%eax
    722d:	48 81 c5 c0 00 00 00 	add    $0xc0,%rbp
    7234:	48 83 84 24 80 00 00 00 18 	addq   $0x18,0x80(%rsp)
    723d:	85 c0                	test   %eax,%eax
    723f:	75 0d                	jne    724e <main+0x27be>
    7241:	c7 44 24 28 01 00 00 00 	movl   $0x1,0x28(%rsp)
    7249:	e9 87 f8 ff ff       	jmp    6ad5 <main+0x2045>
    724e:	4c 89 fa             	mov    %r15,%rdx
    7251:	48 8d 35 48 a8 00 00 	lea    0xa848(%rip),%rsi        # 11aa0 <_IO_stdin_used+0x1aa0>
    7258:	31 c0                	xor    %eax,%eax
    725a:	4c 89 34 24          	mov    %r14,(%rsp)
    725e:	bf 01 00 00 00       	mov    $0x1,%edi
    7263:	4c 89 64 24 08       	mov    %r12,0x8(%rsp)
    7268:	e8 b3 d2 ff ff       	call   4520 <__printf_chk@plt>
    726d:	bf 0a 00 00 00       	mov    $0xa,%edi
    7272:	e8 b9 d2 ff ff       	call   4530 <putchar@plt>
  printf("Total money %ld (correct if 0 or 500)\n", protected_state->balance);
    7277:	4c 8b 04 24          	mov    (%rsp),%r8
    727b:	4c 8b 54 24 08       	mov    0x8(%rsp),%r10
    7280:	48 8b 84 24 98 00 00 00 	mov    0x98(%rsp),%rax
    7288:	48 8d 78 08          	lea    0x8(%rax),%rdi
    728c:	48 89 f8             	mov    %rdi,%rax
    728f:	48 c1 e8 03          	shr    $0x3,%rax
    7293:	80 b8 00 80 ff 7f 00 	cmpb   $0x0,0x7fff8000(%rax)
    729a:	0f 85 7f 03 00 00    	jne    761f <main+0x2b8f>
    72a0:	48 8d 35 39 a8 00 00 	lea    0xa839(%rip),%rsi        # 11ae0 <_IO_stdin_used+0x1ae0>
    72a7:	48 8b 84 24 98 00 00 00 	mov    0x98(%rsp),%rax
    72af:	bf 01 00 00 00       	mov    $0x1,%edi
    72b4:	4c 89 14 24          	mov    %r10,(%rsp)
  printf("Total external thread ingests per second %ld\n", ingests / DURATION);
    72b8:	48 bb 67 66 66 66 66 66 66 66 	movabs $0x6666666666666667,%rbx
    72c2:	4c 89 44 24 08       	mov    %r8,0x8(%rsp)
    72c7:	48 8b 50 08          	mov    0x8(%rax),%rdx
    72cb:	31 c0                	xor    %eax,%eax
    72cd:	e8 4e d2 ff ff       	call   4520 <__printf_chk@plt>
    72d2:	4c 8b 44 24 08       	mov    0x8(%rsp),%r8
    72d7:	bf 01 00 00 00       	mov    $0x1,%edi
    72dc:	48 8d 35 5d a8 00 00 	lea    0xa85d(%rip),%rsi        # 11b40 <_IO_stdin_used+0x1b40>
    72e3:	4c 89 c0             	mov    %r8,%rax
    72e6:	49 c1 f8 3f          	sar    $0x3f,%r8
    72ea:	48 f7 eb             	imul   %rbx
    72ed:	31 c0                	xor    %eax,%eax
    72ef:	48 d1 fa             	sar    %rdx
    72f2:	4c 29 c2             	sub    %r8,%rdx
    72f5:	e8 26 d2 ff ff       	call   4520 <__printf_chk@plt>
  printf("Total intra thread sends per second %ld\n", sends / DURATION);
    72fa:	48 8b 44 24 20       	mov    0x20(%rsp),%rax
    72ff:	bf 01 00 00 00       	mov    $0x1,%edi
    7304:	48 8d 35 95 a8 00 00 	lea    0xa895(%rip),%rsi        # 11ba0 <_IO_stdin_used+0x1ba0>
    730b:	48 f7 eb             	imul   %rbx
    730e:	48 8b 44 24 20       	mov    0x20(%rsp),%rax
    7313:	48 c1 f8 3f          	sar    $0x3f,%rax
    7317:	48 d1 fa             	sar    %rdx
    731a:	48 29 c2             	sub    %rax,%rdx
    731d:	31 c0                	xor    %eax,%eax
    731f:	e8 fc d1 ff ff       	call   4520 <__printf_chk@plt>
  printf("Total Requests per second %ld\n", total / DURATION);
    7324:	4c 89 f8             	mov    %r15,%rax
    7327:	49 c1 ff 3f          	sar    $0x3f,%r15
    732b:	48 8d 35 ce a8 00 00 	lea    0xa8ce(%rip),%rsi        # 11c00 <_IO_stdin_used+0x1c00>
    7332:	48 f7 eb             	imul   %rbx
    7335:	bf 01 00 00 00       	mov    $0x1,%edi
    733a:	31 c0                	xor    %eax,%eax
    733c:	48 d1 fa             	sar    %rdx
    733f:	4c 29 fa             	sub    %r15,%rdx
    7342:	e8 d9 d1 ff ff       	call   4520 <__printf_chk@plt>
  printf("Total sents %ld\n", sents / DURATION);
    7347:	48 8b 44 24 18       	mov    0x18(%rsp),%rax
    734c:	bf 01 00 00 00       	mov    $0x1,%edi
    7351:	48 8d 35 e8 a8 00 00 	lea    0xa8e8(%rip),%rsi        # 11c40 <_IO_stdin_used+0x1c40>
    7358:	48 f7 eb             	imul   %rbx
    735b:	48 8b 44 24 18       	mov    0x18(%rsp),%rax
    7360:	48 c1 f8 3f          	sar    $0x3f,%rax
    7364:	48 d1 fa             	sar    %rdx
    7367:	48 29 c2             	sub    %rax,%rdx
    736a:	31 c0                	xor    %eax,%eax
    736c:	e8 af d1 ff ff       	call   4520 <__printf_chk@plt>
  printf("Total receives %ld\n", received / DURATION);
    7371:	4c 8b 14 24          	mov    (%rsp),%r10
    7375:	bf 01 00 00 00       	mov    $0x1,%edi
    737a:	48 8d 35 ff a8 00 00 	lea    0xa8ff(%rip),%rsi        # 11c80 <_IO_stdin_used+0x1c80>
    7381:	4c 89 d0             	mov    %r10,%rax
    7384:	48 f7 eb             	imul   %rbx
    7387:	4c 89 d0             	mov    %r10,%rax
    738a:	48 c1 f8 3f          	sar    $0x3f,%rax
    738e:	48 d1 fa             	sar    %rdx
    7391:	48 29 c2             	sub    %rax,%rdx
    7394:	31 c0                	xor    %eax,%eax
    7396:	e8 85 d1 ff ff       	call   4520 <__printf_chk@plt>
int main() {
    739b:	48 8b 9c 24 90 00 00 00 	mov    0x90(%rsp),%rbx
    73a3:	48 39 9c 24 b0 00 00 00 	cmp    %rbx,0xb0(%rsp)
    73ab:	0f 85 3f 02 00 00    	jne    75f0 <main+0x2b60>
    73b1:	48 8b 84 24 a8 00 00 00 	mov    0xa8(%rsp),%rax
    73b9:	48 c7 80 00 80 ff 7f 00 00 00 00 	movq   $0x0,0x7fff8000(%rax)
}
    73c4:	48 8b 84 24 18 01 00 00 	mov    0x118(%rsp),%rax
    73cc:	64 48 2b 04 25 28 00 00 00 	sub    %fs:0x28,%rax
    73d5:	0f 85 79 02 00 00    	jne    7654 <main+0x2bc4>
    73db:	48 81 c4 28 01 00 00 	add    $0x128,%rsp
    73e2:	31 c0                	xor    %eax,%eax
    73e4:	5b                   	pop    %rbx
    73e5:	5d                   	pop    %rbp
    73e6:	41 5c                	pop    %r12
    73e8:	41 5d                	pop    %r13
    73ea:	41 5e                	pop    %r14
    73ec:	41 5f                	pop    %r15
    73ee:	c3                   	ret
	for (int k = 0 ; k < thread_data[x].buffers[b]->buffer[n].ingest_snapshot ; k++) {
    73ef:	48 89 cf             	mov    %rcx,%rdi
    73f2:	e8 59 d1 ff ff       	call   4550 <__asan_report_load4@plt>
    73f7:	48 89 c7             	mov    %rax,%rdi
    73fa:	e8 e1 d0 ff ff       	call   44e0 <__asan_report_load8@plt>
    73ff:	e8 dc d0 ff ff       	call   44e0 <__asan_report_load8@plt>
    7404:	48 8b 7c 24 10       	mov    0x10(%rsp),%rdi
    7409:	e8 d2 d0 ff ff       	call   44e0 <__asan_report_load8@plt>
	  struct timespec start = thread_data[x].buffers[b]->buffer[n].snapshots[k].start;
    740e:	48 89 c7             	mov    %rax,%rdi
    7411:	e8 ca d0 ff ff       	call   44e0 <__asan_report_load8@plt>
    7416:	e8 c5 d0 ff ff       	call   44e0 <__asan_report_load8@plt>
	  struct timespec end = thread_data[x].buffers[b]->buffer[n].snapshots[k].end;
    741b:	48 89 c7             	mov    %rax,%rdi
    741e:	e8 bd d0 ff ff       	call   44e0 <__asan_report_load8@plt>
    7423:	48 89 c7             	mov    %rax,%rdi
    7426:	e8 b5 d0 ff ff       	call   44e0 <__asan_report_load8@plt>
    742b:	e8 b0 d0 ff ff       	call   44e0 <__asan_report_load8@plt>
    long v = 0;
    7430:	31 d2                	xor    %edx,%edx
    7432:	e9 64 f7 ff ff       	jmp    6b9b <main+0x210b>
	for (int k = 0 ; k < thread_data[x].buffers[b]->buffer[n].ingest_snapshot ; k++) {
    7437:	e8 14 d1 ff ff       	call   4550 <__asan_report_load4@plt>
              mailboxes[b].lower = &data[0];
    743c:	4c 89 ff             	mov    %r15,%rdi
    743f:	e8 8c d2 ff ff       	call   46d0 <__asan_report_store8@plt>
              mailboxes[b].higher = &data[1];
    7444:	48 89 f7             	mov    %rsi,%rdi
    7447:	e8 84 d2 ff ff       	call   46d0 <__asan_report_store8@plt>
              mailboxes[b].kind = MAILBOX_FRIEND;
    744c:	4c 89 c7             	mov    %r8,%rdi
    744f:	e8 6c d2 ff ff       	call   46c0 <__asan_report_store4@plt>
              data[0].messages = messages;
    7454:	e8 77 d2 ff ff       	call   46d0 <__asan_report_store8@plt>
              data[1].messages = messages2;
    7459:	48 89 c7             	mov    %rax,%rdi
    745c:	e8 6f d2 ff ff       	call   46d0 <__asan_report_store8@plt>
              data[0].messages_limit = messages_limit;
    7461:	48 89 c7             	mov    %rax,%rdi
    7464:	e8 67 d2 ff ff       	call   46d0 <__asan_report_store8@plt>
              data[0].messages_count = 0;
    7469:	48 89 c7             	mov    %rax,%rdi
    746c:	e8 5f d2 ff ff       	call   46d0 <__asan_report_store8@plt>
              data[1].messages_count = 0;
    7471:	48 89 c7             	mov    %rax,%rdi
    7474:	e8 57 d2 ff ff       	call   46d0 <__asan_report_store8@plt>
              data[1].messages_limit = messages_limit;
    7479:	48 89 c7             	mov    %rax,%rdi
    747c:	e8 4f d2 ff ff       	call   46d0 <__asan_report_store8@plt>
            mailboxes[b].lower = &data[0];
    7481:	48 89 df             	mov    %rbx,%rdi
    7484:	e8 47 d2 ff ff       	call   46d0 <__asan_report_store8@plt>
            mailboxes[b].higher = &data[1];
    7489:	48 89 cf             	mov    %rcx,%rdi
    748c:	e8 3f d2 ff ff       	call   46d0 <__asan_report_store8@plt>
            mailboxes[b].kind = MAILBOX_FOREIGN;
    7491:	48 89 f7             	mov    %rsi,%rdi
    7494:	e8 27 d2 ff ff       	call   46c0 <__asan_report_store4@plt>
            data[0].available = 0;
    7499:	48 89 f7             	mov    %rsi,%rdi
    749c:	e8 1f d2 ff ff       	call   46c0 <__asan_report_store4@plt>
            data[0].messages = messages;
    74a1:	e8 2a d2 ff ff       	call   46d0 <__asan_report_store8@plt>
            data[1].messages = messages2;
    74a6:	48 89 c7             	mov    %rax,%rdi
    74a9:	e8 22 d2 ff ff       	call   46d0 <__asan_report_store8@plt>
            data[1].available = 0;
    74ae:	48 89 cf             	mov    %rcx,%rdi
    74b1:	e8 0a d2 ff ff       	call   46c0 <__asan_report_store4@plt>
            data[0].messages_limit = messages_limit;
    74b6:	48 89 c7             	mov    %rax,%rdi
    74b9:	e8 12 d2 ff ff       	call   46d0 <__asan_report_store8@plt>
            data[0].messages_count = 0;
    74be:	48 89 c7             	mov    %rax,%rdi
    74c1:	e8 0a d2 ff ff       	call   46d0 <__asan_report_store8@plt>
            data[1].messages_count = 0;
    74c6:	48 89 c7             	mov    %rax,%rdi
    74c9:	e8 02 d2 ff ff       	call   46d0 <__asan_report_store8@plt>
            data[1].messages_limit = messages_limit;
    74ce:	48 89 c7             	mov    %rax,%rdi
    74d1:	e8 fa d1 ff ff       	call   46d0 <__asan_report_store8@plt>
      for (int n = 0 ; n < thread_data[x].buffers[b]->count ; n++) {
    74d6:	e8 75 d0 ff ff       	call   4550 <__asan_report_load4@plt>
    thread_data[x].thread_count = 2;
    74db:	48 8b 7c 24 28       	mov    0x28(%rsp),%rdi
    74e0:	e8 db d1 ff ff       	call   46c0 <__asan_report_store4@plt>
        thread_data[x].tasks[barrier_count].available = 1; 
    74e5:	e8 d6 d1 ff ff       	call   46c0 <__asan_report_store4@plt>
        thread_data[x].tasks[barrier_count].thread = my_thread_data[me_thread]; 
    74ea:	e8 e1 d1 ff ff       	call   46d0 <__asan_report_store8@plt>
        thread_data[x].tasks[barrier_count].run = barriered_reset; 
    74ef:	e8 dc d1 ff ff       	call   46d0 <__asan_report_store8@plt>
        thread_data[x].tasks[barrier_count].protected = do_protected_write; 
    74f4:	e8 d7 d1 ff ff       	call   46d0 <__asan_report_store8@plt>
          thread_data[x].buffers[b] = &buffers[cur_buffer++];
    74f9:	e8 d2 d1 ff ff       	call   46d0 <__asan_report_store8@plt>
        thread_data[x].buffers = calloc(buffers_per_thread, sizeof(struct Buffers*)); 
    74fe:	48 89 c7             	mov    %rax,%rdi
    7501:	e8 ca d1 ff ff       	call   46d0 <__asan_report_store8@plt>
        thread_data[x].buffers_count = buffers_per_thread;
    7506:	e8 b5 d1 ff ff       	call   46c0 <__asan_report_store4@plt>
               thread_data[x].tasks[y].run = barriered_work; 
    750b:	e8 c0 d1 ff ff       	call   46d0 <__asan_report_store8@plt>
          thread_data[x].tasks[y].task_index = y;
    7510:	e8 ab d1 ff ff       	call   46c0 <__asan_report_store4@plt>
    my_thread_data[n] = &thread_data[n]; 
    7515:	48 89 c7             	mov    %rax,%rdi
    7518:	e8 b3 d1 ff ff       	call   46d0 <__asan_report_store8@plt>
    751d:	48 89 c7             	mov    %rax,%rdi
    7520:	e8 ab d1 ff ff       	call   46d0 <__asan_report_store8@plt>
    7525:	48 89 c7             	mov    %rax,%rdi
    7528:	e8 a3 d1 ff ff       	call   46d0 <__asan_report_store8@plt>
    752d:	e8 9e d1 ff ff       	call   46d0 <__asan_report_store8@plt>
    thread_data[x].threads = my_thread_data;
    7532:	48 8b 7c 24 30       	mov    0x30(%rsp),%rdi
    7537:	e8 94 d1 ff ff       	call   46d0 <__asan_report_store8@plt>
    my_thread_data[1] = &thread_data[(x + 1) % thread_count]; 
    753c:	48 89 c7             	mov    %rax,%rdi
    753f:	e8 8c d1 ff ff       	call   46d0 <__asan_report_store8@plt>
    my_thread_data[0] = &thread_data[x]; 
    7544:	e8 87 d1 ff ff       	call   46d0 <__asan_report_store8@plt>
            CPU_SET(j, sendercpu);
    7549:	4c 89 ff             	mov    %r15,%rdi
    754c:	e8 8f cf ff ff       	call   44e0 <__asan_report_load8@plt>
          thread_data[x].tasks[y].sending = 1;
    7551:	e8 6a d1 ff ff       	call   46c0 <__asan_report_store4@plt>
          thread_data[x].tasks[y].message = messaged;
    7556:	e8 75 d1 ff ff       	call   46d0 <__asan_report_store8@plt>
          thread_data[x].tasks[y].next_thread = (y + 1) % thread_count;
    755b:	e8 60 d1 ff ff       	call   46c0 <__asan_report_store4@plt>
          thread_data[x].tasks[y].kind = BARRIER_TASK;
    7560:	48 89 df             	mov    %rbx,%rdi
    7563:	e8 58 d1 ff ff       	call   46c0 <__asan_report_store4@plt>
    7568:	48 8b 7c 24 38       	mov    0x38(%rsp),%rdi
    756d:	e8 6e cf ff ff       	call   44e0 <__asan_report_load8@plt>
          messaged->thread_index = thread_data[x].thread_index;
    7572:	e8 59 d1 ff ff       	call   46d0 <__asan_report_store8@plt>
    7577:	48 89 df             	mov    %rbx,%rdi
    757a:	e8 d1 cf ff ff       	call   4550 <__asan_report_load4@plt>
          messaged->task_index = y;
    757f:	e8 4c d1 ff ff       	call   46d0 <__asan_report_store8@plt>
          thread_data[x].tasks[y].worker_count = thread_count;
    7584:	e8 37 d1 ff ff       	call   46c0 <__asan_report_store4@plt>
          thread_data[x].tasks[y].task_count = total_barrier_count;
    7589:	e8 32 d1 ff ff       	call   46c0 <__asan_report_store4@plt>
          thread_data[x].tasks[y].mailbox_thread_count = mailboxes_needed;
    758e:	e8 2d d1 ff ff       	call   46c0 <__asan_report_store4@plt>
          thread_data[x].tasks[y].all_thread_count = thread_count;
    7593:	e8 28 d1 ff ff       	call   46c0 <__asan_report_store4@plt>
          thread_data[x].tasks[y].total_thread_count = thread_count;
    7598:	e8 23 d1 ff ff       	call   46c0 <__asan_report_store4@plt>
          thread_data[x].tasks[y].thread_count = 2;
    759d:	e8 1e d1 ff ff       	call   46c0 <__asan_report_store4@plt>
          thread_data[x].tasks[y].arrived = 0;
    75a2:	e8 19 d1 ff ff       	call   46c0 <__asan_report_store4@plt>
          thread_data[x].tasks[y].available = 1;
    75a7:	e8 14 d1 ff ff       	call   46c0 <__asan_report_store4@plt>
            exit(1);
    75ac:	e8 5f d0 ff ff       	call   4610 <__asan_handle_no_return@plt>
    75b1:	bf 01 00 00 00       	mov    $0x1,%edi
    75b6:	e8 55 cf ff ff       	call   4510 <exit@plt>
          thread_data[x].tasks[y].thread = my_thread_data[me_thread]; 
    75bb:	e8 10 d1 ff ff       	call   46d0 <__asan_report_store8@plt>
          thread_data[x].tasks[y].thread_index = my_thread_data[me_thread]->thread_index;
    75c0:	e8 fb d0 ff ff       	call   46c0 <__asan_report_store4@plt>
    75c5:	e8 86 cf ff ff       	call   4550 <__asan_report_load4@plt>
    75ca:	48 8b 7c 24 08       	mov    0x8(%rsp),%rdi
    75cf:	e8 0c cf ff ff       	call   44e0 <__asan_report_load8@plt>
          thread_data[x].tasks[y].current_snapshot = 0;
    75d4:	e8 f7 d0 ff ff       	call   46d0 <__asan_report_store8@plt>
          thread_data[x].tasks[y].snapshots = calloc(thread_data[x].tasks[y].snapshot_count, sizeof(struct Snapshot));
    75d9:	e8 f2 d0 ff ff       	call   46d0 <__asan_report_store8@plt>
          thread_data[x].tasks[y].snapshot_count = 99;
    75de:	e8 ed d0 ff ff       	call   46d0 <__asan_report_store8@plt>
  thread_data[timer_threadi].threads = my_thread_data;
    75e3:	48 89 c7             	mov    %rax,%rdi
    75e6:	e8 e5 d0 ff ff       	call   46d0 <__asan_report_store8@plt>
    thread_data[n].tasks[0].scheduled = 1;
    75eb:	e8 f0 ce ff ff       	call   44e0 <__asan_report_load8@plt>
int main() {
    75f0:	48 c7 03 0e 36 e0 45 	movq   $0x45e0360e,(%rbx)
    75f7:	48 89 d8             	mov    %rbx,%rax
    75fa:	48 8b 9c 24 a8 00 00 00 	mov    0xa8(%rsp),%rbx
    7602:	48 be f5 f5 f5 f5 f5 f5 f5 f5 	movabs $0xf5f5f5f5f5f5f5f5,%rsi
    760c:	48 89 b3 00 80 ff 7f 	mov    %rsi,0x7fff8000(%rbx)
    7613:	48 8b 40 38          	mov    0x38(%rax),%rax
    7617:	c6 00 00             	movb   $0x0,(%rax)
    761a:	e9 a5 fd ff ff       	jmp    73c4 <main+0x2934>
  printf("Total money %ld (correct if 0 or 500)\n", protected_state->balance);
    761f:	e8 bc ce ff ff       	call   44e0 <__asan_report_load8@plt>
    buffers[x].buffer = calloc(buffer_size, sizeof(struct Buffer));
    7624:	e8 a7 d0 ff ff       	call   46d0 <__asan_report_store8@plt>
    buffers[x].count = buffer_size;
    7629:	4c 89 ef             	mov    %r13,%rdi
    762c:	e8 8f d0 ff ff       	call   46c0 <__asan_report_store4@plt>
int main() {
    7631:	bf 40 00 00 00       	mov    $0x40,%edi
    7636:	e8 75 d1 ff ff       	call   47b0 <__asan_stack_malloc_0@plt>
    763b:	48 85 c0             	test   %rax,%rax
    763e:	48 0f 44 84 24 90 00 00 00 	cmove  0x90(%rsp),%rax
    7647:	48 89 84 24 90 00 00 00 	mov    %rax,0x90(%rsp)
    764f:	e9 79 d4 ff ff       	jmp    4acd <main+0x3d>
}
    7654:	e8 57 d0 ff ff       	call   46b0 <__stack_chk_fail@plt>
      thread_data[x].other = other;
    7659:	e8 62 d0 ff ff       	call   46c0 <__asan_report_store4@plt>
        my_thread_data[0] = &thread_data[other]; 
    765e:	4c 89 e7             	mov    %r12,%rdi
    7661:	e8 6a d0 ff ff       	call   46d0 <__asan_report_store8@plt>
        my_thread_data[1] = &thread_data[x]; 
    7666:	e8 65 d0 ff ff       	call   46d0 <__asan_report_store8@plt>
        thread_data[x].protected_state = &protected_state[k];
    766b:	e8 60 d0 ff ff       	call   46d0 <__asan_report_store8@plt>
        thread_data[x].thread_index = 1;
    7670:	e8 4b d0 ff ff       	call   46c0 <__asan_report_store4@plt>
      buffers[x].buffer[y].snapshots = calloc(snapshot_limit, sizeof(struct Snapshot));
    7675:	e8 56 d0 ff ff       	call   46d0 <__asan_report_store8@plt>
      buffers[x].buffer[y].snapshot_limit = snapshot_limit;
    767a:	e8 41 d0 ff ff       	call   46c0 <__asan_report_store4@plt>
      buffers[x].buffer[y].available = 0;
    767f:	e8 3c d0 ff ff       	call   46c0 <__asan_report_store4@plt>
	for (int k = 0 ; k < thread_data[x].buffers[b]->buffer[n].ingest_snapshot ; k++) {
    7684:	48 89 c7             	mov    %rax,%rdi
    7687:	e8 54 ce ff ff       	call   44e0 <__asan_report_load8@plt>
      for (int n = 0 ; n < thread_data[x].buffers[b]->count ; n++) {
    768c:	e8 bf ce ff ff       	call   4550 <__asan_report_load4@plt>
    7691:	e8 4a ce ff ff       	call   44e0 <__asan_report_load8@plt>
    7696:	48 8b 7c 24 10       	mov    0x10(%rsp),%rdi
    769b:	e8 40 ce ff ff       	call   44e0 <__asan_report_load8@plt>
    for (int b = 0 ; b < thread_data[x].buffers_count ; b++) {
    76a0:	e8 ab ce ff ff       	call   4550 <__asan_report_load4@plt>
    for (int n = 0 ; n < thread_data[x].task_timestamp_limit ; n++) {
    76a5:	48 8b 7c 24 08       	mov    0x8(%rsp),%rdi
    76aa:	e8 31 ce ff ff       	call   44e0 <__asan_report_load8@plt>
      printf("%d tasks (%d) synchronized in %ld seconds %ld milliseconds %ld nanoseconds\n", 2, thread_data[x].task_snapshot[n].task, seconds, seconds2 / 1000000, seconds2);
    76af:	48 89 d7             	mov    %rdx,%rdi
    76b2:	e8 99 ce ff ff       	call   4550 <__asan_report_load4@plt>
      thread_data[x].task_count = total_barrier_count;
    76b7:	e8 04 d0 ff ff       	call   46c0 <__asan_report_store4@plt>
      thread_data[x].total_thread_count = total_threads;
    76bc:	e8 ff cf ff ff       	call   46c0 <__asan_report_store4@plt>
      thread_data[x].thread_count = 2;
    76c1:	e8 fa cf ff ff       	call   46c0 <__asan_report_store4@plt>
      thread_data[x].all_threads = thread_data;
    76c6:	e8 05 d0 ff ff       	call   46d0 <__asan_report_store8@plt>
      thread_data[x].threads = my_thread_data;
    76cb:	e8 00 d0 ff ff       	call   46d0 <__asan_report_store8@plt>
      thread_data[x].real_thread_index = x;
    76d0:	e8 eb cf ff ff       	call   46c0 <__asan_report_store4@plt>
      thread_data[x].cpu_set = sendercpu;
    76d5:	e8 f6 cf ff ff       	call   46d0 <__asan_report_store8@plt>
      thread_data[x].kind = KERNEL_THREAD;
    76da:	4c 89 d7             	mov    %r10,%rdi
    76dd:	e8 de cf ff ff       	call   46c0 <__asan_report_store4@plt>
          CPU_SET(curcpu, sendercpu);
    76e2:	e8 f9 cd ff ff       	call   44e0 <__asan_report_load8@plt>
      my_thread_data[n] = &thread_data[n]; 
    76e7:	e8 e4 cf ff ff       	call   46d0 <__asan_report_store8@plt>
    thread_data[x].ring = calloc(1, sizeof(struct io_uring));
    76ec:	e8 df cf ff ff       	call   46d0 <__asan_report_store8@plt>
    thread_data[x].threads = my_thread_data;
    76f1:	48 8b 7c 24 30       	mov    0x30(%rsp),%rdi
    76f6:	e8 d5 cf ff ff       	call   46d0 <__asan_report_store8@plt>
      my_thread_data[n] = &thread_data[n]; 
    76fb:	48 89 c7             	mov    %rax,%rdi
    76fe:	e8 cd cf ff ff       	call   46d0 <__asan_report_store8@plt>
      pthread_setaffinity_np(thread[x], sizeof(thread_data[x].cpu_set), thread_data[x].cpu_set);
    7703:	4c 89 e7             	mov    %r12,%rdi
    7706:	e8 d5 cd ff ff       	call   44e0 <__asan_report_load8@plt>
    770b:	e8 d0 cd ff ff       	call   44e0 <__asan_report_load8@plt>
      thread_data[x].running = 1;
    7710:	e8 ab cf ff ff       	call   46c0 <__asan_report_store4@plt>
      thread_data[x].type = WORKER;
    7715:	e8 a6 cf ff ff       	call   46c0 <__asan_report_store4@plt>
    my_thread_data[n] = &thread_data[n]; 
    771a:	48 89 c7             	mov    %rax,%rdi
    771d:	e8 ae cf ff ff       	call   46d0 <__asan_report_store8@plt>
    7722:	48 89 c7             	mov    %rax,%rdi
    7725:	e8 a6 cf ff ff       	call   46d0 <__asan_report_store8@plt>
    772a:	48 89 c7             	mov    %rax,%rdi
    772d:	e8 9e cf ff ff       	call   46d0 <__asan_report_store8@plt>
    7732:	48 89 c7             	mov    %rax,%rdi
    7735:	e8 96 cf ff ff       	call   46d0 <__asan_report_store8@plt>
    773a:	48 89 c7             	mov    %rax,%rdi
    773d:	e8 8e cf ff ff       	call   46d0 <__asan_report_store8@plt>
    7742:	48 89 c7             	mov    %rax,%rdi
    7745:	e8 86 cf ff ff       	call   46d0 <__asan_report_store8@plt>
    774a:	48 89 c7             	mov    %rax,%rdi
    774d:	e8 7e cf ff ff       	call   46d0 <__asan_report_store8@plt>
    7752:	48 89 c7             	mov    %rax,%rdi
    7755:	e8 76 cf ff ff       	call   46d0 <__asan_report_store8@plt>
            thread_data[x].tasks[y].run = barriered_work; 
    775a:	e8 71 cf ff ff       	call   46d0 <__asan_report_store8@plt>
        thread_data[x].tasks[barrier_count].task_count = total_barrier_count; 
    775f:	e8 5c cf ff ff       	call   46c0 <__asan_report_store4@plt>
        thread_data[x].tasks[barrier_count].worker_count = thread_count; 
    7764:	e8 57 cf ff ff       	call   46c0 <__asan_report_store4@plt>
        thread_data[x].tasks[barrier_count].thread_index = thread_data[x].thread_index; 
    7769:	e8 52 cf ff ff       	call   46c0 <__asan_report_store4@plt>
        thread_data[x].tasks[barrier_count].thread_count = 2; 
    776e:	e8 4d cf ff ff       	call   46c0 <__asan_report_store4@plt>
        thread_data[x].tasks[barrier_count].task_index = barrier_count; 
    7773:	e8 48 cf ff ff       	call   46c0 <__asan_report_store4@plt>
        thread_data[x].tasks[barrier_count].arrived = 0; 
    7778:	e8 43 cf ff ff       	call   46c0 <__asan_report_store4@plt>
        thread_data[x].tasks = barriers;
    777d:	4c 89 cf             	mov    %r9,%rdi
    7780:	e8 4b cf ff ff       	call   46d0 <__asan_report_store8@plt>
      thread_data[x].task_timestamp_limit = timestamp_limit;
    7785:	e8 46 cf ff ff       	call   46d0 <__asan_report_store8@plt>
      thread_data[x].task_timestamp_count = 0;
    778a:	e8 41 cf ff ff       	call   46d0 <__asan_report_store8@plt>
      thread_data[x].task_snapshot = calloc(timestamp_limit, sizeof(struct TaskSnapshot));
    778f:	e8 3c cf ff ff       	call   46d0 <__asan_report_store8@plt>
      thread_data[x].timestamp_limit = timestamp_limit;
    7794:	e8 37 cf ff ff       	call   46d0 <__asan_report_store8@plt>
      thread_data[x].timestamp_count = 0;
    7799:	e8 32 cf ff ff       	call   46d0 <__asan_report_store8@plt>
      thread_data[x].end = calloc(timestamp_limit, sizeof(struct timespec));
    779e:	e8 2d cf ff ff       	call   46d0 <__asan_report_store8@plt>
      thread_data[x].start = calloc(timestamp_limit, sizeof(struct timespec));
    77a3:	e8 28 cf ff ff       	call   46d0 <__asan_report_store8@plt>
  thread_data[timer_threadi].my_thread_count = 2;
    77a8:	e8 13 cf ff ff       	call   46c0 <__asan_report_store4@plt>
  thread_data[timer_threadi].thread_count = group_count * threads_per_group;
    77ad:	e8 0e cf ff ff       	call   46c0 <__asan_report_store4@plt>
  thread_data[timer_threadi].task_count = total_barrier_count;
    77b2:	e8 09 cf ff ff       	call   46c0 <__asan_report_store4@plt>
  thread_data[timer_threadi].running = 1;
    77b7:	e8 04 cf ff ff       	call   46c0 <__asan_report_store4@plt>
  thread_data[timer_threadi].type = TIMER;
    77bc:	e8 ff ce ff ff       	call   46c0 <__asan_report_store4@plt>
    thread_data[n].tasks[0].scheduled = 1;
    77c1:	e8 fa ce ff ff       	call   46c0 <__asan_report_store4@plt>
    77c6:	e8 f5 ce ff ff       	call   46c0 <__asan_report_store4@plt>
    thread_data[x].task_count = total_barrier_count;
    77cb:	48 8b 7c 24 20       	mov    0x20(%rsp),%rdi
    77d0:	e8 eb ce ff ff       	call   46c0 <__asan_report_store4@plt>
    thread_data[x].threads = my_thread_data;
    77d5:	48 89 c7             	mov    %rax,%rdi
    77d8:	e8 f3 ce ff ff       	call   46d0 <__asan_report_store8@plt>
      my_thread_data[n] = &thread_data[n]; 
    77dd:	48 89 c7             	mov    %rax,%rdi
    77e0:	e8 eb ce ff ff       	call   46d0 <__asan_report_store8@plt>
    77e5:	e8 e6 ce ff ff       	call   46d0 <__asan_report_store8@plt>
	  thread_data[x].buffers_count = 1;
    77ea:	e8 d1 ce ff ff       	call   46c0 <__asan_report_store4@plt>
		thread_data[x].buffers[0] = &buffers[next_buffer++];
    77ef:	e8 dc ce ff ff       	call   46d0 <__asan_report_store8@plt>
    thread_data[x].buffers = calloc(1, sizeof(struct Buffers*));
    77f4:	48 89 c7             	mov    %rax,%rdi
    77f7:	e8 d4 ce ff ff       	call   46d0 <__asan_report_store8@plt>
    thread_data[x].task_count = 0;
    77fc:	e8 bf ce ff ff       	call   46c0 <__asan_report_store4@plt>
    thread_data[x].running = 1;
    7801:	e8 ba ce ff ff       	call   46c0 <__asan_report_store4@plt>
    thread_data[x].type = EXTERNAL;
    7806:	48 89 ef             	mov    %rbp,%rdi
    7809:	e8 b2 ce ff ff       	call   46c0 <__asan_report_store4@plt>
    thread_data[x].thread_index = x;
    780e:	4c 89 ff             	mov    %r15,%rdi
    7811:	e8 aa ce ff ff       	call   46c0 <__asan_report_store4@plt>
    thread_data[x].thread_count = thread_count;
    7816:	48 8b 7c 24 28       	mov    0x28(%rsp),%rdi
    781b:	e8 a0 ce ff ff       	call   46c0 <__asan_report_store4@plt>
    thread_data[x]._eventfd = eventfd(0, EFD_NONBLOCK); 
    7820:	e8 9b ce ff ff       	call   46c0 <__asan_report_store4@plt>
    thread_data[x].task_count = 0;
    7825:	48 8b 7c 24 20       	mov    0x20(%rsp),%rdi
    782a:	e8 91 ce ff ff       	call   46c0 <__asan_report_store4@plt>
    thread_data[x].running = 1;
    782f:	e8 8c ce ff ff       	call   46c0 <__asan_report_store4@plt>
    thread_data[x].type = IO;
    7834:	e8 87 ce ff ff       	call   46c0 <__asan_report_store4@plt>
  thread_data[timer_threadi].thread_index = 0;
    7839:	e8 82 ce ff ff       	call   46c0 <__asan_report_store4@plt>
      struct timespec end = thread_data[x].task_snapshot[n].task_end;
    783e:	48 89 c7             	mov    %rax,%rdi
    7841:	e8 9a cc ff ff       	call   44e0 <__asan_report_load8@plt>
    7846:	48 89 c7             	mov    %rax,%rdi
    7849:	e8 92 cc ff ff       	call   44e0 <__asan_report_load8@plt>
      struct timespec start = thread_data[x].task_snapshot[n].task_start;
    784e:	48 89 c7             	mov    %rax,%rdi
    7851:	e8 8a cc ff ff       	call   44e0 <__asan_report_load8@plt>
    7856:	e8 85 cc ff ff       	call   44e0 <__asan_report_load8@plt>
    785b:	48 8b 7c 24 10       	mov    0x10(%rsp),%rdi
    7860:	e8 7b cc ff ff       	call   44e0 <__asan_report_load8@plt>
    for (int n = 0 ; n < thread_data[x].task_timestamp_limit ; n++) {
    7865:	48 89 cf             	mov    %rcx,%rdi
    7868:	e8 73 cc ff ff       	call   44e0 <__asan_report_load8@plt>
    for (int n = 0 ; n < thread_data[x].timestamp_limit ; n++) {
    786d:	e8 6e cc ff ff       	call   44e0 <__asan_report_load8@plt>
        received += ((struct Mailbox)thread_data[x].tasks[n].mailboxes[k]).received;
    7872:	48 89 d7             	mov    %rdx,%rdi
    7875:	e8 66 cc ff ff       	call   44e0 <__asan_report_load8@plt>
        sents += ((struct Mailbox)thread_data[x].tasks[n].mailboxes[k]).sent;
    787a:	48 89 d7             	mov    %rdx,%rdi
    787d:	e8 5e cc ff ff       	call   44e0 <__asan_report_load8@plt>
    thread_data[n].tasks[0].scheduled = 1;
    7882:	48 8b 7c 24 40       	mov    0x40(%rsp),%rdi
    7887:	e8 54 cc ff ff       	call   44e0 <__asan_report_load8@plt>
    for (int n = 0 ; n < thread_data[me].task_count ; n++) {
    788c:	4c 89 ef             	mov    %r13,%rdi
    788f:	e8 bc cc ff ff       	call   4550 <__asan_report_load4@plt>
      v += thread_data[me].tasks[n].v;
    7894:	e8 47 cc ff ff       	call   44e0 <__asan_report_load8@plt>
    7899:	48 89 ef             	mov    %rbp,%rdi
    789c:	e8 3f cc ff ff       	call   44e0 <__asan_report_load8@plt>
    printf("Total Protected per second %ld\n", protected_state[me].protected / DURATION);
    78a1:	48 8b bc 24 80 00 00 00 	mov    0x80(%rsp),%rdi
    78a9:	e8 32 cc ff ff       	call   44e0 <__asan_report_load8@plt>
      v += thread_data[other].tasks[n].v;
    78ae:	e8 2d cc ff ff       	call   44e0 <__asan_report_load8@plt>
    78b3:	e8 28 cc ff ff       	call   44e0 <__asan_report_load8@plt>
    for (int n = 0 ; n < thread_data[other].task_count ; n++) {
    78b8:	e8 93 cc ff ff       	call   4550 <__asan_report_load4@plt>
        received += ((struct Mailbox)thread_data[x].tasks[n].mailboxes[k]).received;
    78bd:	48 89 d7             	mov    %rdx,%rdi
    78c0:	e8 1b cc ff ff       	call   44e0 <__asan_report_load8@plt>
        sents += ((struct Mailbox)thread_data[x].tasks[n].mailboxes[k]).sent;
    78c5:	48 89 d7             	mov    %rdx,%rdi
    78c8:	e8 13 cc ff ff       	call   44e0 <__asan_report_load8@plt>
    78cd:	48 89 c7             	mov    %rax,%rdi
    78d0:	e8 0b cc ff ff       	call   44e0 <__asan_report_load8@plt>
      sends += thread_data[x].tasks[n].sends;
    78d5:	48 89 c7             	mov    %rax,%rdi
    78d8:	e8 03 cc ff ff       	call   44e0 <__asan_report_load8@plt>
      ingests += thread_data[x].tasks[n].ingest_count;
    78dd:	48 89 c7             	mov    %rax,%rdi
    78e0:	e8 fb cb ff ff       	call   44e0 <__asan_report_load8@plt>
      total += thread_data[x].tasks[n].n;
    78e5:	e8 f6 cb ff ff       	call   44e0 <__asan_report_load8@plt>
    78ea:	48 89 ef             	mov    %rbp,%rdi
    78ed:	e8 ee cb ff ff       	call   44e0 <__asan_report_load8@plt>
    for (int n = 0 ; n < thread_data[x].task_count ; n++) {
    78f2:	4c 89 ef             	mov    %r13,%rdi
    78f5:	e8 56 cc ff ff       	call   4550 <__asan_report_load4@plt>
    printf("Total Protected %ld\n", protected_state[me].protected);
    78fa:	48 8b bc 24 80 00 00 00 	mov    0x80(%rsp),%rdi
    7902:	e8 d9 cb ff ff       	call   44e0 <__asan_report_load8@plt>
    pthread_join(thread[x], &result);
    7907:	4c 89 ef             	mov    %r13,%rdi
    790a:	e8 d1 cb ff ff       	call   44e0 <__asan_report_load8@plt>
    printf("threadindex %d %d\n", thread_data[x].thread_index, thread_data[x].real_thread_index);
    790f:	e8 3c cc ff ff       	call   4550 <__asan_report_load4@plt>
    7914:	4c 89 f7             	mov    %r14,%rdi
    7917:	e8 34 cc ff ff       	call   4550 <__asan_report_load4@plt>
    thread_data[x].thread_index = x;
    791c:	e8 9f cd ff ff       	call   46c0 <__asan_report_store4@plt>
    thread_data[x].total_thread_count = total_threads;
    7921:	e8 9a cd ff ff       	call   46c0 <__asan_report_store4@plt>
    thread_data[x].thread_count = thread_count;
    7926:	e8 95 cd ff ff       	call   46c0 <__asan_report_store4@plt>
          thread_data[x].tasks[y].mailboxes = mailboxes;
    792b:	e8 a0 cd ff ff       	call   46d0 <__asan_report_store8@plt>
          messaged->message = message;
    7930:	4c 89 df             	mov    %r11,%rdi
    7933:	e8 98 cd ff ff       	call   46d0 <__asan_report_store8@plt>
          thread_data[x].tasks[y].protected = do_protected_write; 
    7938:	e8 93 cd ff ff       	call   46d0 <__asan_report_store8@plt>
    thread_data[x].thread_index = 0;
    793d:	4c 89 ff             	mov    %r15,%rdi
    7940:	e8 7b cd ff ff       	call   46c0 <__asan_report_store4@plt>
    7945:	66 66 2e 0f 1f 84 00 00 00 00 00 	data16 cs nopw 0x0(%rax,%rax,1)

0000000000007950 <_sub_I_00099_1>:
}
    7950:	f3 0f 1e fa          	endbr64
    7954:	48 83 ec 08          	sub    $0x8,%rsp
    7958:	e8 53 cb ff ff       	call   44b0 <__asan_init@plt>
    795d:	e8 ae ce ff ff       	call   4810 <__asan_version_mismatch_check_v8@plt>
    7962:	be 6b 00 00 00       	mov    $0x6b,%esi
    7967:	48 8d 3d 52 c7 00 00 	lea    0xc752(%rip),%rdi        # 140c0 <unimplemented_content+0x60>
    796e:	48 83 c4 08          	add    $0x8,%rsp
    7972:	e9 e9 cd ff ff       	jmp    4760 <__asan_register_globals@plt>
    7977:	66 0f 1f 84 00 00 00 00 00 	nopw   0x0(%rax,%rax,1)

0000000000007980 <_start>:
    7980:	f3 0f 1e fa          	endbr64
    7984:	31 ed                	xor    %ebp,%ebp
    7986:	49 89 d1             	mov    %rdx,%r9
    7989:	5e                   	pop    %rsi
    798a:	48 89 e2             	mov    %rsp,%rdx
    798d:	48 83 e4 f0          	and    $0xfffffffffffffff0,%rsp
    7991:	50                   	push   %rax
    7992:	54                   	push   %rsp
    7993:	45 31 c0             	xor    %r8d,%r8d
    7996:	31 c9                	xor    %ecx,%ecx
    7998:	48 8d 3d f1 d0 ff ff 	lea    -0x2f0f(%rip),%rdi        # 4a90 <main>
    799f:	ff 15 53 c6 00 00    	call   *0xc653(%rip)        # 13ff8 <__libc_start_main@GLIBC_2.34>
    79a5:	f4                   	hlt
    79a6:	66 2e 0f 1f 84 00 00 00 00 00 	cs nopw 0x0(%rax,%rax,1)

00000000000079b0 <deregister_tm_clones>:
    79b0:	48 8d 3d c9 e1 00 00 	lea    0xe1c9(%rip),%rdi        # 15b80 <__asan_option_detect_stack_use_after_return@@Base>
    79b7:	48 8d 05 c2 e1 00 00 	lea    0xe1c2(%rip),%rax        # 15b80 <__asan_option_detect_stack_use_after_return@@Base>
    79be:	48 39 f8             	cmp    %rdi,%rax
    79c1:	74 15                	je     79d8 <deregister_tm_clones+0x28>
    79c3:	48 8b 05 16 c6 00 00 	mov    0xc616(%rip),%rax        # 13fe0 <_ITM_deregisterTMCloneTable@Base>
    79ca:	48 85 c0             	test   %rax,%rax
    79cd:	74 09                	je     79d8 <deregister_tm_clones+0x28>
    79cf:	ff e0                	jmp    *%rax
    79d1:	0f 1f 80 00 00 00 00 	nopl   0x0(%rax)
    79d8:	c3                   	ret
    79d9:	0f 1f 80 00 00 00 00 	nopl   0x0(%rax)

00000000000079e0 <register_tm_clones>:
    79e0:	48 8d 3d 99 e1 00 00 	lea    0xe199(%rip),%rdi        # 15b80 <__asan_option_detect_stack_use_after_return@@Base>
    79e7:	48 8d 35 92 e1 00 00 	lea    0xe192(%rip),%rsi        # 15b80 <__asan_option_detect_stack_use_after_return@@Base>
    79ee:	48 29 fe             	sub    %rdi,%rsi
    79f1:	48 89 f0             	mov    %rsi,%rax
    79f4:	48 c1 ee 3f          	shr    $0x3f,%rsi
    79f8:	48 c1 f8 03          	sar    $0x3,%rax
    79fc:	48 01 c6             	add    %rax,%rsi
    79ff:	48 d1 fe             	sar    %rsi
    7a02:	74 14                	je     7a18 <register_tm_clones+0x38>
    7a04:	48 8b 05 dd c5 00 00 	mov    0xc5dd(%rip),%rax        # 13fe8 <_ITM_registerTMCloneTable@Base>
    7a0b:	48 85 c0             	test   %rax,%rax
    7a0e:	74 08                	je     7a18 <register_tm_clones+0x38>
    7a10:	ff e0                	jmp    *%rax
    7a12:	66 0f 1f 44 00 00    	nopw   0x0(%rax,%rax,1)
    7a18:	c3                   	ret
    7a19:	0f 1f 80 00 00 00 00 	nopl   0x0(%rax)

0000000000007a20 <__do_global_dtors_aux>:
    7a20:	f3 0f 1e fa          	endbr64
    7a24:	80 3d 7d e1 00 00 00 	cmpb   $0x0,0xe17d(%rip)        # 15ba8 <completed.0>
    7a2b:	75 2b                	jne    7a58 <__do_global_dtors_aux+0x38>
    7a2d:	55                   	push   %rbp
    7a2e:	48 83 3d ba c5 00 00 00 	cmpq   $0x0,0xc5ba(%rip)        # 13ff0 <__cxa_finalize@GLIBC_2.2.5>
    7a36:	48 89 e5             	mov    %rsp,%rbp
    7a39:	74 0c                	je     7a47 <__do_global_dtors_aux+0x27>
    7a3b:	48 8b 3d c6 c5 00 00 	mov    0xc5c6(%rip),%rdi        # 14008 <__dso_handle>
    7a42:	e8 e9 c9 ff ff       	call   4430 <__cxa_finalize@plt>
    7a47:	e8 64 ff ff ff       	call   79b0 <deregister_tm_clones>
    7a4c:	c6 05 55 e1 00 00 01 	movb   $0x1,0xe155(%rip)        # 15ba8 <completed.0>
    7a53:	5d                   	pop    %rbp
    7a54:	c3                   	ret
    7a55:	0f 1f 00             	nopl   (%rax)
    7a58:	c3                   	ret
    7a59:	0f 1f 80 00 00 00 00 	nopl   0x0(%rax)

0000000000007a60 <frame_dummy>:
    7a60:	f3 0f 1e fa          	endbr64
    7a64:	e9 77 ff ff ff       	jmp    79e0 <register_tm_clones>
    7a69:	0f 1f 80 00 00 00 00 	nopl   0x0(%rax)

0000000000007a70 <do_protected_write>:
int do_protected_write(struct BarrierTask *data) {
    7a70:	f3 0f 1e fa          	endbr64
  struct ProtectedState *protected = data->thread->protected_state;
    7a74:	48 8d 87 28 01 00 00 	lea    0x128(%rdi),%rax
int do_protected_write(struct BarrierTask *data) {
    7a7b:	48 83 ec 08          	sub    $0x8,%rsp
  struct ProtectedState *protected = data->thread->protected_state;
    7a7f:	48 89 c2             	mov    %rax,%rdx
    7a82:	48 c1 ea 03          	shr    $0x3,%rdx
    7a86:	80 ba 00 80 ff 7f 00 	cmpb   $0x0,0x7fff8000(%rdx)
    7a8d:	0f 85 8e 00 00 00    	jne    7b21 <do_protected_write+0xb1>
    7a93:	48 8b 87 28 01 00 00 	mov    0x128(%rdi),%rax
    7a9a:	48 8d 50 48          	lea    0x48(%rax),%rdx
    7a9e:	48 89 d1             	mov    %rdx,%rcx
    7aa1:	48 c1 e9 03          	shr    $0x3,%rcx
    7aa5:	80 b9 00 80 ff 7f 00 	cmpb   $0x0,0x7fff8000(%rcx)
    7aac:	0f 85 8c 00 00 00    	jne    7b3e <do_protected_write+0xce>
  data->v++; // thread local
    7ab2:	48 8d 97 10 01 00 00 	lea    0x110(%rdi),%rdx
  struct ProtectedState *protected = data->thread->protected_state;
    7ab9:	48 8b 40 48          	mov    0x48(%rax),%rax
  data->v++; // thread local
    7abd:	48 89 d1             	mov    %rdx,%rcx
    7ac0:	48 c1 e9 03          	shr    $0x3,%rcx
    7ac4:	80 b9 00 80 ff 7f 00 	cmpb   $0x0,0x7fff8000(%rcx)
    7acb:	75 69                	jne    7b36 <do_protected_write+0xc6>
  protected->protected++; // shared between all threads
    7acd:	48 89 c2             	mov    %rax,%rdx
  data->v++; // thread local
    7ad0:	48 83 87 10 01 00 00 01 	addq   $0x1,0x110(%rdi)
  protected->protected++; // shared between all threads
    7ad8:	48 c1 ea 03          	shr    $0x3,%rdx
    7adc:	80 ba 00 80 ff 7f 00 	cmpb   $0x0,0x7fff8000(%rdx)
    7ae3:	75 49                	jne    7b2e <do_protected_write+0xbe>
  if (protected->balance > 0) {
    7ae5:	48 8d 78 08          	lea    0x8(%rax),%rdi
  protected->protected++; // shared between all threads
    7ae9:	48 83 00 01          	addq   $0x1,(%rax)
  if (protected->balance > 0) {
    7aed:	48 89 fa             	mov    %rdi,%rdx
    7af0:	48 c1 ea 03          	shr    $0x3,%rdx
    7af4:	80 ba 00 80 ff 7f 00 	cmpb   $0x0,0x7fff8000(%rdx)
    7afb:	75 2c                	jne    7b29 <do_protected_write+0xb9>
    7afd:	48 8b 48 08          	mov    0x8(%rax),%rcx
    protected->balance -= 500; // shared between all threads
    7b01:	48 85 c9             	test   %rcx,%rcx
    7b04:	48 8d b1 0c fe ff ff 	lea    -0x1f4(%rcx),%rsi
    7b0b:	48 8d 91 f4 01 00 00 	lea    0x1f4(%rcx),%rdx
    7b12:	48 0f 4f d6          	cmovg  %rsi,%rdx
    7b16:	48 89 50 08          	mov    %rdx,0x8(%rax)
}
    7b1a:	31 c0                	xor    %eax,%eax
    7b1c:	48 83 c4 08          	add    $0x8,%rsp
    7b20:	c3                   	ret
  struct ProtectedState *protected = data->thread->protected_state;
    7b21:	48 89 c7             	mov    %rax,%rdi
    7b24:	e8 b7 c9 ff ff       	call   44e0 <__asan_report_load8@plt>
  if (protected->balance > 0) {
    7b29:	e8 b2 c9 ff ff       	call   44e0 <__asan_report_load8@plt>
  protected->protected++; // shared between all threads
    7b2e:	48 89 c7             	mov    %rax,%rdi
    7b31:	e8 aa c9 ff ff       	call   44e0 <__asan_report_load8@plt>
  data->v++; // thread local
    7b36:	48 89 d7             	mov    %rdx,%rdi
    7b39:	e8 a2 c9 ff ff       	call   44e0 <__asan_report_load8@plt>
  struct ProtectedState *protected = data->thread->protected_state;
    7b3e:	48 89 d7             	mov    %rdx,%rdi
    7b41:	e8 9a c9 ff ff       	call   44e0 <__asan_report_load8@plt>
    7b46:	66 2e 0f 1f 84 00 00 00 00 00 	cs nopw 0x0(%rax,%rax,1)

0000000000007b50 <barriered_reset>:
int barriered_reset(struct BarrierTask *data) {
    7b50:	f3 0f 1e fa          	endbr64
    for (int x = 0 ; x < data->task_count ; x++) {
    7b54:	48 8d 97 48 01 00 00 	lea    0x148(%rdi),%rdx
int barriered_reset(struct BarrierTask *data) {
    7b5b:	48 83 ec 08          	sub    $0x8,%rsp
    for (int x = 0 ; x < data->task_count ; x++) {
    7b5f:	48 89 d0             	mov    %rdx,%rax
    7b62:	48 c1 e8 03          	shr    $0x3,%rax
    7b66:	0f b6 80 00 80 ff 7f 	movzbl 0x7fff8000(%rax),%eax
    7b6d:	84 c0                	test   %al,%al
    7b6f:	74 08                	je     7b79 <barriered_reset+0x29>
    7b71:	3c 03                	cmp    $0x3,%al
    7b73:	0f 8e 6b 01 00 00    	jle    7ce4 <barriered_reset+0x194>
    7b79:	48 63 97 48 01 00 00 	movslq 0x148(%rdi),%rdx
    7b80:	85 d2                	test   %edx,%edx
    7b82:	0f 8e 52 01 00 00    	jle    7cda <barriered_reset+0x18a>
      data->thread->threads[data->thread_index]->tasks[x].arrived++; 
    7b88:	48 8d 87 28 01 00 00 	lea    0x128(%rdi),%rax
    7b8f:	48 89 c1             	mov    %rax,%rcx
    7b92:	48 c1 e9 03          	shr    $0x3,%rcx
    7b96:	80 b9 00 80 ff 7f 00 	cmpb   $0x0,0x7fff8000(%rcx)
    7b9d:	0f 85 6e 01 00 00    	jne    7d11 <barriered_reset+0x1c1>
    7ba3:	48 8b 87 28 01 00 00 	mov    0x128(%rdi),%rax
    7baa:	48 8d 48 18          	lea    0x18(%rax),%rcx
    7bae:	48 89 ce             	mov    %rcx,%rsi
    7bb1:	48 c1 ee 03          	shr    $0x3,%rsi
    7bb5:	80 be 00 80 ff 7f 00 	cmpb   $0x0,0x7fff8000(%rsi)
    7bbc:	0f 85 3f 01 00 00    	jne    7d01 <barriered_reset+0x1b1>
    7bc2:	48 8d b7 30 01 00 00 	lea    0x130(%rdi),%rsi
    7bc9:	4c 8b 40 18          	mov    0x18(%rax),%r8
    7bcd:	48 89 f1             	mov    %rsi,%rcx
    7bd0:	48 c1 e9 03          	shr    $0x3,%rcx
    7bd4:	0f b6 89 00 80 ff 7f 	movzbl 0x7fff8000(%rcx),%ecx
    7bdb:	84 c9                	test   %cl,%cl
    7bdd:	74 09                	je     7be8 <barriered_reset+0x98>
    7bdf:	80 f9 03             	cmp    $0x3,%cl
    7be2:	0f 8e 21 01 00 00    	jle    7d09 <barriered_reset+0x1b9>
    7be8:	48 63 8f 30 01 00 00 	movslq 0x130(%rdi),%rcx
    7bef:	49 8d 3c c8          	lea    (%r8,%rcx,8),%rdi
    7bf3:	48 89 f9             	mov    %rdi,%rcx
    7bf6:	48 c1 e9 03          	shr    $0x3,%rcx
    7bfa:	80 b9 00 80 ff 7f 00 	cmpb   $0x0,0x7fff8000(%rcx)
    7c01:	0f 85 17 01 00 00    	jne    7d1e <barriered_reset+0x1ce>
    7c07:	48 8b 0f             	mov    (%rdi),%rcx
    7c0a:	48 8d 79 38          	lea    0x38(%rcx),%rdi
    7c0e:	48 89 fe             	mov    %rdi,%rsi
    7c11:	48 c1 ee 03          	shr    $0x3,%rsi
    7c15:	80 be 00 80 ff 7f 00 	cmpb   $0x0,0x7fff8000(%rsi)
    7c1c:	0f 85 f7 00 00 00    	jne    7d19 <barriered_reset+0x1c9>
      data->thread->tasks[x].available = 1; 
    7c22:	48 8d 78 38          	lea    0x38(%rax),%rdi
      data->thread->threads[data->thread_index]->tasks[x].arrived++; 
    7c26:	48 8b 49 38          	mov    0x38(%rcx),%rcx
      data->thread->tasks[x].available = 1; 
    7c2a:	48 89 fe             	mov    %rdi,%rsi
    7c2d:	48 c1 ee 03          	shr    $0x3,%rsi
    7c31:	80 be 00 80 ff 7f 00 	cmpb   $0x0,0x7fff8000(%rsi)
    7c38:	0f 85 e5 00 00 00    	jne    7d23 <barriered_reset+0x1d3>
    7c3e:	48 8b 40 38          	mov    0x38(%rax),%rax
    7c42:	48 c1 e2 09          	shl    $0x9,%rdx
    7c46:	48 8d b9 80 00 00 00 	lea    0x80(%rcx),%rdi
    7c4d:	48 8d b4 11 80 00 00 00 	lea    0x80(%rcx,%rdx,1),%rsi
    7c55:	48 05 44 01 00 00    	add    $0x144,%rax
    7c5b:	0f 1f 44 00 00       	nopl   0x0(%rax,%rax,1)
      data->thread->threads[data->thread_index]->tasks[x].arrived++; 
    7c60:	48 89 fa             	mov    %rdi,%rdx
    7c63:	48 c1 ea 03          	shr    $0x3,%rdx
    7c67:	0f b6 92 00 80 ff 7f 	movzbl 0x7fff8000(%rdx),%edx
    7c6e:	84 d2                	test   %dl,%dl
    7c70:	74 09                	je     7c7b <barriered_reset+0x12b>
    7c72:	80 fa 03             	cmp    $0x3,%dl
    7c75:	0f 8e 81 00 00 00    	jle    7cfc <barriered_reset+0x1ac>
      data->thread->threads[data->thread_index]->tasks[x].prearrive++; 
    7c7b:	48 8d 8f 80 00 00 00 	lea    0x80(%rdi),%rcx
      data->thread->threads[data->thread_index]->tasks[x].arrived++; 
    7c82:	83 07 01             	addl   $0x1,(%rdi)
      data->thread->threads[data->thread_index]->tasks[x].prearrive++; 
    7c85:	48 89 ca             	mov    %rcx,%rdx
    7c88:	48 c1 ea 03          	shr    $0x3,%rdx
    7c8c:	0f b6 92 00 80 ff 7f 	movzbl 0x7fff8000(%rdx),%edx
    7c93:	84 d2                	test   %dl,%dl
    7c95:	74 05                	je     7c9c <barriered_reset+0x14c>
    7c97:	80 fa 03             	cmp    $0x3,%dl
    7c9a:	7e 58                	jle    7cf4 <barriered_reset+0x1a4>
      data->thread->tasks[x].available = 1; 
    7c9c:	48 89 c2             	mov    %rax,%rdx
      data->thread->threads[data->thread_index]->tasks[x].prearrive++; 
    7c9f:	83 87 80 00 00 00 01 	addl   $0x1,0x80(%rdi)
      data->thread->tasks[x].available = 1; 
    7ca6:	48 c1 ea 03          	shr    $0x3,%rdx
    7caa:	0f b6 8a 00 80 ff 7f 	movzbl 0x7fff8000(%rdx),%ecx
    7cb1:	48 89 c2             	mov    %rax,%rdx
    7cb4:	83 e2 07             	and    $0x7,%edx
    7cb7:	83 c2 03             	add    $0x3,%edx
    7cba:	38 ca                	cmp    %cl,%dl
    7cbc:	7c 04                	jl     7cc2 <barriered_reset+0x172>
    7cbe:	84 c9                	test   %cl,%cl
    7cc0:	75 2a                	jne    7cec <barriered_reset+0x19c>
    for (int x = 0 ; x < data->task_count ; x++) {
    7cc2:	48 81 c7 00 02 00 00 	add    $0x200,%rdi
      data->thread->tasks[x].available = 1; 
    7cc9:	c7 00 01 00 00 00    	movl   $0x1,(%rax)
    for (int x = 0 ; x < data->task_count ; x++) {
    7ccf:	48 05 00 02 00 00    	add    $0x200,%rax
    7cd5:	48 39 f7             	cmp    %rsi,%rdi
    7cd8:	75 86                	jne    7c60 <barriered_reset+0x110>
  asm volatile ("sfence" ::: "memory");
    7cda:	0f ae f8             	sfence
}
    7cdd:	31 c0                	xor    %eax,%eax
    7cdf:	48 83 c4 08          	add    $0x8,%rsp
    7ce3:	c3                   	ret
    for (int x = 0 ; x < data->task_count ; x++) {
    7ce4:	48 89 d7             	mov    %rdx,%rdi
    7ce7:	e8 64 c8 ff ff       	call   4550 <__asan_report_load4@plt>
      data->thread->tasks[x].available = 1; 
    7cec:	48 89 c7             	mov    %rax,%rdi
    7cef:	e8 cc c9 ff ff       	call   46c0 <__asan_report_store4@plt>
      data->thread->threads[data->thread_index]->tasks[x].prearrive++; 
    7cf4:	48 89 cf             	mov    %rcx,%rdi
    7cf7:	e8 54 c8 ff ff       	call   4550 <__asan_report_load4@plt>
      data->thread->threads[data->thread_index]->tasks[x].arrived++; 
    7cfc:	e8 4f c8 ff ff       	call   4550 <__asan_report_load4@plt>
    7d01:	48 89 cf             	mov    %rcx,%rdi
    7d04:	e8 d7 c7 ff ff       	call   44e0 <__asan_report_load8@plt>
    7d09:	48 89 f7             	mov    %rsi,%rdi
    7d0c:	e8 3f c8 ff ff       	call   4550 <__asan_report_load4@plt>
    7d11:	48 89 c7             	mov    %rax,%rdi
    7d14:	e8 c7 c7 ff ff       	call   44e0 <__asan_report_load8@plt>
    7d19:	e8 c2 c7 ff ff       	call   44e0 <__asan_report_load8@plt>
    7d1e:	e8 bd c7 ff ff       	call   44e0 <__asan_report_load8@plt>
      data->thread->tasks[x].available = 1; 
    7d23:	e8 b8 c7 ff ff       	call   44e0 <__asan_report_load8@plt>
    7d28:	0f 1f 84 00 00 00 00 00 	nopl   0x0(%rax,%rax,1)

0000000000007d30 <external_thread>:
void * external_thread(void *arg) {
    7d30:	f3 0f 1e fa          	endbr64
    7d34:	41 57                	push   %r15
    7d36:	41 56                	push   %r14
    7d38:	49 89 fe             	mov    %rdi,%r14
  while (data->running == 1) {
    7d3b:	48 83 c7 44          	add    $0x44,%rdi
void * external_thread(void *arg) {
    7d3f:	41 55                	push   %r13
  while (data->running == 1) {
    7d41:	48 89 f8             	mov    %rdi,%rax
void * external_thread(void *arg) {
    7d44:	41 54                	push   %r12
  while (data->running == 1) {
    7d46:	48 c1 e8 03          	shr    $0x3,%rax
void * external_thread(void *arg) {
    7d4a:	55                   	push   %rbp
    7d4b:	53                   	push   %rbx
    7d4c:	48 83 ec 08          	sub    $0x8,%rsp
  while (data->running == 1) {
    7d50:	0f b6 90 00 80 ff 7f 	movzbl 0x7fff8000(%rax),%edx
    7d57:	48 89 f8             	mov    %rdi,%rax
    7d5a:	83 e0 07             	and    $0x7,%eax
    7d5d:	83 c0 03             	add    $0x3,%eax
    7d60:	38 d0                	cmp    %dl,%al
    7d62:	7c 08                	jl     7d6c <external_thread+0x3c>
    7d64:	84 d2                	test   %dl,%dl
    7d66:	0f 85 4d 03 00 00    	jne    80b9 <external_thread+0x389>
    7d6c:	41 83 7e 44 01       	cmpl   $0x1,0x44(%r14)
    7d71:	0f 85 27 01 00 00    	jne    7e9e <external_thread+0x16e>
    for (int b = 0; b < data->buffers_count; b++) {
    7d77:	49 8d be bc 00 00 00 	lea    0xbc(%r14),%rdi
    7d7e:	48 89 f8             	mov    %rdi,%rax
    7d81:	48 c1 e8 03          	shr    $0x3,%rax
    7d85:	0f b6 90 00 80 ff 7f 	movzbl 0x7fff8000(%rax),%edx
    7d8c:	48 89 f8             	mov    %rdi,%rax
    7d8f:	83 e0 07             	and    $0x7,%eax
    7d92:	83 c0 03             	add    $0x3,%eax
    7d95:	38 d0                	cmp    %dl,%al
    7d97:	7c 08                	jl     7da1 <external_thread+0x71>
    7d99:	84 d2                	test   %dl,%dl
    7d9b:	0f 85 0b 03 00 00    	jne    80ac <external_thread+0x37c>
    7da1:	41 8b b6 bc 00 00 00 	mov    0xbc(%r14),%esi
    7da8:	4d 8d 6e 50          	lea    0x50(%r14),%r13
    7dac:	0f 1f 40 00          	nopl   0x0(%rax)
    7db0:	85 f6                	test   %esi,%esi
    7db2:	0f 8e f7 00 00 00    	jle    7eaf <external_thread+0x17f>
      for (int x = 0; x < data->buffers[b]->count; x++) {
    7db8:	4c 89 e8             	mov    %r13,%rax
    7dbb:	48 c1 e8 03          	shr    $0x3,%rax
    7dbf:	80 b8 00 80 ff 7f 00 	cmpb   $0x0,0x7fff8000(%rax)
    7dc6:	0f 85 e5 02 00 00    	jne    80b1 <external_thread+0x381>
    7dcc:	4d 8b 5e 50          	mov    0x50(%r14),%r11
    7dd0:	45 31 e4             	xor    %r12d,%r12d
    7dd3:	0f 1f 44 00 00       	nopl   0x0(%rax,%rax,1)
    7dd8:	4e 8d 3c e5 00 00 00 00 	lea    0x0(,%r12,8),%r15
    7de0:	4b 8d 0c 3b          	lea    (%r11,%r15,1),%rcx
    7de4:	48 89 c8             	mov    %rcx,%rax
    7de7:	48 c1 e8 03          	shr    $0x3,%rax
    7deb:	80 b8 00 80 ff 7f 00 	cmpb   $0x0,0x7fff8000(%rax)
    7df2:	0f 85 ac 02 00 00    	jne    80a4 <external_thread+0x374>
    7df8:	48 8b 01             	mov    (%rcx),%rax
    7dfb:	48 89 c2             	mov    %rax,%rdx
    7dfe:	48 c1 ea 03          	shr    $0x3,%rdx
    7e02:	0f b6 92 00 80 ff 7f 	movzbl 0x7fff8000(%rdx),%edx
    7e09:	84 d2                	test   %dl,%dl
    7e0b:	74 09                	je     7e16 <external_thread+0xe6>
    7e0d:	80 fa 03             	cmp    $0x3,%dl
    7e10:	0f 8e 86 02 00 00    	jle    809c <external_thread+0x36c>
    7e16:	44 8b 08             	mov    (%rax),%r9d
    7e19:	31 db                	xor    %ebx,%ebx
    7e1b:	4c 8d 50 08          	lea    0x8(%rax),%r10
    7e1f:	45 85 c9             	test   %r9d,%r9d
    7e22:	7e 62                	jle    7e86 <external_thread+0x156>
    7e24:	0f 1f 40 00          	nopl   0x0(%rax)
				if (data->buffers[b]->buffer[x].available == 0) {
    7e28:	4c 89 d2             	mov    %r10,%rdx
    7e2b:	48 c1 ea 03          	shr    $0x3,%rdx
    7e2f:	80 ba 00 80 ff 7f 00 	cmpb   $0x0,0x7fff8000(%rdx)
    7e36:	0f 85 0d 02 00 00    	jne    8049 <external_thread+0x319>
    7e3c:	48 8b 78 08          	mov    0x8(%rax),%rdi
    7e40:	48 89 dd             	mov    %rbx,%rbp
    7e43:	48 c1 e5 08          	shl    $0x8,%rbp
    7e47:	48 01 ef             	add    %rbp,%rdi
    7e4a:	48 8d b7 80 00 00 00 	lea    0x80(%rdi),%rsi
    7e51:	48 89 f2             	mov    %rsi,%rdx
    7e54:	48 c1 ea 03          	shr    $0x3,%rdx
    7e58:	0f b6 92 00 80 ff 7f 	movzbl 0x7fff8000(%rdx),%edx
    7e5f:	84 d2                	test   %dl,%dl
    7e61:	74 09                	je     7e6c <external_thread+0x13c>
    7e63:	80 fa 03             	cmp    $0x3,%dl
    7e66:	0f 8e e5 01 00 00    	jle    8051 <external_thread+0x321>
    7e6c:	8b 97 80 00 00 00    	mov    0x80(%rdi),%edx
    7e72:	85 d2                	test   %edx,%edx
    7e74:	74 42                	je     7eb8 <external_thread+0x188>
      for (int x = 0; x < data->buffers[b]->count; x++) {
    7e76:	48 83 c3 01          	add    $0x1,%rbx
    7e7a:	41 39 d9             	cmp    %ebx,%r9d
    7e7d:	7f a9                	jg     7e28 <external_thread+0xf8>
    for (int b = 0; b < data->buffers_count; b++) {
    7e7f:	41 8b b6 bc 00 00 00 	mov    0xbc(%r14),%esi
    7e86:	49 83 c4 01          	add    $0x1,%r12
    7e8a:	44 39 e6             	cmp    %r12d,%esi
    7e8d:	0f 8f 45 ff ff ff    	jg     7dd8 <external_thread+0xa8>
  while (data->running == 1) {
    7e93:	41 83 7e 44 01       	cmpl   $0x1,0x44(%r14)
    7e98:	0f 84 12 ff ff ff    	je     7db0 <external_thread+0x80>
}
    7e9e:	48 83 c4 08          	add    $0x8,%rsp
    7ea2:	31 c0                	xor    %eax,%eax
    7ea4:	5b                   	pop    %rbx
    7ea5:	5d                   	pop    %rbp
    7ea6:	41 5c                	pop    %r12
    7ea8:	41 5d                	pop    %r13
    7eaa:	41 5e                	pop    %r14
    7eac:	41 5f                	pop    %r15
    7eae:	c3                   	ret
  while (data->running == 1) {
    7eaf:	eb fe                	jmp    7eaf <external_thread+0x17f>
    7eb1:	0f 1f 80 00 00 00 00 	nopl   0x0(%rax)
					data->buffers[b]->buffer[x].data = "Hello world";
    7eb8:	48 89 f8             	mov    %rdi,%rax
    7ebb:	48 c1 e8 03          	shr    $0x3,%rax
    7ebf:	80 b8 00 80 ff 7f 00 	cmpb   $0x0,0x7fff8000(%rax)
    7ec6:	0f 85 cb 01 00 00    	jne    8097 <external_thread+0x367>
    7ecc:	48 8d 05 4d 81 00 00 	lea    0x814d(%rip),%rax        # 10020 <_IO_stdin_used+0x20>
    7ed3:	48 89 07             	mov    %rax,(%rdi)
					clock_gettime(CLOCK_MONOTONIC_RAW, &data->buffers[b]->buffer[x].snapshots[data->buffers[b]->buffer[x].ingest_snapshot].start);
    7ed6:	48 89 c8             	mov    %rcx,%rax
    7ed9:	48 c1 e8 03          	shr    $0x3,%rax
    7edd:	80 b8 00 80 ff 7f 00 	cmpb   $0x0,0x7fff8000(%rax)
    7ee4:	0f 85 a0 01 00 00    	jne    808a <external_thread+0x35a>
    7eea:	48 8b 01             	mov    (%rcx),%rax
    7eed:	48 8d 78 08          	lea    0x8(%rax),%rdi
    7ef1:	48 89 fa             	mov    %rdi,%rdx
    7ef4:	48 c1 ea 03          	shr    $0x3,%rdx
    7ef8:	80 ba 00 80 ff 7f 00 	cmpb   $0x0,0x7fff8000(%rdx)
    7eff:	0f 85 8d 01 00 00    	jne    8092 <external_thread+0x362>
    7f05:	48 8b 48 08          	mov    0x8(%rax),%rcx
    7f09:	48 01 e9             	add    %rbp,%rcx
    7f0c:	48 8d b9 88 00 00 00 	lea    0x88(%rcx),%rdi
    7f13:	48 89 c8             	mov    %rcx,%rax
    7f16:	48 89 fa             	mov    %rdi,%rdx
    7f19:	48 c1 ea 03          	shr    $0x3,%rdx
    7f1d:	80 ba 00 80 ff 7f 00 	cmpb   $0x0,0x7fff8000(%rdx)
    7f24:	0f 85 2f 01 00 00    	jne    8059 <external_thread+0x329>
    7f2a:	48 8d b9 94 00 00 00 	lea    0x94(%rcx),%rdi
    7f31:	48 8b b1 88 00 00 00 	mov    0x88(%rcx),%rsi
    7f38:	48 89 fa             	mov    %rdi,%rdx
    7f3b:	48 c1 ea 03          	shr    $0x3,%rdx
    7f3f:	0f b6 8a 00 80 ff 7f 	movzbl 0x7fff8000(%rdx),%ecx
    7f46:	48 89 fa             	mov    %rdi,%rdx
    7f49:	83 e2 07             	and    $0x7,%edx
    7f4c:	83 c2 03             	add    $0x3,%edx
    7f4f:	38 ca                	cmp    %cl,%dl
    7f51:	7c 08                	jl     7f5b <external_thread+0x22b>
    7f53:	84 c9                	test   %cl,%cl
    7f55:	0f 85 03 01 00 00    	jne    805e <external_thread+0x32e>
    7f5b:	48 63 80 94 00 00 00 	movslq 0x94(%rax),%rax
    7f62:	bf 04 00 00 00       	mov    $0x4,%edi
    7f67:	48 c1 e0 05          	shl    $0x5,%rax
    7f6b:	48 01 c6             	add    %rax,%rsi
    7f6e:	e8 0d c5 ff ff       	call   4480 <clock_gettime@plt>
					data->buffers[b]->buffer[x].available = 1;
    7f73:	4c 89 e8             	mov    %r13,%rax
    7f76:	48 c1 e8 03          	shr    $0x3,%rax
    7f7a:	80 b8 00 80 ff 7f 00 	cmpb   $0x0,0x7fff8000(%rax)
    7f81:	0f 85 dc 00 00 00    	jne    8063 <external_thread+0x333>
    7f87:	49 8b 7e 50          	mov    0x50(%r14),%rdi
    7f8b:	4c 01 ff             	add    %r15,%rdi
    7f8e:	48 89 f8             	mov    %rdi,%rax
    7f91:	48 c1 e8 03          	shr    $0x3,%rax
    7f95:	80 b8 00 80 ff 7f 00 	cmpb   $0x0,0x7fff8000(%rax)
    7f9c:	0f 85 c9 00 00 00    	jne    806b <external_thread+0x33b>
    7fa2:	48 8b 07             	mov    (%rdi),%rax
    7fa5:	48 8d 78 08          	lea    0x8(%rax),%rdi
    7fa9:	48 89 fa             	mov    %rdi,%rdx
    7fac:	48 c1 ea 03          	shr    $0x3,%rdx
    7fb0:	80 ba 00 80 ff 7f 00 	cmpb   $0x0,0x7fff8000(%rdx)
    7fb7:	0f 85 b3 00 00 00    	jne    8070 <external_thread+0x340>
    7fbd:	48 03 68 08          	add    0x8(%rax),%rbp
    7fc1:	48 8d bd 80 00 00 00 	lea    0x80(%rbp),%rdi
    7fc8:	48 89 f8             	mov    %rdi,%rax
    7fcb:	48 c1 e8 03          	shr    $0x3,%rax
    7fcf:	0f b6 80 00 80 ff 7f 	movzbl 0x7fff8000(%rax),%eax
    7fd6:	84 c0                	test   %al,%al
    7fd8:	74 08                	je     7fe2 <external_thread+0x2b2>
    7fda:	3c 03                	cmp    $0x3,%al
    7fdc:	0f 8e 93 00 00 00    	jle    8075 <external_thread+0x345>
    7fe2:	c7 85 80 00 00 00 01 00 00 00 	movl   $0x1,0x80(%rbp)
          asm volatile ("sfence" ::: "memory");
    7fec:	0f ae f8             	sfence
      for (int x = 0; x < data->buffers[b]->count; x++) {
    7fef:	4d 8b 5e 50          	mov    0x50(%r14),%r11
    7ff3:	4b 8d 0c 3b          	lea    (%r11,%r15,1),%rcx
    7ff7:	48 89 c8             	mov    %rcx,%rax
    7ffa:	48 c1 e8 03          	shr    $0x3,%rax
    7ffe:	80 b8 00 80 ff 7f 00 	cmpb   $0x0,0x7fff8000(%rax)
    8005:	75 73                	jne    807a <external_thread+0x34a>
    8007:	48 8b 01             	mov    (%rcx),%rax
    800a:	48 89 c2             	mov    %rax,%rdx
    800d:	48 c1 ea 03          	shr    $0x3,%rdx
    8011:	0f b6 92 00 80 ff 7f 	movzbl 0x7fff8000(%rdx),%edx
    8018:	84 d2                	test   %dl,%dl
    801a:	74 05                	je     8021 <external_thread+0x2f1>
    801c:	80 fa 03             	cmp    $0x3,%dl
    801f:	7e 61                	jle    8082 <external_thread+0x352>
    8021:	44 8b 08             	mov    (%rax),%r9d
    8024:	48 83 c3 01          	add    $0x1,%rbx
