
multibarrier-split-io:     file format elf64-x86-64


Disassembly of section .init:

0000000000002000 <_init>:
    2000:	f3 0f 1e fa          	endbr64
    2004:	48 83 ec 08          	sub    $0x8,%rsp
    2008:	48 8b 05 d9 9f 00 00 	mov    0x9fd9(%rip),%rax        # bfe8 <__gmon_start__@Base>
    200f:	48 85 c0             	test   %rax,%rax
    2012:	74 02                	je     2016 <_init+0x16>
    2014:	ff d0                	call   *%rax
    2016:	48 83 c4 08          	add    $0x8,%rsp
    201a:	c3                   	ret

Disassembly of section .plt:

0000000000002020 <.plt>:
    2020:	ff 35 3a 9e 00 00    	push   0x9e3a(%rip)        # be60 <_GLOBAL_OFFSET_TABLE_+0x8>
    2026:	ff 25 3c 9e 00 00    	jmp    *0x9e3c(%rip)        # be68 <_GLOBAL_OFFSET_TABLE_+0x10>
    202c:	0f 1f 40 00          	nopl   0x0(%rax)
    2030:	f3 0f 1e fa          	endbr64
    2034:	68 00 00 00 00       	push   $0x0
    2039:	e9 e2 ff ff ff       	jmp    2020 <_init+0x20>
    203e:	66 90                	xchg   %ax,%ax
    2040:	f3 0f 1e fa          	endbr64
    2044:	68 01 00 00 00       	push   $0x1
    2049:	e9 d2 ff ff ff       	jmp    2020 <_init+0x20>
    204e:	66 90                	xchg   %ax,%ax
    2050:	f3 0f 1e fa          	endbr64
    2054:	68 02 00 00 00       	push   $0x2
    2059:	e9 c2 ff ff ff       	jmp    2020 <_init+0x20>
    205e:	66 90                	xchg   %ax,%ax
    2060:	f3 0f 1e fa          	endbr64
    2064:	68 03 00 00 00       	push   $0x3
    2069:	e9 b2 ff ff ff       	jmp    2020 <_init+0x20>
    206e:	66 90                	xchg   %ax,%ax
    2070:	f3 0f 1e fa          	endbr64
    2074:	68 04 00 00 00       	push   $0x4
    2079:	e9 a2 ff ff ff       	jmp    2020 <_init+0x20>
    207e:	66 90                	xchg   %ax,%ax
    2080:	f3 0f 1e fa          	endbr64
    2084:	68 05 00 00 00       	push   $0x5
    2089:	e9 92 ff ff ff       	jmp    2020 <_init+0x20>
    208e:	66 90                	xchg   %ax,%ax
    2090:	f3 0f 1e fa          	endbr64
    2094:	68 06 00 00 00       	push   $0x6
    2099:	e9 82 ff ff ff       	jmp    2020 <_init+0x20>
    209e:	66 90                	xchg   %ax,%ax
    20a0:	f3 0f 1e fa          	endbr64
    20a4:	68 07 00 00 00       	push   $0x7
    20a9:	e9 72 ff ff ff       	jmp    2020 <_init+0x20>
    20ae:	66 90                	xchg   %ax,%ax
    20b0:	f3 0f 1e fa          	endbr64
    20b4:	68 08 00 00 00       	push   $0x8
    20b9:	e9 62 ff ff ff       	jmp    2020 <_init+0x20>
    20be:	66 90                	xchg   %ax,%ax
    20c0:	f3 0f 1e fa          	endbr64
    20c4:	68 09 00 00 00       	push   $0x9
    20c9:	e9 52 ff ff ff       	jmp    2020 <_init+0x20>
    20ce:	66 90                	xchg   %ax,%ax
    20d0:	f3 0f 1e fa          	endbr64
    20d4:	68 0a 00 00 00       	push   $0xa
    20d9:	e9 42 ff ff ff       	jmp    2020 <_init+0x20>
    20de:	66 90                	xchg   %ax,%ax
    20e0:	f3 0f 1e fa          	endbr64
    20e4:	68 0b 00 00 00       	push   $0xb
    20e9:	e9 32 ff ff ff       	jmp    2020 <_init+0x20>
    20ee:	66 90                	xchg   %ax,%ax
    20f0:	f3 0f 1e fa          	endbr64
    20f4:	68 0c 00 00 00       	push   $0xc
    20f9:	e9 22 ff ff ff       	jmp    2020 <_init+0x20>
    20fe:	66 90                	xchg   %ax,%ax
    2100:	f3 0f 1e fa          	endbr64
    2104:	68 0d 00 00 00       	push   $0xd
    2109:	e9 12 ff ff ff       	jmp    2020 <_init+0x20>
    210e:	66 90                	xchg   %ax,%ax
    2110:	f3 0f 1e fa          	endbr64
    2114:	68 0e 00 00 00       	push   $0xe
    2119:	e9 02 ff ff ff       	jmp    2020 <_init+0x20>
    211e:	66 90                	xchg   %ax,%ax
    2120:	f3 0f 1e fa          	endbr64
    2124:	68 0f 00 00 00       	push   $0xf
    2129:	e9 f2 fe ff ff       	jmp    2020 <_init+0x20>
    212e:	66 90                	xchg   %ax,%ax
    2130:	f3 0f 1e fa          	endbr64
    2134:	68 10 00 00 00       	push   $0x10
    2139:	e9 e2 fe ff ff       	jmp    2020 <_init+0x20>
    213e:	66 90                	xchg   %ax,%ax
    2140:	f3 0f 1e fa          	endbr64
    2144:	68 11 00 00 00       	push   $0x11
    2149:	e9 d2 fe ff ff       	jmp    2020 <_init+0x20>
    214e:	66 90                	xchg   %ax,%ax
    2150:	f3 0f 1e fa          	endbr64
    2154:	68 12 00 00 00       	push   $0x12
    2159:	e9 c2 fe ff ff       	jmp    2020 <_init+0x20>
    215e:	66 90                	xchg   %ax,%ax
    2160:	f3 0f 1e fa          	endbr64
    2164:	68 13 00 00 00       	push   $0x13
    2169:	e9 b2 fe ff ff       	jmp    2020 <_init+0x20>
    216e:	66 90                	xchg   %ax,%ax
    2170:	f3 0f 1e fa          	endbr64
    2174:	68 14 00 00 00       	push   $0x14
    2179:	e9 a2 fe ff ff       	jmp    2020 <_init+0x20>
    217e:	66 90                	xchg   %ax,%ax
    2180:	f3 0f 1e fa          	endbr64
    2184:	68 15 00 00 00       	push   $0x15
    2189:	e9 92 fe ff ff       	jmp    2020 <_init+0x20>
    218e:	66 90                	xchg   %ax,%ax
    2190:	f3 0f 1e fa          	endbr64
    2194:	68 16 00 00 00       	push   $0x16
    2199:	e9 82 fe ff ff       	jmp    2020 <_init+0x20>
    219e:	66 90                	xchg   %ax,%ax
    21a0:	f3 0f 1e fa          	endbr64
    21a4:	68 17 00 00 00       	push   $0x17
    21a9:	e9 72 fe ff ff       	jmp    2020 <_init+0x20>
    21ae:	66 90                	xchg   %ax,%ax
    21b0:	f3 0f 1e fa          	endbr64
    21b4:	68 18 00 00 00       	push   $0x18
    21b9:	e9 62 fe ff ff       	jmp    2020 <_init+0x20>
    21be:	66 90                	xchg   %ax,%ax
    21c0:	f3 0f 1e fa          	endbr64
    21c4:	68 19 00 00 00       	push   $0x19
    21c9:	e9 52 fe ff ff       	jmp    2020 <_init+0x20>
    21ce:	66 90                	xchg   %ax,%ax
    21d0:	f3 0f 1e fa          	endbr64
    21d4:	68 1a 00 00 00       	push   $0x1a
    21d9:	e9 42 fe ff ff       	jmp    2020 <_init+0x20>
    21de:	66 90                	xchg   %ax,%ax
    21e0:	f3 0f 1e fa          	endbr64
    21e4:	68 1b 00 00 00       	push   $0x1b
    21e9:	e9 32 fe ff ff       	jmp    2020 <_init+0x20>
    21ee:	66 90                	xchg   %ax,%ax
    21f0:	f3 0f 1e fa          	endbr64
    21f4:	68 1c 00 00 00       	push   $0x1c
    21f9:	e9 22 fe ff ff       	jmp    2020 <_init+0x20>
    21fe:	66 90                	xchg   %ax,%ax
    2200:	f3 0f 1e fa          	endbr64
    2204:	68 1d 00 00 00       	push   $0x1d
    2209:	e9 12 fe ff ff       	jmp    2020 <_init+0x20>
    220e:	66 90                	xchg   %ax,%ax
    2210:	f3 0f 1e fa          	endbr64
    2214:	68 1e 00 00 00       	push   $0x1e
    2219:	e9 02 fe ff ff       	jmp    2020 <_init+0x20>
    221e:	66 90                	xchg   %ax,%ax
    2220:	f3 0f 1e fa          	endbr64
    2224:	68 1f 00 00 00       	push   $0x1f
    2229:	e9 f2 fd ff ff       	jmp    2020 <_init+0x20>
    222e:	66 90                	xchg   %ax,%ax
    2230:	f3 0f 1e fa          	endbr64
    2234:	68 20 00 00 00       	push   $0x20
    2239:	e9 e2 fd ff ff       	jmp    2020 <_init+0x20>
    223e:	66 90                	xchg   %ax,%ax
    2240:	f3 0f 1e fa          	endbr64
    2244:	68 21 00 00 00       	push   $0x21
    2249:	e9 d2 fd ff ff       	jmp    2020 <_init+0x20>
    224e:	66 90                	xchg   %ax,%ax
    2250:	f3 0f 1e fa          	endbr64
    2254:	68 22 00 00 00       	push   $0x22
    2259:	e9 c2 fd ff ff       	jmp    2020 <_init+0x20>
    225e:	66 90                	xchg   %ax,%ax
    2260:	f3 0f 1e fa          	endbr64
    2264:	68 23 00 00 00       	push   $0x23
    2269:	e9 b2 fd ff ff       	jmp    2020 <_init+0x20>
    226e:	66 90                	xchg   %ax,%ax
    2270:	f3 0f 1e fa          	endbr64
    2274:	68 24 00 00 00       	push   $0x24
    2279:	e9 a2 fd ff ff       	jmp    2020 <_init+0x20>
    227e:	66 90                	xchg   %ax,%ax
    2280:	f3 0f 1e fa          	endbr64
    2284:	68 25 00 00 00       	push   $0x25
    2289:	e9 92 fd ff ff       	jmp    2020 <_init+0x20>
    228e:	66 90                	xchg   %ax,%ax
    2290:	f3 0f 1e fa          	endbr64
    2294:	68 26 00 00 00       	push   $0x26
    2299:	e9 82 fd ff ff       	jmp    2020 <_init+0x20>
    229e:	66 90                	xchg   %ax,%ax
    22a0:	f3 0f 1e fa          	endbr64
    22a4:	68 27 00 00 00       	push   $0x27
    22a9:	e9 72 fd ff ff       	jmp    2020 <_init+0x20>
    22ae:	66 90                	xchg   %ax,%ax
    22b0:	f3 0f 1e fa          	endbr64
    22b4:	68 28 00 00 00       	push   $0x28
    22b9:	e9 62 fd ff ff       	jmp    2020 <_init+0x20>
    22be:	66 90                	xchg   %ax,%ax
    22c0:	f3 0f 1e fa          	endbr64
    22c4:	68 29 00 00 00       	push   $0x29
    22c9:	e9 52 fd ff ff       	jmp    2020 <_init+0x20>
    22ce:	66 90                	xchg   %ax,%ax
    22d0:	f3 0f 1e fa          	endbr64
    22d4:	68 2a 00 00 00       	push   $0x2a
    22d9:	e9 42 fd ff ff       	jmp    2020 <_init+0x20>
    22de:	66 90                	xchg   %ax,%ax
    22e0:	f3 0f 1e fa          	endbr64
    22e4:	68 2b 00 00 00       	push   $0x2b
    22e9:	e9 32 fd ff ff       	jmp    2020 <_init+0x20>
    22ee:	66 90                	xchg   %ax,%ax
    22f0:	f3 0f 1e fa          	endbr64
    22f4:	68 2c 00 00 00       	push   $0x2c
    22f9:	e9 22 fd ff ff       	jmp    2020 <_init+0x20>
    22fe:	66 90                	xchg   %ax,%ax

Disassembly of section .plt.got:

0000000000002300 <__cxa_finalize@plt>:
    2300:	f3 0f 1e fa          	endbr64
    2304:	ff 25 ee 9c 00 00    	jmp    *0x9cee(%rip)        # bff8 <__cxa_finalize@GLIBC_2.2.5>
    230a:	66 0f 1f 44 00 00    	nopw   0x0(%rax,%rax,1)

Disassembly of section .plt.sec:

0000000000002310 <free@plt>:
    2310:	f3 0f 1e fa          	endbr64
    2314:	ff 25 56 9b 00 00    	jmp    *0x9b56(%rip)        # be70 <free@GLIBC_2.2.5>
    231a:	66 0f 1f 44 00 00    	nopw   0x0(%rax,%rax,1)

0000000000002320 <putchar@plt>:
    2320:	f3 0f 1e fa          	endbr64
    2324:	ff 25 4e 9b 00 00    	jmp    *0x9b4e(%rip)        # be78 <putchar@GLIBC_2.2.5>
    232a:	66 0f 1f 44 00 00    	nopw   0x0(%rax,%rax,1)

0000000000002330 <pthread_setaffinity_np@plt>:
    2330:	f3 0f 1e fa          	endbr64
    2334:	ff 25 46 9b 00 00    	jmp    *0x9b46(%rip)        # be80 <pthread_setaffinity_np@GLIBC_2.34>
    233a:	66 0f 1f 44 00 00    	nopw   0x0(%rax,%rax,1)

0000000000002340 <puts@plt>:
    2340:	f3 0f 1e fa          	endbr64
    2344:	ff 25 3e 9b 00 00    	jmp    *0x9b3e(%rip)        # be88 <puts@GLIBC_2.2.5>
    234a:	66 0f 1f 44 00 00    	nopw   0x0(%rax,%rax,1)

0000000000002350 <setsockopt@plt>:
    2350:	f3 0f 1e fa          	endbr64
    2354:	ff 25 36 9b 00 00    	jmp    *0x9b36(%rip)        # be90 <setsockopt@GLIBC_2.2.5>
    235a:	66 0f 1f 44 00 00    	nopw   0x0(%rax,%rax,1)

0000000000002360 <clock_gettime@plt>:
    2360:	f3 0f 1e fa          	endbr64
    2364:	ff 25 2e 9b 00 00    	jmp    *0x9b2e(%rip)        # be98 <clock_gettime@GLIBC_2.17>
    236a:	66 0f 1f 44 00 00    	nopw   0x0(%rax,%rax,1)

0000000000002370 <fclose@plt>:
    2370:	f3 0f 1e fa          	endbr64
    2374:	ff 25 26 9b 00 00    	jmp    *0x9b26(%rip)        # bea0 <fclose@GLIBC_2.2.5>
    237a:	66 0f 1f 44 00 00    	nopw   0x0(%rax,%rax,1)

0000000000002380 <strlen@plt>:
    2380:	f3 0f 1e fa          	endbr64
    2384:	ff 25 1e 9b 00 00    	jmp    *0x9b1e(%rip)        # bea8 <strlen@GLIBC_2.2.5>
    238a:	66 0f 1f 44 00 00    	nopw   0x0(%rax,%rax,1)

0000000000002390 <__stack_chk_fail@plt>:
    2390:	f3 0f 1e fa          	endbr64
    2394:	ff 25 16 9b 00 00    	jmp    *0x9b16(%rip)        # beb0 <__stack_chk_fail@GLIBC_2.4>
    239a:	66 0f 1f 44 00 00    	nopw   0x0(%rax,%rax,1)

00000000000023a0 <io_uring_submit@plt>:
    23a0:	f3 0f 1e fa          	endbr64
    23a4:	ff 25 0e 9b 00 00    	jmp    *0x9b0e(%rip)        # beb8 <io_uring_submit@LIBURING_2.0>
    23aa:	66 0f 1f 44 00 00    	nopw   0x0(%rax,%rax,1)

00000000000023b0 <nanosleep@plt>:
    23b0:	f3 0f 1e fa          	endbr64
    23b4:	ff 25 06 9b 00 00    	jmp    *0x9b06(%rip)        # bec0 <nanosleep@GLIBC_2.2.5>
    23ba:	66 0f 1f 44 00 00    	nopw   0x0(%rax,%rax,1)

00000000000023c0 <strrchr@plt>:
    23c0:	f3 0f 1e fa          	endbr64
    23c4:	ff 25 fe 9a 00 00    	jmp    *0x9afe(%rip)        # bec8 <strrchr@GLIBC_2.2.5>
    23ca:	66 0f 1f 44 00 00    	nopw   0x0(%rax,%rax,1)

00000000000023d0 <fputs@plt>:
    23d0:	f3 0f 1e fa          	endbr64
    23d4:	ff 25 f6 9a 00 00    	jmp    *0x9af6(%rip)        # bed0 <fputs@GLIBC_2.2.5>
    23da:	66 0f 1f 44 00 00    	nopw   0x0(%rax,%rax,1)

00000000000023e0 <close@plt>:
    23e0:	f3 0f 1e fa          	endbr64
    23e4:	ff 25 ee 9a 00 00    	jmp    *0x9aee(%rip)        # bed8 <close@GLIBC_2.2.5>
    23ea:	66 0f 1f 44 00 00    	nopw   0x0(%rax,%rax,1)

00000000000023f0 <strtok_r@plt>:
    23f0:	f3 0f 1e fa          	endbr64
    23f4:	ff 25 e6 9a 00 00    	jmp    *0x9ae6(%rip)        # bee0 <strtok_r@GLIBC_2.2.5>
    23fa:	66 0f 1f 44 00 00    	nopw   0x0(%rax,%rax,1)

0000000000002400 <read@plt>:
    2400:	f3 0f 1e fa          	endbr64
    2404:	ff 25 de 9a 00 00    	jmp    *0x9ade(%rip)        # bee8 <read@GLIBC_2.2.5>
    240a:	66 0f 1f 44 00 00    	nopw   0x0(%rax,%rax,1)

0000000000002410 <calloc@plt>:
    2410:	f3 0f 1e fa          	endbr64
    2414:	ff 25 d6 9a 00 00    	jmp    *0x9ad6(%rip)        # bef0 <calloc@GLIBC_2.2.5>
    241a:	66 0f 1f 44 00 00    	nopw   0x0(%rax,%rax,1)

0000000000002420 <strcmp@plt>:
    2420:	f3 0f 1e fa          	endbr64
    2424:	ff 25 ce 9a 00 00    	jmp    *0x9ace(%rip)        # bef8 <strcmp@GLIBC_2.2.5>
    242a:	66 0f 1f 44 00 00    	nopw   0x0(%rax,%rax,1)

0000000000002430 <__memcpy_chk@plt>:
    2430:	f3 0f 1e fa          	endbr64
    2434:	ff 25 c6 9a 00 00    	jmp    *0x9ac6(%rip)        # bf00 <__memcpy_chk@GLIBC_2.3.4>
    243a:	66 0f 1f 44 00 00    	nopw   0x0(%rax,%rax,1)

0000000000002440 <stat@plt>:
    2440:	f3 0f 1e fa          	endbr64
    2444:	ff 25 be 9a 00 00    	jmp    *0x9abe(%rip)        # bf08 <stat@GLIBC_2.33>
    244a:	66 0f 1f 44 00 00    	nopw   0x0(%rax,%rax,1)

0000000000002450 <memcpy@plt>:
    2450:	f3 0f 1e fa          	endbr64
    2454:	ff 25 b6 9a 00 00    	jmp    *0x9ab6(%rip)        # bf10 <memcpy@GLIBC_2.14>
    245a:	66 0f 1f 44 00 00    	nopw   0x0(%rax,%rax,1)

0000000000002460 <io_uring_queue_init@plt>:
    2460:	f3 0f 1e fa          	endbr64
    2464:	ff 25 ae 9a 00 00    	jmp    *0x9aae(%rip)        # bf18 <io_uring_queue_init@LIBURING_2.0>
    246a:	66 0f 1f 44 00 00    	nopw   0x0(%rax,%rax,1)

0000000000002470 <eventfd_write@plt>:
    2470:	f3 0f 1e fa          	endbr64
    2474:	ff 25 a6 9a 00 00    	jmp    *0x9aa6(%rip)        # bf20 <eventfd_write@GLIBC_2.7>
    247a:	66 0f 1f 44 00 00    	nopw   0x0(%rax,%rax,1)

0000000000002480 <malloc@plt>:
    2480:	f3 0f 1e fa          	endbr64
    2484:	ff 25 9e 9a 00 00    	jmp    *0x9a9e(%rip)        # bf28 <malloc@GLIBC_2.2.5>
    248a:	66 0f 1f 44 00 00    	nopw   0x0(%rax,%rax,1)

0000000000002490 <listen@plt>:
    2490:	f3 0f 1e fa          	endbr64
    2494:	ff 25 96 9a 00 00    	jmp    *0x9a96(%rip)        # bf30 <listen@GLIBC_2.2.5>
    249a:	66 0f 1f 44 00 00    	nopw   0x0(%rax,%rax,1)

00000000000024a0 <__strcpy_chk@plt>:
    24a0:	f3 0f 1e fa          	endbr64
    24a4:	ff 25 8e 9a 00 00    	jmp    *0x9a8e(%rip)        # bf38 <__strcpy_chk@GLIBC_2.3.4>
    24aa:	66 0f 1f 44 00 00    	nopw   0x0(%rax,%rax,1)

00000000000024b0 <__io_uring_get_cqe@plt>:
    24b0:	f3 0f 1e fa          	endbr64
    24b4:	ff 25 86 9a 00 00    	jmp    *0x9a86(%rip)        # bf40 <__io_uring_get_cqe@LIBURING_2.0>
    24ba:	66 0f 1f 44 00 00    	nopw   0x0(%rax,%rax,1)

00000000000024c0 <__printf_chk@plt>:
    24c0:	f3 0f 1e fa          	endbr64
    24c4:	ff 25 7e 9a 00 00    	jmp    *0x9a7e(%rip)        # bf48 <__printf_chk@GLIBC_2.3.4>
    24ca:	66 0f 1f 44 00 00    	nopw   0x0(%rax,%rax,1)

00000000000024d0 <bind@plt>:
    24d0:	f3 0f 1e fa          	endbr64
    24d4:	ff 25 76 9a 00 00    	jmp    *0x9a76(%rip)        # bf50 <bind@GLIBC_2.2.5>
    24da:	66 0f 1f 44 00 00    	nopw   0x0(%rax,%rax,1)

00000000000024e0 <pthread_create@plt>:
    24e0:	f3 0f 1e fa          	endbr64
    24e4:	ff 25 6e 9a 00 00    	jmp    *0x9a6e(%rip)        # bf58 <pthread_create@GLIBC_2.34>
    24ea:	66 0f 1f 44 00 00    	nopw   0x0(%rax,%rax,1)

00000000000024f0 <open@plt>:
    24f0:	f3 0f 1e fa          	endbr64
    24f4:	ff 25 66 9a 00 00    	jmp    *0x9a66(%rip)        # bf60 <open@GLIBC_2.2.5>
    24fa:	66 0f 1f 44 00 00    	nopw   0x0(%rax,%rax,1)

0000000000002500 <fopen@plt>:
    2500:	f3 0f 1e fa          	endbr64
    2504:	ff 25 5e 9a 00 00    	jmp    *0x9a5e(%rip)        # bf68 <fopen@GLIBC_2.2.5>
    250a:	66 0f 1f 44 00 00    	nopw   0x0(%rax,%rax,1)

0000000000002510 <perror@plt>:
    2510:	f3 0f 1e fa          	endbr64
    2514:	ff 25 56 9a 00 00    	jmp    *0x9a56(%rip)        # bf70 <perror@GLIBC_2.2.5>
    251a:	66 0f 1f 44 00 00    	nopw   0x0(%rax,%rax,1)

0000000000002520 <exit@plt>:
    2520:	f3 0f 1e fa          	endbr64
    2524:	ff 25 4e 9a 00 00    	jmp    *0x9a4e(%rip)        # bf78 <exit@GLIBC_2.2.5>
    252a:	66 0f 1f 44 00 00    	nopw   0x0(%rax,%rax,1)

0000000000002530 <eventfd@plt>:
    2530:	f3 0f 1e fa          	endbr64
    2534:	ff 25 46 9a 00 00    	jmp    *0x9a46(%rip)        # bf80 <eventfd@GLIBC_2.7>
    253a:	66 0f 1f 44 00 00    	nopw   0x0(%rax,%rax,1)

0000000000002540 <fwrite@plt>:
    2540:	f3 0f 1e fa          	endbr64
    2544:	ff 25 3e 9a 00 00    	jmp    *0x9a3e(%rip)        # bf88 <fwrite@GLIBC_2.2.5>
    254a:	66 0f 1f 44 00 00    	nopw   0x0(%rax,%rax,1)

0000000000002550 <__fprintf_chk@plt>:
    2550:	f3 0f 1e fa          	endbr64
    2554:	ff 25 36 9a 00 00    	jmp    *0x9a36(%rip)        # bf90 <__fprintf_chk@GLIBC_2.3.4>
    255a:	66 0f 1f 44 00 00    	nopw   0x0(%rax,%rax,1)

0000000000002560 <io_uring_register_eventfd@plt>:
    2560:	f3 0f 1e fa          	endbr64
    2564:	ff 25 2e 9a 00 00    	jmp    *0x9a2e(%rip)        # bf98 <io_uring_register_eventfd@LIBURING_2.0>
    256a:	66 0f 1f 44 00 00    	nopw   0x0(%rax,%rax,1)

0000000000002570 <pthread_join@plt>:
    2570:	f3 0f 1e fa          	endbr64
    2574:	ff 25 26 9a 00 00    	jmp    *0x9a26(%rip)        # bfa0 <pthread_join@GLIBC_2.34>
    257a:	66 0f 1f 44 00 00    	nopw   0x0(%rax,%rax,1)

0000000000002580 <strerror@plt>:
    2580:	f3 0f 1e fa          	endbr64
    2584:	ff 25 1e 9a 00 00    	jmp    *0x9a1e(%rip)        # bfa8 <strerror@GLIBC_2.2.5>
    258a:	66 0f 1f 44 00 00    	nopw   0x0(%rax,%rax,1)

0000000000002590 <pthread_mutex_init@plt>:
    2590:	f3 0f 1e fa          	endbr64
    2594:	ff 25 16 9a 00 00    	jmp    *0x9a16(%rip)        # bfb0 <pthread_mutex_init@GLIBC_2.2.5>
    259a:	66 0f 1f 44 00 00    	nopw   0x0(%rax,%rax,1)

00000000000025a0 <epoll_create1@plt>:
    25a0:	f3 0f 1e fa          	endbr64
    25a4:	ff 25 0e 9a 00 00    	jmp    *0x9a0e(%rip)        # bfb8 <epoll_create1@GLIBC_2.9>
    25aa:	66 0f 1f 44 00 00    	nopw   0x0(%rax,%rax,1)

00000000000025b0 <__ctype_tolower_loc@plt>:
    25b0:	f3 0f 1e fa          	endbr64
    25b4:	ff 25 06 9a 00 00    	jmp    *0x9a06(%rip)        # bfc0 <__ctype_tolower_loc@GLIBC_2.3>
    25ba:	66 0f 1f 44 00 00    	nopw   0x0(%rax,%rax,1)

00000000000025c0 <__sprintf_chk@plt>:
    25c0:	f3 0f 1e fa          	endbr64
    25c4:	ff 25 fe 99 00 00    	jmp    *0x99fe(%rip)        # bfc8 <__sprintf_chk@GLIBC_2.3.4>
    25ca:	66 0f 1f 44 00 00    	nopw   0x0(%rax,%rax,1)

00000000000025d0 <socket@plt>:
    25d0:	f3 0f 1e fa          	endbr64
    25d4:	ff 25 f6 99 00 00    	jmp    *0x99f6(%rip)        # bfd0 <socket@GLIBC_2.2.5>
    25da:	66 0f 1f 44 00 00    	nopw   0x0(%rax,%rax,1)

Disassembly of section .text:

00000000000025e0 <fatal_error>:
  if (b > a) { return b; }
  return a;
}

int buffersend(struct KernelThread *data, struct Buffers *buffers, int kind, void * send);
void fatal_error(const char *syscall) {
    25e0:	f3 0f 1e fa          	endbr64
    25e4:	50                   	push   %rax
    25e5:	58                   	pop    %rax
    25e6:	50                   	push   %rax
    perror(syscall);
    25e7:	e8 24 ff ff ff       	call   2510 <perror@plt>
    exit(1);
    25ec:	bf 01 00 00 00       	mov    $0x1,%edi
    25f1:	e8 2a ff ff ff       	call   2520 <exit@plt>

00000000000025f6 <copy_file_contents.cold>:
    int fd;

    char *buf = zh_malloc(file_size);
    fd = open(file_path, O_RDONLY);
    if (fd < 0)
        fatal_error("read");
    25f6:	48 8d 3d fc 6c 00 00 	lea    0x6cfc(%rip),%rdi        # 92f9 <_IO_stdin_used+0x2f9>
    25fd:	e8 de ff ff ff       	call   25e0 <fatal_error>

0000000000002602 <add_read_request.cold>:

IOURINGINLINE void io_uring_prep_rw(int op, struct io_uring_sqe *sqe, int fd,
				    const void *addr, unsigned len,
				    __u64 offset)
{
	sqe->opcode = (__u8) op;
    2602:	c6 04 25 00 00 00 00 00 	movb   $0x0,0x0
    260a:	0f 0b                	ud2

000000000000260c <add_accept_request.cold>:
    260c:	c6 04 25 00 00 00 00 00 	movb   $0x0,0x0
    2614:	0f 0b                	ud2

0000000000002616 <io_thread.cold>:
    2616:	c6 04 25 00 00 00 00 00 	movb   $0x0,0x0
    261e:	0f 0b                	ud2

    sock = socket(PF_INET, SOCK_STREAM, 0);


    if (sock == -1)
        fatal_error("socket()");
    2620:	48 8d 3d 56 6b 00 00 	lea    0x6b56(%rip),%rdi        # 917d <_IO_stdin_used+0x17d>
    2627:	e8 b4 ff ff ff       	call   25e0 <fatal_error>

    int enable = 1;
    if (setsockopt(sock,
                   SOL_SOCKET, SO_REUSEADDR,
                   &enable, sizeof(int)) < 0)
        fatal_error("setsockopt(SO_REUSEADDR)");
    262c:	48 8d 3d 53 6b 00 00 	lea    0x6b53(%rip),%rdi        # 9186 <_IO_stdin_used+0x186>
    2633:	e8 a8 ff ff ff       	call   25e0 <fatal_error>
    srv_addr.sin_addr.s_addr = htonl(INADDR_ANY);

    if (bind(sock,
             (const struct sockaddr *)&srv_addr,
             sizeof(srv_addr)) < 0)
        fatal_error("bind()");
    2638:	48 8d 3d 60 6b 00 00 	lea    0x6b60(%rip),%rdi        # 919f <_IO_stdin_used+0x19f>
    263f:	e8 9c ff ff ff       	call   25e0 <fatal_error>

    if (listen(sock, 10) < 0) {
      fatal_error("listen()");
    2644:	48 8d 3d 5b 6b 00 00 	lea    0x6b5b(%rip),%rdi        # 91a6 <_IO_stdin_used+0x1a6>
    264b:	e8 90 ff ff ff       	call   25e0 <fatal_error>
    2650:	c6 04 25 00 00 00 00 00 	movb   $0x0,0x0
    2658:	0f 0b                	ud2
            continue;
          }
          struct Write *write = send->data;
          struct io_uring_sqe *sqe = io_uring_get_sqe(&ring);
          struct Request *req = write->request;
          req->event_type = EVENT_TYPE_WRITE;
    265a:	41 c7 00 02 00 00 00 	movl   $0x2,(%r8)
    2661:	c6 04 25 00 00 00 00 00 	movb   $0x0,0x0
    2669:	0f 0b                	ud2
				   perror("new client epoll_create1");
    266b:	48 8d 3d d9 6b 00 00 	lea    0x6bd9(%rip),%rdi        # 924b <_IO_stdin_used+0x24b>
    2672:	e8 99 fe ff ff       	call   2510 <perror@plt>
				   exit(EXIT_FAILURE);
    2677:	bf 01 00 00 00       	mov    $0x1,%edi
    267c:	e8 9f fe ff ff       	call   2520 <exit@plt>
    2681:	c6 04 25 00 00 00 00 00 	movb   $0x0,0x0
    2689:	0f 0b                	ud2
    struct NewSocketMessage *msg = bufferreply->data;
    268b:	48 8b 04 25 00 00 00 00 	mov    0x0,%rax
    2693:	0f 0b                	ud2
    struct NewClientMessage *newclientmsg = newclient->data;
    2695:	48 8b 04 25 00 00 00 00 	mov    0x0,%rax
    269d:	0f 0b                	ud2
    269f:	c6 04 25 00 00 00 00 00 	movb   $0x0,0x0
    26a7:	0f 0b                	ud2
            fatal_error("io_uring_wait_cqe");
    26a9:	48 8d 3d 5b 6b 00 00 	lea    0x6b5b(%rip),%rdi        # 920b <_IO_stdin_used+0x20b>
    26b0:	e8 2b ff ff ff       	call   25e0 <fatal_error>
    26b5:	66 2e 0f 1f 84 00 00 00 00 00 	cs nopw 0x0(%rax,%rax,1)
    26bf:	90                   	nop

00000000000026c0 <main>:
    }


  return 0;
}
int main() {
    26c0:	f3 0f 1e fa          	endbr64
    26c4:	41 57                	push   %r15
}

__fortify_function int
printf (const char *__restrict __fmt, ...)
{
  return __printf_chk (__USE_FORTIFY_LEVEL - 1, __fmt, __va_arg_pack ());
    26c6:	48 8d 3d 6b 72 00 00 	lea    0x726b(%rip),%rdi        # 9938 <_IO_stdin_used+0x938>
    26cd:	41 56                	push   %r14
    26cf:	41 55                	push   %r13
    26d1:	41 54                	push   %r12
    26d3:	4c 8d 25 92 6d 00 00 	lea    0x6d92(%rip),%r12        # 946c <_IO_stdin_used+0x46c>
    26da:	55                   	push   %rbp
    26db:	53                   	push   %rbx
    26dc:	48 81 ec 38 01 00 00 	sub    $0x138,%rsp
    26e3:	64 48 8b 04 25 28 00 00 00 	mov    %fs:0x28,%rax
    26ec:	48 89 84 24 28 01 00 00 	mov    %rax,0x128(%rsp)
    26f4:	48 8d 05 25 23 00 00 	lea    0x2325(%rip),%rax        # 4a20 <barriered_reset>
    26fb:	66 48 0f 6e f0       	movq   %rax,%xmm6
    2700:	0f 16 35 49 95 00 00 	movhps 0x9549(%rip),%xmm6        # bc50 <__do_global_dtors_aux_fini_array_entry+0x8>
    2707:	0f 29 b4 24 c0 00 00 00 	movaps %xmm6,0xc0(%rsp)
    270f:	e8 2c fc ff ff       	call   2340 <puts@plt>
    2714:	bf 0a 00 00 00       	mov    $0xa,%edi
    2719:	e8 02 fc ff ff       	call   2320 <putchar@plt>
    271e:	ba 01 00 00 00       	mov    $0x1,%edx
    2723:	48 8d 35 3a 6c 00 00 	lea    0x6c3a(%rip),%rsi        # 9364 <_IO_stdin_used+0x364>
    272a:	31 c0                	xor    %eax,%eax
    272c:	bf 01 00 00 00       	mov    $0x1,%edi
    2731:	e8 8a fd ff ff       	call   24c0 <__printf_chk@plt>
    2736:	ba 06 00 00 00       	mov    $0x6,%edx
    273b:	48 8d 35 32 6c 00 00 	lea    0x6c32(%rip),%rsi        # 9374 <_IO_stdin_used+0x374>
    2742:	31 c0                	xor    %eax,%eax
    2744:	bf 01 00 00 00       	mov    $0x1,%edi
    2749:	e8 72 fd ff ff       	call   24c0 <__printf_chk@plt>
    274e:	ba 03 00 00 00       	mov    $0x3,%edx
    2753:	48 8d 35 2f 6c 00 00 	lea    0x6c2f(%rip),%rsi        # 9389 <_IO_stdin_used+0x389>
    275a:	31 c0                	xor    %eax,%eax
    275c:	bf 01 00 00 00       	mov    $0x1,%edi
    2761:	e8 5a fd ff ff       	call   24c0 <__printf_chk@plt>
    2766:	ba 02 00 00 00       	mov    $0x2,%edx
    276b:	48 8d 35 27 6c 00 00 	lea    0x6c27(%rip),%rsi        # 9399 <_IO_stdin_used+0x399>
    2772:	31 c0                	xor    %eax,%eax
    2774:	bf 01 00 00 00       	mov    $0x1,%edi
    2779:	e8 42 fd ff ff       	call   24c0 <__printf_chk@plt>
    277e:	48 8d 3d 2a 6c 00 00 	lea    0x6c2a(%rip),%rdi        # 93af <_IO_stdin_used+0x3af>
    2785:	e8 b6 fb ff ff       	call   2340 <puts@plt>
    278a:	ba 02 00 00 00       	mov    $0x2,%edx
    278f:	48 8d 35 35 6c 00 00 	lea    0x6c35(%rip),%rsi        # 93cb <_IO_stdin_used+0x3cb>
    2796:	31 c0                	xor    %eax,%eax
    2798:	bf 01 00 00 00       	mov    $0x1,%edi
    279d:	e8 1e fd ff ff       	call   24c0 <__printf_chk@plt>
    27a2:	ba 0b 00 00 00       	mov    $0xb,%edx
    27a7:	48 8d 35 37 6c 00 00 	lea    0x6c37(%rip),%rsi        # 93e5 <_IO_stdin_used+0x3e5>
    27ae:	31 c0                	xor    %eax,%eax
    27b0:	bf 01 00 00 00       	mov    $0x1,%edi
    27b5:	e8 06 fd ff ff       	call   24c0 <__printf_chk@plt>
    27ba:	ba 02 00 00 00       	mov    $0x2,%edx
    27bf:	48 8d 35 33 6c 00 00 	lea    0x6c33(%rip),%rsi        # 93f9 <_IO_stdin_used+0x3f9>
    27c6:	31 c0                	xor    %eax,%eax
    27c8:	bf 01 00 00 00       	mov    $0x1,%edi
    27cd:	e8 ee fc ff ff       	call   24c0 <__printf_chk@plt>
    27d2:	ba 01 00 00 00       	mov    $0x1,%edx
    27d7:	48 8d 35 2c 6c 00 00 	lea    0x6c2c(%rip),%rsi        # 940a <_IO_stdin_used+0x40a>
    27de:	31 c0                	xor    %eax,%eax
    27e0:	bf 01 00 00 00       	mov    $0x1,%edi
    27e5:	e8 d6 fc ff ff       	call   24c0 <__printf_chk@plt>
    27ea:	ba 02 00 00 00       	mov    $0x2,%edx
    27ef:	48 8d 35 2c 6c 00 00 	lea    0x6c2c(%rip),%rsi        # 9422 <_IO_stdin_used+0x422>
    27f6:	31 c0                	xor    %eax,%eax
    27f8:	bf 01 00 00 00       	mov    $0x1,%edi
    27fd:	e8 be fc ff ff       	call   24c0 <__printf_chk@plt>
    2802:	ba 01 00 00 00       	mov    $0x1,%edx
    2807:	48 8d 35 92 71 00 00 	lea    0x7192(%rip),%rsi        # 99a0 <_IO_stdin_used+0x9a0>
    280e:	31 c0                	xor    %eax,%eax
    2810:	bf 01 00 00 00       	mov    $0x1,%edi
    2815:	e8 a6 fc ff ff       	call   24c0 <__printf_chk@plt>
    281a:	ba 01 00 00 00       	mov    $0x1,%edx
    281f:	48 8d 35 aa 71 00 00 	lea    0x71aa(%rip),%rsi        # 99d0 <_IO_stdin_used+0x9d0>
    2826:	31 c0                	xor    %eax,%eax
    2828:	bf 01 00 00 00       	mov    $0x1,%edi
    282d:	e8 8e fc ff ff       	call   24c0 <__printf_chk@plt>
    2832:	ba 40 42 0f 00       	mov    $0xf4240,%edx
    2837:	48 8d 35 00 6c 00 00 	lea    0x6c00(%rip),%rsi        # 943e <_IO_stdin_used+0x43e>
    283e:	31 c0                	xor    %eax,%eax
    2840:	bf 01 00 00 00       	mov    $0x1,%edi
    2845:	e8 76 fc ff ff       	call   24c0 <__printf_chk@plt>
    284a:	ba 19 00 00 00       	mov    $0x19,%edx
    284f:	48 8d 35 02 6c 00 00 	lea    0x6c02(%rip),%rsi        # 9458 <_IO_stdin_used+0x458>
    2856:	31 c0                	xor    %eax,%eax
    2858:	bf 01 00 00 00       	mov    $0x1,%edi
    285d:	e8 5e fc ff ff       	call   24c0 <__printf_chk@plt>
    2862:	48 8d 3d 8c 68 00 00 	lea    0x688c(%rip),%rdi        # 90f5 <_IO_stdin_used+0xf5>
    2869:	e8 d2 fa ff ff       	call   2340 <puts@plt>
  printf("duration %d seconds", DURATION);
  printf("\n\n");

  int dataid = 0;

  struct ProtectedState *global_protected_state = calloc(1, sizeof(struct ProtectedState));
    286e:	be 18 00 00 00       	mov    $0x18,%esi
    2873:	bf 01 00 00 00       	mov    $0x1,%edi
    2878:	e8 93 fb ff ff       	call   2410 <calloc@plt>
  struct ProtectedState *protected_state = calloc(group_count, sizeof(struct ProtectedState));
    287d:	be 18 00 00 00       	mov    $0x18,%esi
  struct KernelThread *thread_data = calloc(total_threads, sizeof(struct KernelThread)); 
  
  pthread_mutex_t * mswapmutex = calloc(1, sizeof(pthread_mutex_t));
  pthread_mutex_t * swapmutex = calloc(total_threads * total_threads, sizeof(pthread_mutex_t));
  int cc = 0; 
  for (int x = 0 ; x < total_threads; x++) {
    2882:	45 31 ff             	xor    %r15d,%r15d
  int cc = 0; 
    2885:	45 31 f6             	xor    %r14d,%r14d
  struct ProtectedState *protected_state = calloc(group_count, sizeof(struct ProtectedState));
    2888:	bf 03 00 00 00       	mov    $0x3,%edi
  struct ProtectedState *global_protected_state = calloc(1, sizeof(struct ProtectedState));
    288d:	48 89 44 24 08       	mov    %rax,0x8(%rsp)
  struct ProtectedState *protected_state = calloc(group_count, sizeof(struct ProtectedState));
    2892:	e8 79 fb ff ff       	call   2410 <calloc@plt>
  struct KernelThread *thread_data = calloc(total_threads, sizeof(struct KernelThread)); 
    2897:	be 20 01 00 00       	mov    $0x120,%esi
    289c:	bf 0b 00 00 00       	mov    $0xb,%edi
  struct ProtectedState *protected_state = calloc(group_count, sizeof(struct ProtectedState));
    28a1:	48 89 84 24 b0 00 00 00 	mov    %rax,0xb0(%rsp)
  struct KernelThread *thread_data = calloc(total_threads, sizeof(struct KernelThread)); 
    28a9:	e8 62 fb ff ff       	call   2410 <calloc@plt>
  pthread_mutex_t * mswapmutex = calloc(1, sizeof(pthread_mutex_t));
    28ae:	be 28 00 00 00       	mov    $0x28,%esi
    28b3:	bf 01 00 00 00       	mov    $0x1,%edi
  struct KernelThread *thread_data = calloc(total_threads, sizeof(struct KernelThread)); 
    28b8:	48 89 44 24 38       	mov    %rax,0x38(%rsp)
  pthread_mutex_t * mswapmutex = calloc(1, sizeof(pthread_mutex_t));
    28bd:	e8 4e fb ff ff       	call   2410 <calloc@plt>
  pthread_mutex_t * swapmutex = calloc(total_threads * total_threads, sizeof(pthread_mutex_t));
    28c2:	be 28 00 00 00       	mov    $0x28,%esi
    28c7:	bf 79 00 00 00       	mov    $0x79,%edi
  pthread_mutex_t * mswapmutex = calloc(1, sizeof(pthread_mutex_t));
    28cc:	48 89 84 24 e8 00 00 00 	mov    %rax,0xe8(%rsp)
  pthread_mutex_t * swapmutex = calloc(total_threads * total_threads, sizeof(pthread_mutex_t));
    28d4:	e8 37 fb ff ff       	call   2410 <calloc@plt>
    28d9:	48 89 84 24 f0 00 00 00 	mov    %rax,0xf0(%rsp)
  for (int x = 0 ; x < total_threads; x++) {
    28e1:	48 89 c3             	mov    %rax,%rbx
int main() {
    28e4:	49 89 dd             	mov    %rbx,%r13
    for (int y = 0 ; y < total_threads; y++) {
    28e7:	31 ed                	xor    %ebp,%ebp
    28e9:	0f 1f 80 00 00 00 00 	nopl   0x0(%rax)
    28f0:	41 8d 14 2e          	lea    (%r14,%rbp,1),%edx
    28f4:	41 89 e8             	mov    %ebp,%r8d
    28f7:	44 89 f9             	mov    %r15d,%ecx
    28fa:	4c 89 e6             	mov    %r12,%rsi
    28fd:	bf 01 00 00 00       	mov    $0x1,%edi
    2902:	31 c0                	xor    %eax,%eax
    2904:	83 c5 01             	add    $0x1,%ebp
    2907:	e8 b4 fb ff ff       	call   24c0 <__printf_chk@plt>
      printf("c %d x %d y %d\n", cc, x, y);
      pthread_mutex_init(&swapmutex[cc++], NULL);
    290c:	4c 89 ef             	mov    %r13,%rdi
    290f:	31 f6                	xor    %esi,%esi
    for (int y = 0 ; y < total_threads; y++) {
    2911:	49 83 c5 28          	add    $0x28,%r13
      pthread_mutex_init(&swapmutex[cc++], NULL);
    2915:	e8 76 fc ff ff       	call   2590 <pthread_mutex_init@plt>
    for (int y = 0 ; y < total_threads; y++) {
    291a:	83 fd 0b             	cmp    $0xb,%ebp
    291d:	75 d1                	jne    28f0 <main+0x230>
    291f:	41 83 c6 0b          	add    $0xb,%r14d
  for (int x = 0 ; x < total_threads; x++) {
    2923:	41 83 c7 01          	add    $0x1,%r15d
    2927:	48 81 c3 b8 01 00 00 	add    $0x1b8,%rbx
    292e:	41 83 fe 79          	cmp    $0x79,%r14d
    2932:	75 b0                	jne    28e4 <main+0x224>
    2934:	ba 06 00 00 00       	mov    $0x6,%edx
    2939:	48 8d 35 3c 6b 00 00 	lea    0x6b3c(%rip),%rsi        # 947c <_IO_stdin_used+0x47c>
    2940:	bf 01 00 00 00       	mov    $0x1,%edi
    2945:	31 c0                	xor    %eax,%eax
    2947:	e8 74 fb ff ff       	call   24c0 <__printf_chk@plt>
    294c:	ba 0c 00 00 00       	mov    $0xc,%edx
    2951:	48 8d 35 3a 6b 00 00 	lea    0x6b3a(%rip),%rsi        # 9492 <_IO_stdin_used+0x492>
    2958:	31 c0                	xor    %eax,%eax
    295a:	bf 01 00 00 00       	mov    $0x1,%edi
    295f:	e8 5c fb ff ff       	call   24c0 <__printf_chk@plt>
  int timer_index = group_count * thread_count;
  int io_index = timer_index + timer_count;
  printf("Timer index start %d\n", timer_index);
  int buffers_required = (group_count * thread_count) * barrier_count;
  printf("Need %d buffers required\n", buffers_required);
  struct Buffers *buffers = calloc(buffers_required, sizeof(struct Buffers));
    2964:	be 10 00 00 00       	mov    $0x10,%esi
    2969:	bf 0c 00 00 00       	mov    $0xc,%edi
    296e:	e8 9d fa ff ff       	call   2410 <calloc@plt>
  struct Buffers *iobuffers = calloc(io_threads, sizeof(struct Buffers));
    2973:	be 10 00 00 00       	mov    $0x10,%esi
    2978:	bf 02 00 00 00       	mov    $0x2,%edi
  struct Buffers *buffers = calloc(buffers_required, sizeof(struct Buffers));
    297d:	48 89 c5             	mov    %rax,%rbp
  struct Buffers *iobuffers = calloc(io_threads, sizeof(struct Buffers));
    2980:	e8 8b fa ff ff       	call   2410 <calloc@plt>


  int snapshot_limit = 100;
  for (int x = 0 ; x < io_threads; x++) {
    iobuffers[x].count = buffer_size;
    iobuffers[x].buffer = calloc(buffer_size, sizeof(struct Buffer));
    2985:	be 00 01 00 00       	mov    $0x100,%esi
    298a:	bf 01 00 00 00       	mov    $0x1,%edi
    for (int y = 0 ; y < buffer_size; y++) {
      iobuffers[x].buffer[y].available = 0;
      iobuffers[x].buffer[y].snapshot_limit = snapshot_limit;
      iobuffers[x].buffer[y].snapshots = calloc(snapshot_limit, sizeof(struct Snapshot));
    298f:	49 89 ee             	mov    %rbp,%r14
    iobuffers[x].count = buffer_size;
    2992:	c7 00 01 00 00 00    	movl   $0x1,(%rax)
  struct Buffers *iobuffers = calloc(io_threads, sizeof(struct Buffers));
    2998:	49 89 c4             	mov    %rax,%r12
    iobuffers[x].buffer = calloc(buffer_size, sizeof(struct Buffer));
    299b:	e8 70 fa ff ff       	call   2410 <calloc@plt>
      iobuffers[x].buffer[y].snapshots = calloc(snapshot_limit, sizeof(struct Snapshot));
    29a0:	be 20 00 00 00       	mov    $0x20,%esi
    29a5:	bf 64 00 00 00       	mov    $0x64,%edi
    iobuffers[x].buffer = calloc(buffer_size, sizeof(struct Buffer));
    29aa:	49 89 44 24 08       	mov    %rax,0x8(%r12)
    29af:	49 89 c5             	mov    %rax,%r13
      iobuffers[x].buffer[y].available = 0;
    29b2:	c7 80 80 00 00 00 00 00 00 00 	movl   $0x0,0x80(%rax)
      iobuffers[x].buffer[y].snapshot_limit = snapshot_limit;
    29bc:	c7 80 90 00 00 00 64 00 00 00 	movl   $0x64,0x90(%rax)
      iobuffers[x].buffer[y].snapshots = calloc(snapshot_limit, sizeof(struct Snapshot));
    29c6:	e8 45 fa ff ff       	call   2410 <calloc@plt>
    iobuffers[x].buffer = calloc(buffer_size, sizeof(struct Buffer));
    29cb:	be 00 01 00 00       	mov    $0x100,%esi
    29d0:	bf 01 00 00 00       	mov    $0x1,%edi
    iobuffers[x].count = buffer_size;
    29d5:	41 c7 44 24 10 01 00 00 00 	movl   $0x1,0x10(%r12)
      iobuffers[x].buffer[y].snapshots = calloc(snapshot_limit, sizeof(struct Snapshot));
    29de:	49 89 85 88 00 00 00 	mov    %rax,0x88(%r13)
    iobuffers[x].buffer = calloc(buffer_size, sizeof(struct Buffer));
    29e5:	e8 26 fa ff ff       	call   2410 <calloc@plt>
      iobuffers[x].buffer[y].snapshots = calloc(snapshot_limit, sizeof(struct Snapshot));
    29ea:	be 20 00 00 00       	mov    $0x20,%esi
    29ef:	bf 64 00 00 00       	mov    $0x64,%edi
    iobuffers[x].buffer = calloc(buffer_size, sizeof(struct Buffer));
    29f4:	49 89 44 24 18       	mov    %rax,0x18(%r12)
    29f9:	49 89 c5             	mov    %rax,%r13
    29fc:	4c 8d a5 c0 00 00 00 	lea    0xc0(%rbp),%r12
      iobuffers[x].buffer[y].available = 0;
    2a03:	c7 80 80 00 00 00 00 00 00 00 	movl   $0x0,0x80(%rax)
      iobuffers[x].buffer[y].snapshot_limit = snapshot_limit;
    2a0d:	c7 80 90 00 00 00 64 00 00 00 	movl   $0x64,0x90(%rax)
      iobuffers[x].buffer[y].snapshots = calloc(snapshot_limit, sizeof(struct Snapshot));
    2a17:	e8 f4 f9 ff ff       	call   2410 <calloc@plt>
    2a1c:	48 89 ac 24 d0 00 00 00 	mov    %rbp,0xd0(%rsp)
    2a24:	49 89 85 88 00 00 00 	mov    %rax,0x88(%r13)
    }
  }
  for (int x = 0 ; x < buffers_required; x++) {
    buffers[x].count = buffer_size;
    2a2b:	41 c7 06 01 00 00 00 	movl   $0x1,(%r14)
    buffers[x].buffer = calloc(buffer_size, sizeof(struct Buffer));
    2a32:	be 00 01 00 00       	mov    $0x100,%esi
    2a37:	bf 01 00 00 00       	mov    $0x1,%edi
  for (int x = 0 ; x < buffers_required; x++) {
    2a3c:	49 83 c6 10          	add    $0x10,%r14
    buffers[x].buffer = calloc(buffer_size, sizeof(struct Buffer));
    2a40:	e8 cb f9 ff ff       	call   2410 <calloc@plt>
    for (int y = 0 ; y < buffer_size; y++) {
      buffers[x].buffer[y].available = 0;
      buffers[x].buffer[y].snapshot_limit = snapshot_limit;
      buffers[x].buffer[y].snapshots = calloc(snapshot_limit, sizeof(struct Snapshot));
    2a45:	be 20 00 00 00       	mov    $0x20,%esi
    2a4a:	bf 64 00 00 00       	mov    $0x64,%edi
    buffers[x].buffer = calloc(buffer_size, sizeof(struct Buffer));
    2a4f:	49 89 46 f8          	mov    %rax,-0x8(%r14)
    2a53:	48 89 c3             	mov    %rax,%rbx
      buffers[x].buffer[y].available = 0;
    2a56:	c7 80 80 00 00 00 00 00 00 00 	movl   $0x0,0x80(%rax)
      buffers[x].buffer[y].snapshot_limit = snapshot_limit;
    2a60:	c7 80 90 00 00 00 64 00 00 00 	movl   $0x64,0x90(%rax)
      buffers[x].buffer[y].snapshots = calloc(snapshot_limit, sizeof(struct Snapshot));
    2a6a:	e8 a1 f9 ff ff       	call   2410 <calloc@plt>
    2a6f:	48 89 83 88 00 00 00 	mov    %rax,0x88(%rbx)
  for (int x = 0 ; x < buffers_required; x++) {
    2a76:	4d 39 f4             	cmp    %r14,%r12
    2a79:	75 b0                	jne    2a2b <main+0x36b>
  int iocur_buffer = 0;
  int swap = 0;
  int groupcount = 0;
  int seq = 0;
  int seqs[] = {1, 3, 6};
  struct Group **all_groups = calloc(100, sizeof(struct Group*));
    2a7b:	be 08 00 00 00       	mov    $0x8,%esi
    2a80:	bf 64 00 00 00       	mov    $0x64,%edi
  struct Global *global = calloc(1, sizeof(struct Global));
  global->request_group_sync = -1;
  global->protected_state = global_protected_state;
    2a85:	45 31 ff             	xor    %r15d,%r15d
  int dataid = 0;
    2a88:	31 db                	xor    %ebx,%ebx
  int seqs[] = {1, 3, 6};
    2a8a:	48 8b 05 2f 75 00 00 	mov    0x752f(%rip),%rax        # 9fc0 <_IO_stdin_used+0xfc0>
              }
              printf("Creating friend mailbox %d other is %d\n", b, mailboxes[b].other);
              data[0].messages = messages;
              data[1].messages = messages2;
              data[0].messages_limit = messages_limit;
              data[0].messages_count = 0;
    2a91:	4d 89 fd             	mov    %r15,%r13
  int seqs[] = {1, 3, 6};
    2a94:	c7 84 24 20 01 00 00 06 00 00 00 	movl   $0x6,0x120(%rsp)
  struct Group **all_groups = calloc(100, sizeof(struct Group*));
    2a9f:	4c 8d b4 24 18 01 00 00 	lea    0x118(%rsp),%r14
              data[0].messages_count = 0;
    2aa7:	41 89 df             	mov    %ebx,%r15d
  int seqs[] = {1, 3, 6};
    2aaa:	48 89 84 24 18 01 00 00 	mov    %rax,0x118(%rsp)
  struct Group **all_groups = calloc(100, sizeof(struct Group*));
    2ab2:	e8 59 f9 ff ff       	call   2410 <calloc@plt>
  struct Global *global = calloc(1, sizeof(struct Global));
    2ab7:	be 10 00 00 00       	mov    $0x10,%esi
    2abc:	bf 01 00 00 00       	mov    $0x1,%edi
  struct Group **all_groups = calloc(100, sizeof(struct Group*));
    2ac1:	48 89 84 24 b8 00 00 00 	mov    %rax,0xb8(%rsp)
  struct Global *global = calloc(1, sizeof(struct Global));
    2ac9:	e8 42 f9 ff ff       	call   2410 <calloc@plt>
  int swap = 0;
    2ace:	c7 44 24 20 00 00 00 00 	movl   $0x0,0x20(%rsp)
  struct Global *global = calloc(1, sizeof(struct Global));
    2ad6:	49 89 c3             	mov    %rax,%r11
  global->request_group_sync = -1;
    2ad9:	c7 00 ff ff ff ff    	movl   $0xffffffff,(%rax)
  global->protected_state = global_protected_state;
    2adf:	48 8b 44 24 08       	mov    0x8(%rsp),%rax
  int iocur_buffer = 0;
    2ae4:	c7 44 24 7c 00 00 00 00 	movl   $0x0,0x7c(%rsp)
  global->protected_state = global_protected_state;
    2aec:	49 89 43 08          	mov    %rax,0x8(%r11)
  for (int k = 0 ; k < group_count ; k++) {
    2af0:	48 8b 84 24 b0 00 00 00 	mov    0xb0(%rsp),%rax
  int cur_buffer = 0;
    2af8:	c7 84 24 84 00 00 00 00 00 00 00 	movl   $0x0,0x84(%rsp)
    2b03:	48 89 84 24 d8 00 00 00 	mov    %rax,0xd8(%rsp)
  global->protected_state = global_protected_state;
    2b0b:	48 89 84 24 a0 00 00 00 	mov    %rax,0xa0(%rsp)
  int curcpu = 0;
    2b13:	c7 84 24 80 00 00 00 00 00 00 00 	movl   $0x0,0x80(%rsp)
              data[0].messages_count = 0;
    2b1e:	4c 89 9c 24 e0 00 00 00 	mov    %r11,0xe0(%rsp)
    struct Group * group_data = calloc(1, sizeof(struct Group));
    2b26:	be 00 01 00 00       	mov    $0x100,%esi
    2b2b:	bf 01 00 00 00       	mov    $0x1,%edi
    2b30:	44 89 6c 24 50       	mov    %r13d,0x50(%rsp)
    2b35:	e8 d6 f8 ff ff       	call   2410 <calloc@plt>
    struct KernelThread ** group_threads = calloc(100, sizeof(struct KernelThread*));
    2b3a:	be 08 00 00 00       	mov    $0x8,%esi
    2b3f:	bf 64 00 00 00       	mov    $0x64,%edi
    struct Group * group_data = calloc(1, sizeof(struct Group));
    2b44:	48 89 44 24 08       	mov    %rax,0x8(%rsp)
    struct KernelThread ** group_threads = calloc(100, sizeof(struct KernelThread*));
    2b49:	e8 c2 f8 ff ff       	call   2410 <calloc@plt>
    all_groups[groupcount++] = group_data;
    2b4e:	48 8b 54 24 08       	mov    0x8(%rsp),%rdx
    2b53:	48 8b 9c 24 b8 00 00 00 	mov    0xb8(%rsp),%rbx
        thread_data[x].protected_state = &protected_state[k];
    2b5b:	48 c7 44 24 68 00 00 00 00 	movq   $0x0,0x68(%rsp)
    2b64:	48 89 ac 24 f8 00 00 00 	mov    %rbp,0xf8(%rsp)
    group_data->threads = group_threads;
    2b6c:	48 89 82 88 00 00 00 	mov    %rax,0x88(%rdx)
    group_data->global = global;
    2b73:	48 8b 84 24 e0 00 00 00 	mov    0xe0(%rsp),%rax
    all_groups[groupcount++] = group_data;
    2b7b:	4a 89 14 eb          	mov    %rdx,(%rbx,%r13,8)
    group_data->thread_count = threads_per_group * group_count;
    2b7f:	48 8b 5c 24 38       	mov    0x38(%rsp),%rbx
    group_data->global = global;
    2b84:	48 89 82 98 00 00 00 	mov    %rax,0x98(%rdx)
    group_data->seq = seqs[seq++ % 3];
    2b8b:	43 8b 04 ae          	mov    (%r14,%r13,4),%eax
    group_data->thread_count = threads_per_group * group_count;
    2b8f:	c7 82 90 00 00 00 06 00 00 00 	movl   $0x6,0x90(%rdx)
    group_data->seq = seqs[seq++ % 3];
    2b99:	89 82 a0 00 00 00    	mov    %eax,0xa0(%rdx)
    for (int d = 0 ; d < threads_per_group ; d++) {
    2b9f:	4b 8d 44 ed 00       	lea    0x0(%r13,%r13,8),%rax
    2ba4:	48 c1 e0 06          	shl    $0x6,%rax
    2ba8:	48 89 94 24 00 01 00 00 	mov    %rdx,0x100(%rsp)
    2bb0:	4c 8d 0c 18          	lea    (%rax,%rbx,1),%r9
    2bb4:	48 63 44 24 7c       	movslq 0x7c(%rsp),%rax
    2bb9:	48 89 9c 24 98 00 00 00 	mov    %rbx,0x98(%rsp)
    2bc1:	43 8d 5c 2d 00       	lea    0x0(%r13,%r13,1),%ebx
    2bc6:	4c 89 b4 24 08 01 00 00 	mov    %r14,0x108(%rsp)
    2bce:	41 89 de             	mov    %ebx,%r14d
    2bd1:	48 c1 e0 04          	shl    $0x4,%rax
    2bd5:	48 01 e8             	add    %rbp,%rax
    2bd8:	48 89 44 24 60       	mov    %rax,0x60(%rsp)
    2bdd:	48 63 84 24 84 00 00 00 	movslq 0x84(%rsp),%rax
    2be5:	48 c1 e0 04          	shl    $0x4,%rax
    2be9:	48 01 e8             	add    %rbp,%rax
    2bec:	48 89 84 24 a8 00 00 00 	mov    %rax,0xa8(%rsp)
      thread_data[x].all_groups = all_groups;
    2bf4:	48 8b 84 24 b8 00 00 00 	mov    0xb8(%rsp),%rax
      thread_data[x].group = k;
    2bfc:	8b 54 24 50          	mov    0x50(%rsp),%edx
    2c00:	44 89 f1             	mov    %r14d,%ecx
    2c03:	bf 01 00 00 00       	mov    $0x1,%edi
      thread_data[x].group_data = group_data;
    2c08:	48 8b 9c 24 00 01 00 00 	mov    0x100(%rsp),%rbx
    2c10:	48 8d 35 e1 6d 00 00 	lea    0x6de1(%rip),%rsi        # 99f8 <_IO_stdin_used+0x9f8>
      thread_data[x].global = global;
    2c17:	4c 89 4c 24 08       	mov    %r9,0x8(%rsp)
      thread_data[x].all_groups = all_groups;
    2c1c:	49 89 81 e8 00 00 00 	mov    %rax,0xe8(%r9)
      thread_data[x].global = global;
    2c23:	48 8b 84 24 e0 00 00 00 	mov    0xe0(%rsp),%rax
      thread_data[x].group_data = group_data;
    2c2b:	49 89 99 e0 00 00 00 	mov    %rbx,0xe0(%r9)
      thread_data[x].group = k;
    2c32:	41 89 91 f0 00 00 00 	mov    %edx,0xf0(%r9)
      thread_data[x].global = global;
    2c39:	49 89 81 f8 00 00 00 	mov    %rax,0xf8(%r9)
    2c40:	31 c0                	xor    %eax,%eax
    2c42:	e8 79 f8 ff ff       	call   24c0 <__printf_chk@plt>
      struct KernelThread **my_thread_data = calloc(2, sizeof(struct KernelThread*)); 
    2c47:	be 08 00 00 00       	mov    $0x8,%esi
    2c4c:	bf 02 00 00 00       	mov    $0x2,%edi
    2c51:	e8 ba f7 ff ff       	call   2410 <calloc@plt>
      group_data->threads[group_thread_count++] = &thread_data[x];  
    2c56:	4c 8b 4c 24 08       	mov    0x8(%rsp),%r9
      cpu_set_t *sendercpu = calloc(1, sizeof(cpu_set_t));
    2c5b:	be 80 00 00 00       	mov    $0x80,%esi
    2c60:	bf 01 00 00 00       	mov    $0x1,%edi
      struct KernelThread **my_thread_data = calloc(2, sizeof(struct KernelThread*)); 
    2c65:	48 89 c5             	mov    %rax,%rbp
      group_data->threads[group_thread_count++] = &thread_data[x];  
    2c68:	48 8b 83 88 00 00 00 	mov    0x88(%rbx),%rax
    2c6f:	48 8b 5c 24 68       	mov    0x68(%rsp),%rbx
    2c74:	4c 89 0c 18          	mov    %r9,(%rax,%rbx,1)
      cpu_set_t *sendercpu = calloc(1, sizeof(cpu_set_t));
    2c78:	e8 93 f7 ff ff       	call   2410 <calloc@plt>
      if (x % 2 == 1) {
    2c7d:	45 89 f0             	mov    %r14d,%r8d
    2c80:	4c 8b 4c 24 08       	mov    0x8(%rsp),%r9
    2c85:	41 83 e0 01          	and    $0x1,%r8d
      cpu_set_t *sendercpu = calloc(1, sizeof(cpu_set_t));
    2c89:	48 89 c3             	mov    %rax,%rbx
      if (x % 2 == 1) {
    2c8c:	44 89 44 24 58       	mov    %r8d,0x58(%rsp)
    2c91:	0f 84 bf 0a 00 00    	je     3756 <main+0x1096>
        other = abs(x - 1) % total_threads;
    2c97:	41 8d 46 ff          	lea    -0x1(%r14),%eax
    2c9b:	41 8d 7e 01          	lea    0x1(%r14),%edi
        my_thread_data[0] = &thread_data[other]; 
    2c9f:	48 8d 14 c0          	lea    (%rax,%rax,8),%rdx
        other = abs(x - 1) % total_threads;
    2ca3:	48 89 c1             	mov    %rax,%rcx
        my_thread_data[0] = &thread_data[other]; 
    2ca6:	48 8b 44 24 38       	mov    0x38(%rsp),%rax
    2cab:	89 bc 24 88 00 00 00 	mov    %edi,0x88(%rsp)
    2cb2:	48 c1 e2 05          	shl    $0x5,%rdx
    2cb6:	48 01 c2             	add    %rax,%rdx
          thread_data[x].tasks[y].message = messaged;
          thread_data[x].tasks[y].sending = 1;
          thread_data[x].tasks[y].snapshot_count = 99;
          thread_data[x].tasks[y].snapshots = calloc(thread_data[x].tasks[y].snapshot_count, sizeof(struct Snapshot));
          thread_data[x].tasks[y].current_snapshot = 0;
          thread_data[x].tasks[y].thread_index = my_thread_data[me_thread]->thread_index;
    2cb9:	48 8d 45 08          	lea    0x8(%rbp),%rax
    2cbd:	48 89 44 24 40       	mov    %rax,0x40(%rsp)
    2cc2:	4c 89 c8             	mov    %r9,%rax
        my_thread_data[1] = &thread_data[x]; 
    2cc5:	48 89 45 08          	mov    %rax,0x8(%rbp)
        thread_data[x].protected_state = &protected_state[k];
    2cc9:	48 8b 84 24 a0 00 00 00 	mov    0xa0(%rsp),%rax
    2cd1:	48 8d 35 50 6d 00 00 	lea    0x6d50(%rip),%rsi        # 9a28 <_IO_stdin_used+0xa28>
    2cd8:	bf 01 00 00 00       	mov    $0x1,%edi
        thread_data[x].thread_index = 1;
    2cdd:	45 89 41 04          	mov    %r8d,0x4(%r9)
        thread_data[x].protected_state = &protected_state[k];
    2ce1:	49 89 41 48          	mov    %rax,0x48(%r9)
    2ce5:	31 c0                	xor    %eax,%eax
        my_thread_data[0] = &thread_data[other]; 
    2ce7:	48 89 55 00          	mov    %rdx,0x0(%rbp)
    2ceb:	44 89 f2             	mov    %r14d,%edx
        thread_data[x].protected_state = &protected_state[k];
    2cee:	4c 89 4c 24 10       	mov    %r9,0x10(%rsp)
    2cf3:	89 4c 24 08          	mov    %ecx,0x8(%rsp)
    2cf7:	e8 c4 f7 ff ff       	call   24c0 <__printf_chk@plt>
      thread_data[x].other = other;
    2cfc:	8b 4c 24 08          	mov    0x8(%rsp),%ecx
    2d00:	4c 8b 4c 24 10       	mov    0x10(%rsp),%r9
    2d05:	31 c0                	xor    %eax,%eax
    2d07:	44 89 f2             	mov    %r14d,%edx
    2d0a:	48 8d 35 47 6d 00 00 	lea    0x6d47(%rip),%rsi        # 9a58 <_IO_stdin_used+0xa58>
    2d11:	bf 01 00 00 00       	mov    $0x1,%edi
    2d16:	41 89 89 c0 00 00 00 	mov    %ecx,0xc0(%r9)
    2d1d:	8b 8c 24 80 00 00 00 	mov    0x80(%rsp),%ecx
    2d24:	4c 89 4c 24 08       	mov    %r9,0x8(%rsp)
    2d29:	e8 92 f7 ff ff       	call   24c0 <__printf_chk@plt>
        if (x < thread_count) {
    2d2e:	41 83 fe 01          	cmp    $0x1,%r14d
    2d32:	4c 8b 4c 24 08       	mov    0x8(%rsp),%r9
    2d37:	0f 8f 71 13 00 00    	jg     40ae <main+0x19ee>
          CPU_SET(curcpu, sendercpu);
    2d3d:	48 63 84 24 80 00 00 00 	movslq 0x80(%rsp),%rax
    2d45:	48 89 c7             	mov    %rax,%rdi
    2d48:	48 3d ff 03 00 00    	cmp    $0x3ff,%rax
    2d4e:	77 12                	ja     2d62 <main+0x6a2>
    2d50:	48 c1 e8 06          	shr    $0x6,%rax
    2d54:	ba 01 00 00 00       	mov    $0x1,%edx
    2d59:	89 f9                	mov    %edi,%ecx
    2d5b:	48 d3 e2             	shl    %cl,%rdx
    2d5e:	48 09 14 c3          	or     %rdx,(%rbx,%rax,8)
          curcpu += 2;
    2d62:	83 84 24 80 00 00 00 02 	addl   $0x2,0x80(%rsp)
      thread_data[x].real_thread_index = x;
    2d6a:	45 89 71 08          	mov    %r14d,0x8(%r9)
      thread_data[x].start = calloc(timestamp_limit, sizeof(struct timespec));
    2d6e:	be 10 00 00 00       	mov    $0x10,%esi
    2d73:	bf 64 00 00 00       	mov    $0x64,%edi
      thread_data[x].swapmutex = swapmutex;
    2d78:	48 8b 84 24 f0 00 00 00 	mov    0xf0(%rsp),%rax
      thread_data[x].cpu_set = sendercpu;
    2d80:	49 89 99 b8 00 00 00 	mov    %rbx,0xb8(%r9)
      thread_data[x].swapmutex = swapmutex;
    2d87:	49 89 81 d0 00 00 00 	mov    %rax,0xd0(%r9)
      thread_data[x].mswapmutex = mswapmutex;
    2d8e:	48 8b 84 24 e8 00 00 00 	mov    0xe8(%rsp),%rax
      thread_data[x].threads = my_thread_data;
    2d96:	49 89 69 18          	mov    %rbp,0x18(%r9)
        for (int y = 0 ; y < total_barrier_count ; y++) {
    2d9a:	31 ed                	xor    %ebp,%ebp
      thread_data[x].mswapmutex = mswapmutex;
    2d9c:	49 89 81 d8 00 00 00 	mov    %rax,0xd8(%r9)
      thread_data[x].all_threads = thread_data;
    2da3:	48 8b 44 24 38       	mov    0x38(%rsp),%rax
      thread_data[x].kind = KERNEL_THREAD;
    2da8:	41 c7 01 5f 00 00 00 	movl   $0x5f,(%r9)
      thread_data[x].all_threads = thread_data;
    2daf:	49 89 41 20          	mov    %rax,0x20(%r9)
      thread_data[x].group_count = group_count;
    2db3:	48 8b 05 0e 72 00 00 	mov    0x720e(%rip),%rax        # 9fc8 <_IO_stdin_used+0xfc8>
      thread_data[x].task_count = total_barrier_count;
    2dba:	41 c7 41 40 03 00 00 00 	movl   $0x3,0x40(%r9)
      thread_data[x].group_count = group_count;
    2dc2:	49 89 81 c8 00 00 00 	mov    %rax,0xc8(%r9)
      thread_data[x].thread_count = 2;
    2dc9:	48 8b 05 00 72 00 00 	mov    0x7200(%rip),%rax        # 9fd0 <_IO_stdin_used+0xfd0>
      thread_data[x].task_count = total_barrier_count;
    2dd0:	4c 89 4c 24 08       	mov    %r9,0x8(%rsp)
      thread_data[x].thread_count = 2;
    2dd5:	49 89 41 28          	mov    %rax,0x28(%r9)
      thread_data[x].start = calloc(timestamp_limit, sizeof(struct timespec));
    2dd9:	e8 32 f6 ff ff       	call   2410 <calloc@plt>
    2dde:	4c 8b 4c 24 08       	mov    0x8(%rsp),%r9
      thread_data[x].end = calloc(timestamp_limit, sizeof(struct timespec));
    2de3:	be 10 00 00 00       	mov    $0x10,%esi
    2de8:	bf 64 00 00 00       	mov    $0x64,%edi
      thread_data[x].start = calloc(timestamp_limit, sizeof(struct timespec));
    2ded:	49 89 41 70          	mov    %rax,0x70(%r9)
      thread_data[x].end = calloc(timestamp_limit, sizeof(struct timespec));
    2df1:	e8 1a f6 ff ff       	call   2410 <calloc@plt>
    2df6:	4c 8b 4c 24 08       	mov    0x8(%rsp),%r9
      thread_data[x].task_snapshot = calloc(timestamp_limit, sizeof(struct TaskSnapshot));
    2dfb:	be 28 00 00 00       	mov    $0x28,%esi
      thread_data[x].timestamp_count = 0;
    2e00:	66 0f 6f 3d 88 71 00 00 	movdqa 0x7188(%rip),%xmm7        # 9f90 <_IO_stdin_used+0xf90>
      thread_data[x].task_snapshot = calloc(timestamp_limit, sizeof(struct TaskSnapshot));
    2e08:	bf 64 00 00 00       	mov    $0x64,%edi
      thread_data[x].end = calloc(timestamp_limit, sizeof(struct timespec));
    2e0d:	49 89 41 78          	mov    %rax,0x78(%r9)
      thread_data[x].timestamp_count = 0;
    2e11:	41 0f 11 b9 88 00 00 00 	movups %xmm7,0x88(%r9)
      thread_data[x].task_snapshot = calloc(timestamp_limit, sizeof(struct TaskSnapshot));
    2e19:	e8 f2 f5 ff ff       	call   2410 <calloc@plt>
    2e1e:	4c 8b 4c 24 08       	mov    0x8(%rsp),%r9
        struct BarrierTask *barriers = calloc(total_barrier_count, sizeof(struct BarrierTask));
    2e23:	bf 03 00 00 00       	mov    $0x3,%edi
      thread_data[x].task_timestamp_count = 0;
    2e28:	66 0f 6f 35 60 71 00 00 	movdqa 0x7160(%rip),%xmm6        # 9f90 <_IO_stdin_used+0xf90>
        struct BarrierTask *barriers = calloc(total_barrier_count, sizeof(struct BarrierTask));
    2e30:	be 00 02 00 00       	mov    $0x200,%esi
      thread_data[x].task_snapshot = calloc(timestamp_limit, sizeof(struct TaskSnapshot));
    2e35:	49 89 81 98 00 00 00 	mov    %rax,0x98(%r9)
      thread_data[x].task_timestamp_count = 0;
    2e3c:	41 0f 11 b1 a0 00 00 00 	movups %xmm6,0xa0(%r9)
        struct BarrierTask *barriers = calloc(total_barrier_count, sizeof(struct BarrierTask));
    2e44:	e8 c7 f5 ff ff       	call   2410 <calloc@plt>
        thread_data[x].tasks = barriers;
    2e49:	4c 8b 4c 24 08       	mov    0x8(%rsp),%r9
            data[0].messages_count = 0;
    2e4e:	44 89 74 24 18       	mov    %r14d,0x18(%rsp)
    2e53:	45 89 fe             	mov    %r15d,%r14d
                mailboxes[b].other = abs((x + 1) % mailboxes_needed);
    2e56:	48 63 bc 24 88 00 00 00 	movslq 0x88(%rsp),%rdi
        struct BarrierTask *barriers = calloc(total_barrier_count, sizeof(struct BarrierTask));
    2e5e:	48 89 c2             	mov    %rax,%rdx
        thread_data[x].tasks = barriers;
    2e61:	49 89 41 38          	mov    %rax,0x38(%r9)
                mailboxes[b].other = abs((x + 1) % mailboxes_needed);
    2e65:	48 89 fb             	mov    %rdi,%rbx
    2e68:	48 69 ff ab aa aa 2a 	imul   $0x2aaaaaab,%rdi,%rdi
            data[0].messages_count = 0;
    2e6f:	4c 89 4c 24 48       	mov    %r9,0x48(%rsp)
                mailboxes[b].other = abs((x + 1) % mailboxes_needed);
    2e74:	89 d8                	mov    %ebx,%eax
    2e76:	c1 f8 1f             	sar    $0x1f,%eax
    2e79:	48 c1 ef 20          	shr    $0x20,%rdi
    2e7d:	29 c7                	sub    %eax,%edi
    2e7f:	8d 04 7f             	lea    (%rdi,%rdi,2),%eax
    2e82:	01 c0                	add    %eax,%eax
    2e84:	29 c3                	sub    %eax,%ebx
            data[0].messages_count = 0;
    2e86:	89 9c 24 8c 00 00 00 	mov    %ebx,0x8c(%rsp)
          thread_data[x].tasks[y].protected = do_protected_write; 
    2e8d:	48 63 c5             	movslq %ebp,%rax
          struct Mailbox *mailboxes = calloc(mailboxes_needed, sizeof(struct Mailbox));
    2e90:	be 00 01 00 00       	mov    $0x100,%esi
    2e95:	bf 06 00 00 00       	mov    $0x6,%edi
          for (int b = 0 ; b < mailboxes_needed ; b++) {
    2e9a:	45 31 ff             	xor    %r15d,%r15d
          thread_data[x].tasks[y].protected = do_protected_write; 
    2e9d:	48 89 44 24 30       	mov    %rax,0x30(%rsp)
    2ea2:	48 c1 e0 09          	shl    $0x9,%rax
    2ea6:	48 8d 1c 02          	lea    (%rdx,%rax,1),%rbx
    2eaa:	48 89 44 24 28       	mov    %rax,0x28(%rsp)
    2eaf:	48 8d 05 2a 1b 00 00 	lea    0x1b2a(%rip),%rax        # 49e0 <do_protected_write>
    2eb6:	48 89 83 20 01 00 00 	mov    %rax,0x120(%rbx)
          struct Mailbox *mailboxes = calloc(mailboxes_needed, sizeof(struct Mailbox));
    2ebd:	e8 4e f5 ff ff       	call   2410 <calloc@plt>
    2ec2:	8b 74 24 58          	mov    0x58(%rsp),%esi
          thread_data[x].tasks[y].mailboxes = mailboxes;
    2ec6:	48 89 83 70 01 00 00 	mov    %rax,0x170(%rbx)
          struct Mailbox *mailboxes = calloc(mailboxes_needed, sizeof(struct Mailbox));
    2ecd:	48 89 c1             	mov    %rax,%rcx
          for (int b = 0 ; b < mailboxes_needed ; b++) {
    2ed0:	85 f6                	test   %esi,%esi
    2ed2:	0f 84 84 01 00 00    	je     305c <main+0x99c>
                mailboxes[b].other = abs((x - 1) % mailboxes_needed);
    2ed8:	8b 44 24 18          	mov    0x18(%rsp),%eax
    2edc:	48 89 8c 24 90 00 00 00 	mov    %rcx,0x90(%rsp)
    2ee4:	48 89 cb             	mov    %rcx,%rbx
    2ee7:	45 89 fc             	mov    %r15d,%r12d
    2eea:	83 e8 01             	sub    $0x1,%eax
    2eed:	89 44 24 70          	mov    %eax,0x70(%rsp)
    2ef1:	eb 1a                	jmp    2f0d <main+0x84d>
    2ef3:	0f 1f 44 00 00       	nopl   0x0(%rax,%rax,1)
          for (int b = 0 ; b < mailboxes_needed ; b++) {
    2ef8:	41 83 c4 01          	add    $0x1,%r12d
    2efc:	48 81 c3 00 01 00 00 	add    $0x100,%rbx
    2f03:	41 83 fc 06          	cmp    $0x6,%r12d
    2f07:	0f 84 ca 02 00 00    	je     31d7 <main+0xb17>
            int group_of = b / threads_per_group;
    2f0d:	45 89 e7             	mov    %r12d,%r15d
    2f10:	31 c0                	xor    %eax,%eax
    2f12:	44 89 e2             	mov    %r12d,%edx
    2f15:	bf 01 00 00 00       	mov    $0x1,%edi
    2f1a:	41 d1 ff             	sar    %r15d
    2f1d:	48 8d 35 88 65 00 00 	lea    0x6588(%rip),%rsi        # 94ac <_IO_stdin_used+0x4ac>
    2f24:	44 89 f9             	mov    %r15d,%ecx
    2f27:	e8 94 f5 ff ff       	call   24c0 <__printf_chk@plt>
            if (k == group_of) {
    2f2c:	45 39 ef             	cmp    %r13d,%r15d
    2f2f:	75 c7                	jne    2ef8 <main+0x838>
              struct Message **messages = calloc(messages_limit, sizeof(struct Message*));
    2f31:	be 08 00 00 00       	mov    $0x8,%esi
    2f36:	bf 01 00 00 00       	mov    $0x1,%edi
    2f3b:	e8 d0 f4 ff ff       	call   2410 <calloc@plt>
              struct Message **messages2 = calloc(messages_limit, sizeof(struct Message*));
    2f40:	be 08 00 00 00       	mov    $0x8,%esi
    2f45:	bf 01 00 00 00       	mov    $0x1,%edi
              struct Message **messages = calloc(messages_limit, sizeof(struct Message*));
    2f4a:	48 89 44 24 10       	mov    %rax,0x10(%rsp)
              struct Message **messages2 = calloc(messages_limit, sizeof(struct Message*));
    2f4f:	e8 bc f4 ff ff       	call   2410 <calloc@plt>
              struct Data *data = calloc(3, sizeof(struct Data));
    2f54:	be 80 04 00 00       	mov    $0x480,%esi
    2f59:	bf 03 00 00 00       	mov    $0x3,%edi
              struct Message **messages2 = calloc(messages_limit, sizeof(struct Message*));
    2f5e:	48 89 44 24 08       	mov    %rax,0x8(%rsp)
              struct Data *data = calloc(3, sizeof(struct Data));
    2f63:	e8 a8 f4 ff ff       	call   2410 <calloc@plt>
              data[0].a = x;
    2f68:	8b 7c 24 18          	mov    0x18(%rsp),%edi
    2f6c:	44 89 e2             	mov    %r12d,%edx
              mailboxes[b].pending_lower = NULL;
    2f6f:	48 c7 83 88 00 00 00 00 00 00 00 	movq   $0x0,0x88(%rbx)
              struct Data *data = calloc(3, sizeof(struct Data));
    2f7a:	49 89 c7             	mov    %rax,%r15
              data[0].b = y;
    2f7d:	89 a8 10 04 00 00    	mov    %ebp,0x410(%rax)
    2f83:	48 8d 35 ee 6a 00 00 	lea    0x6aee(%rip),%rsi        # 9a78 <_IO_stdin_used+0xa78>
              data[0].a = x;
    2f8a:	89 b8 0c 04 00 00    	mov    %edi,0x40c(%rax)
              data[0].kind = MAILBOX_LOWER;
    2f90:	c7 80 08 04 00 00 01 00 00 00 	movl   $0x1,0x408(%rax)
              data[0].c = b;
    2f9a:	44 89 a0 14 04 00 00 	mov    %r12d,0x414(%rax)
              data[0].id = dataid++;
    2fa1:	41 8d 46 01          	lea    0x1(%r14),%eax
              data[1].id = dataid++;
    2fa5:	41 89 87 98 08 00 00 	mov    %eax,0x898(%r15)
              mailboxes[b].higher = &data[1];
    2fac:	49 8d 87 80 04 00 00 	lea    0x480(%r15),%rax
    2fb3:	48 89 83 80 00 00 00 	mov    %rax,0x80(%rbx)
    2fba:	8b 44 24 70          	mov    0x70(%rsp),%eax
              data[0].id = dataid++;
    2fbe:	45 89 b7 18 04 00 00 	mov    %r14d,0x418(%r15)
              data[1].id = dataid++;
    2fc5:	41 83 c6 02          	add    $0x2,%r14d
              data[1].a = x;
    2fc9:	41 89 bf 8c 08 00 00 	mov    %edi,0x88c(%r15)
    2fd0:	89 c1                	mov    %eax,%ecx
    2fd2:	bf 01 00 00 00       	mov    $0x1,%edi
    2fd7:	89 83 b4 00 00 00    	mov    %eax,0xb4(%rbx)
    2fdd:	31 c0                	xor    %eax,%eax
              data[1].kind = MAILBOX_HIGHER;
    2fdf:	41 c7 87 88 08 00 00 02 00 00 00 	movl   $0x2,0x888(%r15)
              data[1].b = y;
    2fea:	41 89 af 90 08 00 00 	mov    %ebp,0x890(%r15)
              data[1].c = b;
    2ff1:	45 89 a7 94 08 00 00 	mov    %r12d,0x894(%r15)
              mailboxes[b].lower = &data[0];
    2ff8:	4c 89 3b             	mov    %r15,(%rbx)
              mailboxes[b].pending_higher = NULL;
    2ffb:	48 c7 83 90 00 00 00 00 00 00 00 	movq   $0x0,0x90(%rbx)
              data[0].finished_reading = 1;
    3006:	41 c7 87 00 03 00 00 01 00 00 00 	movl   $0x1,0x300(%r15)
              data[1].finished_reading = 1;
    3011:	41 c7 87 80 07 00 00 01 00 00 00 	movl   $0x1,0x780(%r15)
              mailboxes[b].kind = MAILBOX_FRIEND;
    301c:	c7 83 b0 00 00 00 01 00 00 00 	movl   $0x1,0xb0(%rbx)
    3026:	e8 95 f4 ff ff       	call   24c0 <__printf_chk@plt>
              data[0].messages = messages;
    302b:	4c 8b 5c 24 10       	mov    0x10(%rsp),%r11
              data[1].messages = messages2;
    3030:	4c 8b 54 24 08       	mov    0x8(%rsp),%r10
              data[0].messages_count = 0;
    3035:	66 0f 6f 35 63 6f 00 00 	movdqa 0x6f63(%rip),%xmm6        # 9fa0 <_IO_stdin_used+0xfa0>
              data[0].messages = messages;
    303d:	4d 89 1f             	mov    %r11,(%r15)
              data[1].messages = messages2;
    3040:	4d 89 97 80 04 00 00 	mov    %r10,0x480(%r15)
              data[0].messages_count = 0;
    3047:	41 0f 29 b7 80 00 00 00 	movaps %xmm6,0x80(%r15)
              data[1].messages_count = 0;
    304f:	41 0f 29 b7 00 05 00 00 	movaps %xmm6,0x500(%r15)
    3057:	e9 9c fe ff ff       	jmp    2ef8 <main+0x838>
    305c:	48 89 44 24 70       	mov    %rax,0x70(%rsp)
    3061:	48 89 c3             	mov    %rax,%rbx
    3064:	45 89 fc             	mov    %r15d,%r12d
    3067:	eb 1c                	jmp    3085 <main+0x9c5>
    3069:	0f 1f 80 00 00 00 00 	nopl   0x0(%rax)
          for (int b = 0 ; b < mailboxes_needed ; b++) {
    3070:	41 83 c4 01          	add    $0x1,%r12d
    3074:	48 81 c3 00 01 00 00 	add    $0x100,%rbx
    307b:	41 83 fc 06          	cmp    $0x6,%r12d
    307f:	0f 84 8c 05 00 00    	je     3611 <main+0xf51>
            int group_of = b / threads_per_group;
    3085:	45 89 e7             	mov    %r12d,%r15d
    3088:	31 c0                	xor    %eax,%eax
    308a:	44 89 e2             	mov    %r12d,%edx
    308d:	bf 01 00 00 00       	mov    $0x1,%edi
    3092:	41 d1 ff             	sar    %r15d
    3095:	48 8d 35 10 64 00 00 	lea    0x6410(%rip),%rsi        # 94ac <_IO_stdin_used+0x4ac>
    309c:	44 89 f9             	mov    %r15d,%ecx
    309f:	e8 1c f4 ff ff       	call   24c0 <__printf_chk@plt>
            if (k == group_of) {
    30a4:	45 39 ef             	cmp    %r13d,%r15d
    30a7:	75 c7                	jne    3070 <main+0x9b0>
              struct Message **messages = calloc(messages_limit, sizeof(struct Message*));
    30a9:	be 08 00 00 00       	mov    $0x8,%esi
    30ae:	bf 01 00 00 00       	mov    $0x1,%edi
    30b3:	e8 58 f3 ff ff       	call   2410 <calloc@plt>
              struct Message **messages2 = calloc(messages_limit, sizeof(struct Message*));
    30b8:	be 08 00 00 00       	mov    $0x8,%esi
    30bd:	bf 01 00 00 00       	mov    $0x1,%edi
              struct Message **messages = calloc(messages_limit, sizeof(struct Message*));
    30c2:	48 89 44 24 10       	mov    %rax,0x10(%rsp)
              struct Message **messages2 = calloc(messages_limit, sizeof(struct Message*));
    30c7:	e8 44 f3 ff ff       	call   2410 <calloc@plt>
              struct Data *data = calloc(3, sizeof(struct Data));
    30cc:	be 80 04 00 00       	mov    $0x480,%esi
    30d1:	bf 03 00 00 00       	mov    $0x3,%edi
              struct Message **messages2 = calloc(messages_limit, sizeof(struct Message*));
    30d6:	48 89 44 24 08       	mov    %rax,0x8(%rsp)
              struct Data *data = calloc(3, sizeof(struct Data));
    30db:	e8 30 f3 ff ff       	call   2410 <calloc@plt>
              data[0].a = x;
    30e0:	8b 7c 24 18          	mov    0x18(%rsp),%edi
    30e4:	44 89 e2             	mov    %r12d,%edx
              mailboxes[b].pending_lower = NULL;
    30e7:	48 c7 83 88 00 00 00 00 00 00 00 	movq   $0x0,0x88(%rbx)
              struct Data *data = calloc(3, sizeof(struct Data));
    30f2:	49 89 c7             	mov    %rax,%r15
              data[0].b = y;
    30f5:	89 a8 10 04 00 00    	mov    %ebp,0x410(%rax)
    30fb:	48 8d 35 76 69 00 00 	lea    0x6976(%rip),%rsi        # 9a78 <_IO_stdin_used+0xa78>
              data[0].a = x;
    3102:	89 b8 0c 04 00 00    	mov    %edi,0x40c(%rax)
              data[0].kind = MAILBOX_LOWER;
    3108:	c7 80 08 04 00 00 01 00 00 00 	movl   $0x1,0x408(%rax)
              data[0].c = b;
    3112:	44 89 a0 14 04 00 00 	mov    %r12d,0x414(%rax)
              data[0].id = dataid++;
    3119:	41 8d 46 01          	lea    0x1(%r14),%eax
              data[1].id = dataid++;
    311d:	41 89 87 98 08 00 00 	mov    %eax,0x898(%r15)
              mailboxes[b].higher = &data[1];
    3124:	49 8d 87 80 04 00 00 	lea    0x480(%r15),%rax
    312b:	48 89 83 80 00 00 00 	mov    %rax,0x80(%rbx)
    3132:	8b 84 24 8c 00 00 00 	mov    0x8c(%rsp),%eax
              data[0].id = dataid++;
    3139:	45 89 b7 18 04 00 00 	mov    %r14d,0x418(%r15)
              data[1].id = dataid++;
    3140:	41 83 c6 02          	add    $0x2,%r14d
              data[1].a = x;
    3144:	41 89 bf 8c 08 00 00 	mov    %edi,0x88c(%r15)
    314b:	89 c1                	mov    %eax,%ecx
    314d:	bf 01 00 00 00       	mov    $0x1,%edi
    3152:	89 83 b4 00 00 00    	mov    %eax,0xb4(%rbx)
    3158:	31 c0                	xor    %eax,%eax
              data[1].kind = MAILBOX_HIGHER;
    315a:	41 c7 87 88 08 00 00 02 00 00 00 	movl   $0x2,0x888(%r15)
              data[1].b = y;
    3165:	41 89 af 90 08 00 00 	mov    %ebp,0x890(%r15)
              data[1].c = b;
    316c:	45 89 a7 94 08 00 00 	mov    %r12d,0x894(%r15)
              mailboxes[b].lower = &data[0];
    3173:	4c 89 3b             	mov    %r15,(%rbx)
              mailboxes[b].pending_higher = NULL;
    3176:	48 c7 83 90 00 00 00 00 00 00 00 	movq   $0x0,0x90(%rbx)
              data[0].finished_reading = 1;
    3181:	41 c7 87 00 03 00 00 01 00 00 00 	movl   $0x1,0x300(%r15)
              data[1].finished_reading = 1;
    318c:	41 c7 87 80 07 00 00 01 00 00 00 	movl   $0x1,0x780(%r15)
              mailboxes[b].kind = MAILBOX_FRIEND;
    3197:	c7 83 b0 00 00 00 01 00 00 00 	movl   $0x1,0xb0(%rbx)
    31a1:	e8 1a f3 ff ff       	call   24c0 <__printf_chk@plt>
              data[0].messages = messages;
    31a6:	4c 8b 5c 24 10       	mov    0x10(%rsp),%r11
              data[1].messages = messages2;
    31ab:	4c 8b 54 24 08       	mov    0x8(%rsp),%r10
              data[0].messages_count = 0;
    31b0:	66 0f 6f 35 e8 6d 00 00 	movdqa 0x6de8(%rip),%xmm6        # 9fa0 <_IO_stdin_used+0xfa0>
              data[0].messages = messages;
    31b8:	4d 89 1f             	mov    %r11,(%r15)
              data[1].messages = messages2;
    31bb:	4d 89 97 80 04 00 00 	mov    %r10,0x480(%r15)
              data[0].messages_count = 0;
    31c2:	41 0f 29 b7 80 00 00 00 	movaps %xmm6,0x80(%r15)
              data[1].messages_count = 0;
    31ca:	41 0f 29 b7 00 05 00 00 	movaps %xmm6,0x500(%r15)
    31d2:	e9 99 fe ff ff       	jmp    3070 <main+0x9b0>
    31d7:	48 8b 8c 24 90 00 00 00 	mov    0x90(%rsp),%rcx
    31df:	4c 89 6c 24 08       	mov    %r13,0x8(%rsp)
          for (int b = 0 ; b < mailboxes_needed ; b++) {
    31e4:	31 db                	xor    %ebx,%ebx
    31e6:	49 89 cf             	mov    %rcx,%r15
    31e9:	0f 1f 80 00 00 00 00 	nopl   0x0(%rax)
            int group_of = b / threads_per_group;
    31f0:	89 d8                	mov    %ebx,%eax
            if (k == group_of) {
    31f2:	8b 7c 24 08          	mov    0x8(%rsp),%edi
            int group_of = b / threads_per_group;
    31f6:	d1 f8                	sar    %eax
            if (k == group_of) {
    31f8:	39 f8                	cmp    %edi,%eax
    31fa:	0f 84 82 01 00 00    	je     3382 <main+0xcc2>
    3200:	89 da                	mov    %ebx,%edx
    3202:	48 8d 35 b3 62 00 00 	lea    0x62b3(%rip),%rsi        # 94bc <_IO_stdin_used+0x4bc>
    3209:	bf 01 00 00 00       	mov    $0x1,%edi
    320e:	31 c0                	xor    %eax,%eax
    3210:	e8 ab f2 ff ff       	call   24c0 <__printf_chk@plt>
            struct Message **messages = calloc(messages_limit, sizeof(struct Message*));
    3215:	be 08 00 00 00       	mov    $0x8,%esi
    321a:	bf 01 00 00 00       	mov    $0x1,%edi
    321f:	e8 ec f1 ff ff       	call   2410 <calloc@plt>
            struct Message **messages2 = calloc(messages_limit, sizeof(struct Message*));
    3224:	be 08 00 00 00       	mov    $0x8,%esi
    3229:	bf 01 00 00 00       	mov    $0x1,%edi
            struct Message **messages = calloc(messages_limit, sizeof(struct Message*));
    322e:	48 89 44 24 10       	mov    %rax,0x10(%rsp)
            struct Message **messages2 = calloc(messages_limit, sizeof(struct Message*));
    3233:	e8 d8 f1 ff ff       	call   2410 <calloc@plt>
            struct Data *data = calloc(3, sizeof(struct Data));
    3238:	be 80 04 00 00       	mov    $0x480,%esi
    323d:	bf 03 00 00 00       	mov    $0x3,%edi
            struct Message **messages2 = calloc(messages_limit, sizeof(struct Message*));
    3242:	49 89 c5             	mov    %rax,%r13
            struct Data *data = calloc(3, sizeof(struct Data));
    3245:	e8 c6 f1 ff ff       	call   2410 <calloc@plt>
            struct Data **stack = calloc(3, sizeof(struct Data));
    324a:	be 80 04 00 00       	mov    $0x480,%esi
    324f:	bf 03 00 00 00       	mov    $0x3,%edi
            struct Data *data = calloc(3, sizeof(struct Data));
    3254:	49 89 c4             	mov    %rax,%r12
            struct Data **stack = calloc(3, sizeof(struct Data));
    3257:	e8 b4 f1 ff ff       	call   2410 <calloc@plt>
            data[0].a = x;
    325c:	8b 7c 24 18          	mov    0x18(%rsp),%edi
            data[0].id = dataid++;
    3260:	41 8d 76 01          	lea    0x1(%r14),%esi
            mailboxes[b].lower = &data[0];
    3264:	4d 89 27             	mov    %r12,(%r15)
            data[0].messages = messages;
    3267:	48 8b 54 24 10       	mov    0x10(%rsp),%rdx
            data[0].messages_count = 0;
    326c:	66 0f 6f 35 2c 6d 00 00 	movdqa 0x6d2c(%rip),%xmm6        # 9fa0 <_IO_stdin_used+0xfa0>
            data[1].id = dataid++;
    3274:	41 89 b4 24 98 08 00 00 	mov    %esi,0x898(%r12)
            mailboxes[b].higher = &data[1];
    327c:	49 8d b4 24 80 04 00 00 	lea    0x480(%r12),%rsi
            data[0].id = dataid++;
    3284:	45 89 b4 24 18 04 00 00 	mov    %r14d,0x418(%r12)
            data[1].id = dataid++;
    328c:	41 83 c6 02          	add    $0x2,%r14d
            data[0].kind = MAILBOX_LOWER;
    3290:	41 c7 84 24 08 04 00 00 01 00 00 00 	movl   $0x1,0x408(%r12)
            data[0].a = x;
    329c:	41 89 bc 24 0c 04 00 00 	mov    %edi,0x40c(%r12)
            data[0].b = y;
    32a4:	41 89 ac 24 10 04 00 00 	mov    %ebp,0x410(%r12)
            data[0].c = b;
    32ac:	41 89 9c 24 14 04 00 00 	mov    %ebx,0x414(%r12)
            data[1].kind = MAILBOX_HIGHER;
    32b4:	41 c7 84 24 88 08 00 00 02 00 00 00 	movl   $0x2,0x888(%r12)
            data[1].a = x;
    32c0:	41 89 bc 24 8c 08 00 00 	mov    %edi,0x88c(%r12)
            data[1].b = y;
    32c8:	41 89 ac 24 90 08 00 00 	mov    %ebp,0x890(%r12)
            data[1].c = b;
    32d0:	41 89 9c 24 94 08 00 00 	mov    %ebx,0x894(%r12)
            mailboxes[b].my_lower = &data[0];
    32d8:	4d 89 a7 a0 00 00 00 	mov    %r12,0xa0(%r15)
            mailboxes[b].higher = &data[1];
    32df:	49 89 b7 80 00 00 00 	mov    %rsi,0x80(%r15)
            mailboxes[b].pending_lower = NULL;
    32e6:	49 c7 87 88 00 00 00 00 00 00 00 	movq   $0x0,0x88(%r15)
            mailboxes[b].pending_higher = NULL;
    32f1:	49 c7 87 90 00 00 00 00 00 00 00 	movq   $0x0,0x90(%r15)
            data[0].finished_reading = 1;
    32fc:	41 c7 84 24 00 03 00 00 01 00 00 00 	movl   $0x1,0x300(%r12)
            data[1].finished_reading = 1;
    3308:	41 c7 84 24 80 07 00 00 01 00 00 00 	movl   $0x1,0x780(%r12)
            mailboxes[b].my_higher = &data[1];
    3314:	49 89 b7 a8 00 00 00 	mov    %rsi,0xa8(%r15)
            mailboxes[b].kind = MAILBOX_FOREIGN;
    331b:	41 c7 87 b0 00 00 00 02 00 00 00 	movl   $0x2,0xb0(%r15)
            stack[0] = mailboxes[b].lower;
    3326:	4c 89 20             	mov    %r12,(%rax)
            stack[1] = mailboxes[b].higher;
    3329:	48 89 70 08          	mov    %rsi,0x8(%rax)
            mailboxes[b].stack = (void**)stack;
    332d:	49 89 87 98 00 00 00 	mov    %rax,0x98(%r15)
            data[0].available_sending = 0;
    3334:	41 c7 84 24 00 01 00 00 00 00 00 00 	movl   $0x0,0x100(%r12)
            data[0].available_receiving = 0;
    3340:	41 c7 84 24 80 01 00 00 00 00 00 00 	movl   $0x0,0x180(%r12)
            data[0].messages = messages;
    334c:	49 89 14 24          	mov    %rdx,(%r12)
            data[1].messages = messages2;
    3350:	4d 89 ac 24 80 04 00 00 	mov    %r13,0x480(%r12)
            data[1].available_sending = 1;
    3358:	41 c7 84 24 80 05 00 00 01 00 00 00 	movl   $0x1,0x580(%r12)
            data[1].available_receiving = 0;
    3364:	41 c7 84 24 00 06 00 00 00 00 00 00 	movl   $0x0,0x600(%r12)
            data[0].messages_count = 0;
    3370:	41 0f 29 b4 24 80 00 00 00 	movaps %xmm6,0x80(%r12)
            data[1].messages_count = 0;
    3379:	41 0f 29 b4 24 00 05 00 00 	movaps %xmm6,0x500(%r12)
          for (int b = 0 ; b < mailboxes_needed ; b++) {
    3382:	83 c3 01             	add    $0x1,%ebx
    3385:	49 81 c7 00 01 00 00 	add    $0x100,%r15
    338c:	83 fb 06             	cmp    $0x6,%ebx
    338f:	0f 85 5b fe ff ff    	jne    31f0 <main+0xb30>
          char *message = malloc(sizeof(char) * 256);
    3395:	be 01 00 00 00       	mov    $0x1,%esi
    339a:	bf 00 01 00 00       	mov    $0x100,%edi
    339f:	4c 8b 6c 24 08       	mov    0x8(%rsp),%r13
    33a4:	e8 67 f0 ff ff       	call   2410 <calloc@plt>
          struct Message *messaged = malloc(sizeof(struct Message));
    33a9:	bf 20 00 00 00       	mov    $0x20,%edi
          char *message = malloc(sizeof(char) * 256);
    33ae:	48 89 c3             	mov    %rax,%rbx
          struct Message *messaged = malloc(sizeof(struct Message));
    33b1:	e8 ca f0 ff ff       	call   2480 <malloc@plt>
  return __builtin___sprintf_chk (__s, __USE_FORTIFY_LEVEL - 1,
    33b6:	48 83 ec 08          	sub    $0x8,%rsp
    33ba:	48 89 df             	mov    %rbx,%rdi
    33bd:	41 89 e9             	mov    %ebp,%r9d
    33c0:	48 89 44 24 10       	mov    %rax,0x10(%rsp)
    33c5:	44 8b 7c 24 58       	mov    0x58(%rsp),%r15d
    33ca:	ba 00 01 00 00       	mov    $0x100,%edx
    33cf:	31 c0                	xor    %eax,%eax
    33d1:	48 8d 0d c8 66 00 00 	lea    0x66c8(%rip),%rcx        # 9aa0 <_IO_stdin_used+0xaa0>
    33d8:	be 01 00 00 00       	mov    $0x1,%esi
    33dd:	41 57                	push   %r15
    33df:	44 8b 44 24 28       	mov    0x28(%rsp),%r8d
    33e4:	e8 d7 f1 ff ff       	call   25c0 <__sprintf_chk@plt>
          messaged->message = message;
    33e9:	4c 8b 5c 24 18       	mov    0x18(%rsp),%r11
          messaged->task_index = y;
    33ee:	48 8b 44 24 40       	mov    0x40(%rsp),%rax
          messaged->group = k;
    33f3:	44 89 ff             	mov    %r15d,%edi
          thread_data[x].tasks[y].snapshots = calloc(thread_data[x].tasks[y].snapshot_count, sizeof(struct Snapshot));
    33f6:	be 20 00 00 00       	mov    $0x20,%esi
          messaged->group = k;
    33fb:	45 89 7b 18          	mov    %r15d,0x18(%r11)
          messaged->thread_index = thread_data[x].real_thread_index;
    33ff:	4c 8b 7c 24 58       	mov    0x58(%rsp),%r15
          messaged->task_index = y;
    3404:	49 89 43 10          	mov    %rax,0x10(%r11)
          messaged->thread_index = thread_data[x].real_thread_index;
    3408:	49 63 47 08          	movslq 0x8(%r15),%rax
          thread_data[x].tasks[y].swap = swap;
    340c:	49 8b 57 38          	mov    0x38(%r15),%rdx
          messaged->message = message;
    3410:	49 89 1b             	mov    %rbx,(%r11)
          thread_data[x].tasks[y].swap = swap;
    3413:	48 8b 5c 24 38       	mov    0x38(%rsp),%rbx
          messaged->thread_index = thread_data[x].real_thread_index;
    3418:	49 89 43 08          	mov    %rax,0x8(%r11)
          thread_data[x].tasks[y].swap = swap;
    341c:	8b 44 24 30          	mov    0x30(%rsp),%eax
    3420:	48 01 d3             	add    %rdx,%rbx
    3423:	48 89 54 24 18       	mov    %rdx,0x18(%rsp)
    3428:	89 83 a0 01 00 00    	mov    %eax,0x1a0(%rbx)
          swap += 1;
    342e:	83 c0 01             	add    $0x1,%eax
    3431:	89 44 24 30          	mov    %eax,0x30(%rsp)
          thread_data[x].tasks[y].next_thread = (y + 1) % thread_count;
    3435:	8d 45 01             	lea    0x1(%rbp),%eax
    3438:	83 e0 01             	and    $0x1,%eax
          thread_data[x].tasks[y].group = k;
    343b:	89 bb 9c 01 00 00    	mov    %edi,0x19c(%rbx)
          thread_data[x].tasks[y].snapshots = calloc(thread_data[x].tasks[y].snapshot_count, sizeof(struct Snapshot));
    3441:	bf 63 00 00 00       	mov    $0x63,%edi
          thread_data[x].tasks[y].kind = BARRIER_TASK;
    3446:	c7 03 41 00 00 00    	movl   $0x41,(%rbx)
          thread_data[x].tasks[y].next_thread = (y + 1) % thread_count;
    344c:	89 83 98 01 00 00    	mov    %eax,0x198(%rbx)
          thread_data[x].tasks[y].message = messaged;
    3452:	4c 89 9b 90 01 00 00 	mov    %r11,0x190(%rbx)
          thread_data[x].tasks[y].sending = 1;
    3459:	c7 83 88 01 00 00 01 00 00 00 	movl   $0x1,0x188(%rbx)
          thread_data[x].tasks[y].snapshot_count = 99;
    3463:	48 c7 83 58 01 00 00 63 00 00 00 	movq   $0x63,0x158(%rbx)
          thread_data[x].tasks[y].snapshots = calloc(thread_data[x].tasks[y].snapshot_count, sizeof(struct Snapshot));
    346e:	e8 9d ef ff ff       	call   2410 <calloc@plt>
          thread_data[x].tasks[y].current_snapshot = 0;
    3473:	48 c7 83 60 01 00 00 00 00 00 00 	movq   $0x0,0x160(%rbx)
          thread_data[x].tasks[y].snapshots = calloc(thread_data[x].tasks[y].snapshot_count, sizeof(struct Snapshot));
    347e:	48 89 83 50 01 00 00 	mov    %rax,0x150(%rbx)
          thread_data[x].tasks[y].thread_index = my_thread_data[me_thread]->thread_index;
    3485:	48 8b 44 24 50       	mov    0x50(%rsp),%rax
    348a:	48 8b 00             	mov    (%rax),%rax
    348d:	8b 48 04             	mov    0x4(%rax),%ecx
          thread_data[x].tasks[y].thread = my_thread_data[me_thread]; 
          if (thread_data[x].tasks[y].thread != &thread_data[x]) {
    3490:	49 39 c7             	cmp    %rax,%r15
          thread_data[x].tasks[y].thread = my_thread_data[me_thread]; 
    3493:	48 89 83 28 01 00 00 	mov    %rax,0x128(%rbx)
          thread_data[x].tasks[y].thread_index = my_thread_data[me_thread]->thread_index;
    349a:	89 8b 30 01 00 00    	mov    %ecx,0x130(%rbx)
          if (thread_data[x].tasks[y].thread != &thread_data[x]) {
    34a0:	5a                   	pop    %rdx
    34a1:	59                   	pop    %rcx
    34a2:	48 8b 54 24 08       	mov    0x8(%rsp),%rdx
    34a7:	0f 85 26 14 00 00    	jne    48d3 <main+0x2213>
            exit(1);
          }
          thread_data[x].tasks[y].available = 1;
          thread_data[x].tasks[y].arrived = 0;
          thread_data[x].tasks[y].thread_count = 2;
    34ad:	66 0f 6f 05 fb 6a 00 00 	movdqa 0x6afb(%rip),%xmm0        # 9fb0 <_IO_stdin_used+0xfb0>
          thread_data[x].tasks[y].total_thread_count = thread_count;
          thread_data[x].tasks[y].all_thread_count = thread_count;
          thread_data[x].tasks[y].mailbox_thread_count = mailboxes_needed;
          thread_data[x].tasks[y].task_count = total_barrier_count;
          thread_data[x].tasks[y].worker_count = thread_count;
          thread_data[x].tasks[y].task_index = y;
    34b5:	89 6b 04             	mov    %ebp,0x4(%rbx)
          thread_data[x].tasks[y].available = 1;
    34b8:	48 8b 05 01 6b 00 00 	mov    0x6b01(%rip),%rax        # 9fc0 <_IO_stdin_used+0xfc0>
          thread_data[x].tasks[y].arrived = 0;
    34bf:	c7 83 80 00 00 00 00 00 00 00 	movl   $0x0,0x80(%rbx)
          thread_data[x].tasks[y].worker_count = thread_count;
    34c9:	c7 83 8c 01 00 00 02 00 00 00 	movl   $0x2,0x18c(%rbx)
          thread_data[x].tasks[y].available = 1;
    34d3:	48 89 83 44 01 00 00 	mov    %rax,0x144(%rbx)
          thread_data[x].tasks[y].thread_count = 2;
    34da:	0f 11 83 34 01 00 00 	movups %xmm0,0x134(%rbx)
          if (y == barrier_count - 1) {
    34e1:	83 fd 01             	cmp    $0x1,%ebp
    34e4:	0f 84 49 01 00 00    	je     3633 <main+0xf73>
              thread_data[x].tasks[y].run = barriered_nulltask; 
            }
            */
            thread_data[x].tasks[y].run = barriered_work; 
          } else {
            if (y == 0) {
    34ea:	85 ed                	test   %ebp,%ebp
    34ec:	0f 84 29 01 00 00    	je     361b <main+0xf5b>
              // printf("Thread %d is an ingest thread\n", x);
              thread_data[x].tasks[y].run = barriered_work_ingest_andwork; 
              assigned = 1;
             } else {
               thread_data[x].tasks[y].run = barriered_work; 
    34f2:	4c 8b 4c 24 48       	mov    0x48(%rsp),%r9
    34f7:	48 8d 05 f2 4a 00 00 	lea    0x4af2(%rip),%rax        # 7ff0 <barriered_work>
             }
          }
        }
        thread_data[x].buffers_count = buffers_per_thread;
        thread_data[x].buffers = calloc(buffers_per_thread, sizeof(struct Buffers*)); 
    34fe:	be 08 00 00 00       	mov    $0x8,%esi
               thread_data[x].tasks[y].run = barriered_work; 
    3503:	45 89 f7             	mov    %r14d,%r15d
    3506:	48 89 83 18 01 00 00 	mov    %rax,0x118(%rbx)
        thread_data[x].buffers = calloc(buffers_per_thread, sizeof(struct Buffers*)); 
    350d:	bf 01 00 00 00       	mov    $0x1,%edi
        thread_data[x].buffers_count = buffers_per_thread;
    3512:	41 c7 81 c4 00 00 00 01 00 00 00 	movl   $0x1,0xc4(%r9)
               thread_data[x].tasks[y].run = barriered_work; 
    351d:	48 89 54 24 10       	mov    %rdx,0x10(%rsp)
        thread_data[x].buffers_count = buffers_per_thread;
    3522:	4c 89 4c 24 08       	mov    %r9,0x8(%rsp)
        thread_data[x].buffers = calloc(buffers_per_thread, sizeof(struct Buffers*)); 
    3527:	e8 e4 ee ff ff       	call   2410 <calloc@plt>
        for (int b = 0 ; b < buffers_per_thread; b++) {	
          thread_data[x].buffers[b] = &buffers[cur_buffer++];
    352c:	4c 8b 74 24 68       	mov    0x68(%rsp),%r14
        thread_data[x].buffers = calloc(buffers_per_thread, sizeof(struct Buffers*)); 
    3531:	4c 8b 4c 24 08       	mov    0x8(%rsp),%r9
        }
        thread_data[x].iobuffers = calloc(io_threads, sizeof(struct Buffers*)); 
    3536:	be 08 00 00 00       	mov    $0x8,%esi
          thread_data[x].buffers[b] = &buffers[cur_buffer++];
    353b:	48 8b 9c 24 a8 00 00 00 	mov    0xa8(%rsp),%rbx
        thread_data[x].iobuffers = calloc(io_threads, sizeof(struct Buffers*)); 
    3543:	bf 02 00 00 00       	mov    $0x2,%edi
          thread_data[x].buffers[b] = &buffers[cur_buffer++];
    3548:	83 84 24 84 00 00 00 01 	addl   $0x1,0x84(%rsp)
        thread_data[x].buffers = calloc(buffers_per_thread, sizeof(struct Buffers*)); 
    3550:	49 89 41 50          	mov    %rax,0x50(%r9)
          thread_data[x].buffers[b] = &buffers[cur_buffer++];
    3554:	4a 8d 0c 73          	lea    (%rbx,%r14,2),%rcx
    3558:	48 89 08             	mov    %rcx,(%rax)
        thread_data[x].iobuffers = calloc(io_threads, sizeof(struct Buffers*)); 
    355b:	e8 b0 ee ff ff       	call   2410 <calloc@plt>
        for (int b = 0 ; b < io_threads; b++) {	
          thread_data[x].iobuffers[b] = &buffers[iocur_buffer++];
    3560:	48 8b 5c 24 60       	mov    0x60(%rsp),%rbx
        thread_data[x].iobuffers = calloc(io_threads, sizeof(struct Buffers*)); 
    3565:	4c 8b 4c 24 08       	mov    0x8(%rsp),%r9
        }
        thread_data[x].tasks[barrier_count].protected = do_protected_write; 
        thread_data[x].tasks[barrier_count].run = barriered_reset; 
    356a:	48 8b 54 24 10       	mov    0x10(%rsp),%rdx
          thread_data[x].iobuffers[b] = &buffers[iocur_buffer++];
    356f:	83 44 24 7c 02       	addl   $0x2,0x7c(%rsp)
    3574:	48 8d 4b 10          	lea    0x10(%rbx),%rcx
        thread_data[x].iobuffers = calloc(io_threads, sizeof(struct Buffers*)); 
    3578:	49 89 41 58          	mov    %rax,0x58(%r9)
        thread_data[x].tasks[barrier_count].run = barriered_reset; 
    357c:	66 0f 6f bc 24 c0 00 00 00 	movdqa 0xc0(%rsp),%xmm7
    for (int d = 0 ; d < threads_per_group ; d++) {
    3585:	49 81 c1 20 01 00 00 	add    $0x120,%r9
          thread_data[x].iobuffers[b] = &buffers[iocur_buffer++];
    358c:	48 89 18             	mov    %rbx,(%rax)
    for (int d = 0 ; d < threads_per_group ; d++) {
    358f:	48 83 c3 20          	add    $0x20,%rbx
          thread_data[x].iobuffers[b] = &buffers[iocur_buffer++];
    3593:	48 89 48 08          	mov    %rcx,0x8(%rax)
        thread_data[x].tasks[barrier_count].thread = my_thread_data[me_thread]; 
    3597:	48 8b 44 24 40       	mov    0x40(%rsp),%rax
    for (int d = 0 ; d < threads_per_group ; d++) {
    359c:	48 89 5c 24 60       	mov    %rbx,0x60(%rsp)
        thread_data[x].tasks[barrier_count].thread = my_thread_data[me_thread]; 
    35a1:	48 8b 00             	mov    (%rax),%rax
        thread_data[x].tasks[barrier_count].run = barriered_reset; 
    35a4:	0f 11 ba 18 05 00 00 	movups %xmm7,0x518(%rdx)
        thread_data[x].tasks[barrier_count].available = 1; 
        thread_data[x].tasks[barrier_count].arrived = 0; 
    35ab:	c7 82 80 04 00 00 00 00 00 00 	movl   $0x0,0x480(%rdx)
        thread_data[x].tasks[barrier_count].thread = my_thread_data[me_thread]; 
    35b5:	48 89 82 28 05 00 00 	mov    %rax,0x528(%rdx)
        thread_data[x].tasks[barrier_count].task_index = barrier_count; 
    35bc:	c7 82 04 04 00 00 02 00 00 00 	movl   $0x2,0x404(%rdx)
        thread_data[x].tasks[barrier_count].thread_count = 2; 
    35c6:	c7 82 34 05 00 00 02 00 00 00 	movl   $0x2,0x534(%rdx)
        thread_data[x].tasks[barrier_count].thread_index = thread_data[x].thread_index; 
    35d0:	41 8b 81 e4 fe ff ff 	mov    -0x11c(%r9),%eax
        thread_data[x].tasks[barrier_count].worker_count = thread_count; 
    35d7:	c7 82 8c 05 00 00 02 00 00 00 	movl   $0x2,0x58c(%rdx)
        thread_data[x].tasks[barrier_count].thread_index = thread_data[x].thread_index; 
    35e1:	89 82 30 05 00 00    	mov    %eax,0x530(%rdx)
        thread_data[x].tasks[barrier_count].available = 1; 
    35e7:	48 8b 05 d2 69 00 00 	mov    0x69d2(%rip),%rax        # 9fc0 <_IO_stdin_used+0xfc0>
    35ee:	48 89 82 44 05 00 00 	mov    %rax,0x544(%rdx)
    for (int d = 0 ; d < threads_per_group ; d++) {
    35f5:	49 83 fe 08          	cmp    $0x8,%r14
    35f9:	74 46                	je     3641 <main+0xf81>
    35fb:	48 c7 44 24 68 08 00 00 00 	movq   $0x8,0x68(%rsp)
    3604:	44 8b b4 24 88 00 00 00 	mov    0x88(%rsp),%r14d
    360c:	e9 e3 f5 ff ff       	jmp    2bf4 <main+0x534>
    3611:	48 8b 4c 24 70       	mov    0x70(%rsp),%rcx
    3616:	e9 c4 fb ff ff       	jmp    31df <main+0xb1f>
    361b:	48 8d 05 8e 4f 00 00 	lea    0x4f8e(%rip),%rax        # 85b0 <barriered_work_ingest_andwork>
    3622:	bd 01 00 00 00       	mov    $0x1,%ebp
            thread_data[x].tasks[y].run = barriered_work; 
    3627:	48 89 83 18 01 00 00 	mov    %rax,0x118(%rbx)
        for (int y = 0 ; y < total_barrier_count ; y++) {
    362e:	e9 5a f8 ff ff       	jmp    2e8d <main+0x7cd>
    3633:	48 8d 05 b6 49 00 00 	lea    0x49b6(%rip),%rax        # 7ff0 <barriered_work>
    363a:	bd 02 00 00 00       	mov    $0x2,%ebp
    363f:	eb e6                	jmp    3627 <main+0xf67>
  for (int k = 0 ; k < group_count ; k++) {
    3641:	49 83 c5 01          	add    $0x1,%r13
    3645:	48 8b ac 24 f8 00 00 00 	mov    0xf8(%rsp),%rbp
    364d:	48 83 84 24 a0 00 00 00 18 	addq   $0x18,0xa0(%rsp)
    3656:	4c 8b b4 24 08 01 00 00 	mov    0x108(%rsp),%r14
    365e:	49 83 fd 03          	cmp    $0x3,%r13
    3662:	0f 85 be f4 ff ff    	jne    2b26 <main+0x466>
        thread_data[x].tasks[barrier_count].task_count = total_barrier_count; 
    }
  }
  struct Data ** cdatas = calloc(1024, sizeof(struct Data*)); 
    3668:	be 08 00 00 00       	mov    $0x8,%esi
    366d:	bf 00 04 00 00       	mov    $0x400,%edi
  int datas_size = 0; 
    3672:	31 ed                	xor    %ebp,%ebp
  struct Data ** cdatas = calloc(1024, sizeof(struct Data*)); 
    3674:	e8 97 ed ff ff       	call   2410 <calloc@plt>
    3679:	48 8b 54 24 38       	mov    0x38(%rsp),%rdx
    367e:	49 89 c7             	mov    %rax,%r15
    3681:	31 c0                	xor    %eax,%eax
  for (int k = 0 ; k < group_count ; k++) {
    for (int d = 0 ; d < threads_per_group ; d++) {
    3683:	49 89 d1             	mov    %rdx,%r9
    3686:	31 db                	xor    %ebx,%ebx
      int x = (k * threads_per_group) + d;
      for (int n = 0 ; n < thread_data[x].task_count ; n++) {
    3688:	45 8b 51 40          	mov    0x40(%r9),%r10d
    368c:	45 85 d2             	test   %r10d,%r10d
    368f:	0f 8e ac 00 00 00    	jle    3741 <main+0x1081>
    3695:	49 8b 79 38          	mov    0x38(%r9),%rdi
    3699:	4d 63 c2             	movslq %r10d,%r8
    369c:	48 63 cd             	movslq %ebp,%rcx
    369f:	49 c1 e0 09          	shl    $0x9,%r8
    36a3:	49 8d 34 cf          	lea    (%r15,%rcx,8),%rsi
    36a7:	49 01 f8             	add    %rdi,%r8
    36aa:	66 0f 1f 44 00 00    	nopw   0x0(%rax,%rax,1)
        for (int kk = 0 ; kk < mailboxes_needed ; kk++) {
          cdatas[datas_size++] = ((struct Data*) ((struct Mailbox)thread_data[x].tasks[n].mailboxes[kk]).lower);
    36b0:	48 8b 8f 70 01 00 00 	mov    0x170(%rdi),%rcx
      for (int n = 0 ; n < thread_data[x].task_count ; n++) {
    36b7:	48 81 c7 00 02 00 00 	add    $0x200,%rdi
    36be:	48 83 c6 60          	add    $0x60,%rsi
    36c2:	f3 0f 7e a1 00 01 00 00 	movq   0x100(%rcx),%xmm4
          cdatas[datas_size++] = ((struct Data*) ((struct Mailbox)thread_data[x].tasks[n].mailboxes[kk]).lower);
    36ca:	f3 0f 7e 29          	movq   (%rcx),%xmm5
    36ce:	f3 0f 7e 99 00 02 00 00 	movq   0x200(%rcx),%xmm3
    36d6:	f3 0f 7e 91 00 03 00 00 	movq   0x300(%rcx),%xmm2
    36de:	f3 0f 7e 89 00 04 00 00 	movq   0x400(%rcx),%xmm1
    36e6:	0f 16 a1 80 01 00 00 	movhps 0x180(%rcx),%xmm4
          cdatas[datas_size++] = ((struct Data*) ((struct Mailbox)thread_data[x].tasks[n].mailboxes[kk]).higher);
    36ed:	f3 0f 7e 81 00 05 00 00 	movq   0x500(%rcx),%xmm0
          cdatas[datas_size++] = ((struct Data*) ((struct Mailbox)thread_data[x].tasks[n].mailboxes[kk]).lower);
    36f5:	0f 16 a9 80 00 00 00 	movhps 0x80(%rcx),%xmm5
    36fc:	0f 16 99 80 02 00 00 	movhps 0x280(%rcx),%xmm3
          cdatas[datas_size++] = ((struct Data*) ((struct Mailbox)thread_data[x].tasks[n].mailboxes[kk]).higher);
    3703:	0f 16 91 80 03 00 00 	movhps 0x380(%rcx),%xmm2
          cdatas[datas_size++] = ((struct Data*) ((struct Mailbox)thread_data[x].tasks[n].mailboxes[kk]).lower);
    370a:	0f 11 6e a0          	movups %xmm5,-0x60(%rsi)
    370e:	0f 16 89 80 04 00 00 	movhps 0x480(%rcx),%xmm1
          cdatas[datas_size++] = ((struct Data*) ((struct Mailbox)thread_data[x].tasks[n].mailboxes[kk]).higher);
    3715:	0f 16 81 80 05 00 00 	movhps 0x580(%rcx),%xmm0
          cdatas[datas_size++] = ((struct Data*) ((struct Mailbox)thread_data[x].tasks[n].mailboxes[kk]).lower);
    371c:	0f 11 66 b0          	movups %xmm4,-0x50(%rsi)
    3720:	0f 11 5e c0          	movups %xmm3,-0x40(%rsi)
    3724:	0f 11 56 d0          	movups %xmm2,-0x30(%rsi)
    3728:	0f 11 4e e0          	movups %xmm1,-0x20(%rsi)
    372c:	0f 11 46 f0          	movups %xmm0,-0x10(%rsi)
      for (int n = 0 ; n < thread_data[x].task_count ; n++) {
    3730:	49 39 f8             	cmp    %rdi,%r8
    3733:	0f 85 77 ff ff ff    	jne    36b0 <main+0xff0>
    3739:	43 8d 0c 52          	lea    (%r10,%r10,2),%ecx
    373d:	8d 6c 8d 00          	lea    0x0(%rbp,%rcx,4),%ebp
    for (int d = 0 ; d < threads_per_group ; d++) {
    3741:	49 81 c1 20 01 00 00 	add    $0x120,%r9
    3748:	85 db                	test   %ebx,%ebx
    374a:	75 37                	jne    3783 <main+0x10c3>
    374c:	bb 01 00 00 00       	mov    $0x1,%ebx
    3751:	e9 32 ff ff ff       	jmp    3688 <main+0xfc8>
        other = (x + 1) % total_threads;
    3756:	41 8d 46 01          	lea    0x1(%r14),%eax
        my_thread_data[1] = &thread_data[other]; 
    375a:	48 8b 7c 24 38       	mov    0x38(%rsp),%rdi
    375f:	4c 89 ca             	mov    %r9,%rdx
    3762:	45 31 c0             	xor    %r8d,%r8d
    3765:	89 84 24 88 00 00 00 	mov    %eax,0x88(%rsp)
        other = (x + 1) % total_threads;
    376c:	89 c1                	mov    %eax,%ecx
        my_thread_data[1] = &thread_data[other]; 
    376e:	48 8d 04 c0          	lea    (%rax,%rax,8),%rax
    3772:	48 c1 e0 05          	shl    $0x5,%rax
    3776:	48 89 6c 24 40       	mov    %rbp,0x40(%rsp)
    377b:	48 01 f8             	add    %rdi,%rax
        thread_data[x].protected_state = &protected_state[k];
    377e:	e9 42 f5 ff ff       	jmp    2cc5 <main+0x605>
  for (int k = 0 ; k < group_count ; k++) {
    3783:	83 c0 02             	add    $0x2,%eax
    3786:	48 81 c2 40 02 00 00 	add    $0x240,%rdx
    378d:	83 f8 06             	cmp    $0x6,%eax
    3790:	0f 85 ed fe ff ff    	jne    3683 <main+0xfc3>
  return __printf_chk (__USE_FORTIFY_LEVEL - 1, __fmt, __va_arg_pack ());
    3796:	48 8d 3d 3d 5d 00 00 	lea    0x5d3d(%rip),%rdi        # 94da <_IO_stdin_used+0x4da>
    379d:	e8 9e eb ff ff       	call   2340 <puts@plt>
      }
    }
  }
  printf("Mailboxes list mlist\n");
  FILE *m1;
  m1 = fopen("mailbox1", "w");
    37a2:	48 8d 35 46 5d 00 00 	lea    0x5d46(%rip),%rsi        # 94ef <_IO_stdin_used+0x4ef>
    37a9:	48 8d 3d 41 5d 00 00 	lea    0x5d41(%rip),%rdi        # 94f1 <_IO_stdin_used+0x4f1>
    37b0:	e8 4b ed ff ff       	call   2500 <fopen@plt>
    37b5:	49 89 c6             	mov    %rax,%r14
  for (int x = 0 ; x < datas_size; x++) {
    37b8:	85 ed                	test   %ebp,%ebp
    37ba:	7e 76                	jle    3832 <main+0x1172>
    37bc:	48 63 ed             	movslq %ebp,%rbp
    37bf:	4c 8d 2d 08 5d 00 00 	lea    0x5d08(%rip),%r13        # 94ce <_IO_stdin_used+0x4ce>
    37c6:	4c 8d 25 45 5d 00 00 	lea    0x5d45(%rip),%r12        # 9512 <_IO_stdin_used+0x512>
    37cd:	49 8d 04 ef          	lea    (%r15,%rbp,8),%rax
    37d1:	48 89 44 24 08       	mov    %rax,0x8(%rsp)
    char * c = calloc(250, sizeof(char));
    37d6:	be 01 00 00 00       	mov    $0x1,%esi
    37db:	bf fa 00 00 00       	mov    $0xfa,%edi
  for (int x = 0 ; x < datas_size; x++) {
    37e0:	49 83 c7 08          	add    $0x8,%r15
    char * c = calloc(250, sizeof(char));
    37e4:	e8 27 ec ff ff       	call   2410 <calloc@plt>
  return __builtin___sprintf_chk (__s, __USE_FORTIFY_LEVEL - 1,
    37e9:	4c 89 e9             	mov    %r13,%rcx
    37ec:	ba fa 00 00 00       	mov    $0xfa,%edx
    37f1:	be 01 00 00 00       	mov    $0x1,%esi
    37f6:	48 89 c5             	mov    %rax,%rbp
    sprintf(c, "mailbox %d\n", cdatas[x]->id);
    37f9:	49 8b 47 f8          	mov    -0x8(%r15),%rax
    37fd:	48 89 ef             	mov    %rbp,%rdi
    3800:	44 8b 80 18 04 00 00 	mov    0x418(%rax),%r8d
    3807:	31 c0                	xor    %eax,%eax
    3809:	e8 b2 ed ff ff       	call   25c0 <__sprintf_chk@plt>
  return __printf_chk (__USE_FORTIFY_LEVEL - 1, __fmt, __va_arg_pack ());
    380e:	48 89 ea             	mov    %rbp,%rdx
    3811:	4c 89 e6             	mov    %r12,%rsi
    3814:	bf 01 00 00 00       	mov    $0x1,%edi
    3819:	31 c0                	xor    %eax,%eax
    381b:	e8 a0 ec ff ff       	call   24c0 <__printf_chk@plt>
  return __fprintf_chk (__stream, __USE_FORTIFY_LEVEL - 1, __fmt,
    3820:	4c 89 f6             	mov    %r14,%rsi
    3823:	48 89 ef             	mov    %rbp,%rdi
    3826:	e8 a5 eb ff ff       	call   23d0 <fputs@plt>
  for (int x = 0 ; x < datas_size; x++) {
    382b:	4c 39 7c 24 08       	cmp    %r15,0x8(%rsp)
    3830:	75 a4                	jne    37d6 <main+0x1116>
    printf("%s", c);
    fprintf(m1, "%s", c);
  } 
  fclose(m1);
    3832:	4c 89 f7             	mov    %r14,%rdi
  return __printf_chk (__USE_FORTIFY_LEVEL - 1, __fmt, __va_arg_pack ());
    3835:	45 31 f6             	xor    %r14d,%r14d
    3838:	4c 8d 25 fd 5c 00 00 	lea    0x5cfd(%rip),%r12        # 953c <_IO_stdin_used+0x53c>
    383f:	e8 2c eb ff ff       	call   2370 <fclose@plt>
    3844:	48 8d 3d af 5c 00 00 	lea    0x5caf(%rip),%rdi        # 94fa <_IO_stdin_used+0x4fa>
    384b:	4c 89 f5             	mov    %r14,%rbp
    384e:	e8 ed ea ff ff       	call   2340 <puts@plt>

  printf("Serialising thread_data\n");

  for (int k = 0 ; k < group_count ; k++) {
    3853:	89 5c 24 10          	mov    %ebx,0x10(%rsp)
    3857:	89 ea                	mov    %ebp,%edx
    3859:	48 8d 35 b5 5c 00 00 	lea    0x5cb5(%rip),%rsi        # 9515 <_IO_stdin_used+0x515>
    3860:	bf 01 00 00 00       	mov    $0x1,%edi
    3865:	31 c0                	xor    %eax,%eax
    3867:	e8 54 ec ff ff       	call   24c0 <__printf_chk@plt>
    printf("group-%d\n", k); 
    for (int d = 0 ; d < threads_per_group ; d++) {
    386c:	48 8d 5c ed 00       	lea    0x0(%rbp,%rbp,8),%rbx
    3871:	48 8b 44 24 38       	mov    0x38(%rsp),%rax
    3876:	45 31 ff             	xor    %r15d,%r15d
    3879:	48 c1 e3 06          	shl    $0x6,%rbx
    387d:	44 8d 6c 2d 00       	lea    0x0(%rbp,%rbp,1),%r13d
    3882:	48 01 c3             	add    %rax,%rbx
      int x = (k * threads_per_group) + d;
    3885:	43 8d 0c 2f          	lea    (%r15,%r13,1),%ecx
    3889:	44 89 fa             	mov    %r15d,%edx
    388c:	48 8d 35 8c 5c 00 00 	lea    0x5c8c(%rip),%rsi        # 951f <_IO_stdin_used+0x51f>
    3893:	31 c0                	xor    %eax,%eax
    3895:	bf 01 00 00 00       	mov    $0x1,%edi
    389a:	45 31 f6             	xor    %r14d,%r14d
    389d:	e8 1e ec ff ff       	call   24c0 <__printf_chk@plt>
    38a2:	44 89 6c 24 18       	mov    %r13d,0x18(%rsp)
    38a7:	4c 89 f1             	mov    %r14,%rcx
    38aa:	48 89 6c 24 20       	mov    %rbp,0x20(%rsp)
    38af:	48 89 dd             	mov    %rbx,%rbp
    38b2:	89 ca                	mov    %ecx,%edx
    38b4:	48 8d 35 76 5c 00 00 	lea    0x5c76(%rip),%rsi        # 9531 <_IO_stdin_used+0x531>
    38bb:	bf 01 00 00 00       	mov    $0x1,%edi
    38c0:	31 c0                	xor    %eax,%eax
    38c2:	48 89 4c 24 08       	mov    %rcx,0x8(%rsp)
    38c7:	45 31 ed             	xor    %r13d,%r13d
    38ca:	e8 f1 eb ff ff       	call   24c0 <__printf_chk@plt>
      printf("\tthread-%d rt-%d\n", d, x);
      for (int y = 0 ; y < total_barrier_count ; y++) {
        printf("\t\ttask-%d\n", y);  
        
        for (int m = 0 ; m < mailboxes_needed ; m++) {
    38cf:	48 8b 5c 24 08       	mov    0x8(%rsp),%rbx
    38d4:	48 c1 e3 09          	shl    $0x9,%rbx
    38d8:	eb 32                	jmp    390c <main+0x124c>
    38da:	66 0f 1f 44 00 00    	nopw   0x0(%rax,%rax,1)
          char * mailbox_kind = calloc(100, sizeof(char));
          memset(mailbox_kind, '\0', 100);
          if (thread_data[x].tasks[y].mailboxes[m].kind == MAILBOX_FOREIGN) {
            sprintf(mailbox_kind, "%s", "foreign");
          } else if (thread_data[x].tasks[y].mailboxes[m].kind == MAILBOX_FRIEND) {
    38e0:	83 fe 01             	cmp    $0x1,%esi
    38e3:	0f 84 a9 00 00 00    	je     3992 <main+0x12d2>
    38e9:	44 89 f2             	mov    %r14d,%edx
    38ec:	4c 89 e6             	mov    %r12,%rsi
    38ef:	bf 01 00 00 00       	mov    $0x1,%edi
        for (int m = 0 ; m < mailboxes_needed ; m++) {
    38f4:	49 83 c5 01          	add    $0x1,%r13
    38f8:	44 8b 80 b4 00 00 00 	mov    0xb4(%rax),%r8d
    38ff:	31 c0                	xor    %eax,%eax
    3901:	e8 ba eb ff ff       	call   24c0 <__printf_chk@plt>
    3906:	49 83 fd 06          	cmp    $0x6,%r13
    390a:	74 50                	je     395c <main+0x129c>
          char * mailbox_kind = calloc(100, sizeof(char));
    390c:	be 01 00 00 00       	mov    $0x1,%esi
    3911:	bf 64 00 00 00       	mov    $0x64,%edi
    3916:	45 89 ee             	mov    %r13d,%r14d
    3919:	e8 f2 ea ff ff       	call   2410 <calloc@plt>
          if (thread_data[x].tasks[y].mailboxes[m].kind == MAILBOX_FOREIGN) {
    391e:	4c 8b 45 38          	mov    0x38(%rbp),%r8
    3922:	4c 89 ef             	mov    %r13,%rdi
          char * mailbox_kind = calloc(100, sizeof(char));
    3925:	48 89 c1             	mov    %rax,%rcx
          if (thread_data[x].tasks[y].mailboxes[m].kind == MAILBOX_FOREIGN) {
    3928:	48 c1 e7 08          	shl    $0x8,%rdi
    392c:	49 8b 84 18 70 01 00 00 	mov    0x170(%r8,%rbx,1),%rax
    3934:	48 01 f8             	add    %rdi,%rax
    3937:	8b b0 b0 00 00 00    	mov    0xb0(%rax),%esi
    393d:	83 fe 02             	cmp    $0x2,%esi
    3940:	75 9e                	jne    38e0 <main+0x1220>
  return __builtin___sprintf_chk (__s, __USE_FORTIFY_LEVEL - 1,
    3942:	48 b8 66 6f 72 65 69 67 6e 00 	movabs $0x6e676965726f66,%rax
    394c:	48 89 01             	mov    %rax,(%rcx)
            sprintf(mailbox_kind, "%s", "friend");

          }
          printf("\t\t\tmailbox-%d-%s other-%d\n", m, mailbox_kind, thread_data[x].tasks[y].mailboxes[m].other);
    394f:	49 8b 84 18 70 01 00 00 	mov    0x170(%r8,%rbx,1),%rax
    3957:	48 01 f8             	add    %rdi,%rax
    395a:	eb 8d                	jmp    38e9 <main+0x1229>
      for (int y = 0 ; y < total_barrier_count ; y++) {
    395c:	48 8b 4c 24 08       	mov    0x8(%rsp),%rcx
    3961:	48 83 c1 01          	add    $0x1,%rcx
    3965:	48 83 f9 03          	cmp    $0x3,%rcx
    3969:	0f 85 43 ff ff ff    	jne    38b2 <main+0x11f2>
    for (int d = 0 ; d < threads_per_group ; d++) {
    396f:	48 89 eb             	mov    %rbp,%rbx
    3972:	44 8b 6c 24 18       	mov    0x18(%rsp),%r13d
    3977:	48 8b 6c 24 20       	mov    0x20(%rsp),%rbp
    397c:	48 81 c3 20 01 00 00 	add    $0x120,%rbx
    3983:	45 85 ff             	test   %r15d,%r15d
    3986:	75 27                	jne    39af <main+0x12ef>
    3988:	44 8b 7c 24 10       	mov    0x10(%rsp),%r15d
    398d:	e9 f3 fe ff ff       	jmp    3885 <main+0x11c5>
    3992:	c7 01 66 72 69 65    	movl   $0x65697266,(%rcx)
    3998:	c7 41 03 65 6e 64 00 	movl   $0x646e65,0x3(%rcx)
          printf("\t\t\tmailbox-%d-%s other-%d\n", m, mailbox_kind, thread_data[x].tasks[y].mailboxes[m].other);
    399f:	49 8b 84 18 70 01 00 00 	mov    0x170(%r8,%rbx,1),%rax
    39a7:	48 01 f8             	add    %rdi,%rax
    39aa:	e9 3a ff ff ff       	jmp    38e9 <main+0x1229>
  for (int k = 0 ; k < group_count ; k++) {
    39af:	48 83 c5 01          	add    $0x1,%rbp
    39b3:	48 83 fd 03          	cmp    $0x3,%rbp
    39b7:	0f 85 9a fe ff ff    	jne    3857 <main+0x1197>
  return __printf_chk (__USE_FORTIFY_LEVEL - 1, __fmt, __va_arg_pack ());
    39bd:	ba 07 00 00 00       	mov    $0x7,%edx
    39c2:	48 8d 35 8e 5b 00 00 	lea    0x5b8e(%rip),%rsi        # 9557 <_IO_stdin_used+0x557>
    39c9:	bf 01 00 00 00       	mov    $0x1,%edi
    39ce:	31 c0                	xor    %eax,%eax
    39d0:	e8 eb ea ff ff       	call   24c0 <__printf_chk@plt>
  

  printf("io index = %d\n", io_index);
  int io_mode = 0;
  for (int x = io_index ; x < io_index + io_threads ; x++) {
    struct KernelThread **my_thread_data = calloc(2, sizeof(struct KernelThread*)); 
    39d5:	be 08 00 00 00       	mov    $0x8,%esi
    39da:	bf 02 00 00 00       	mov    $0x2,%edi
    39df:	e8 2c ea ff ff       	call   2410 <calloc@plt>
    my_thread_data[0] = &thread_data[x]; 
    39e4:	4c 8b 74 24 38       	mov    0x38(%rsp),%r14
    struct KernelThread **my_thread_data = calloc(2, sizeof(struct KernelThread*)); 
    39e9:	be 08 00 00 00       	mov    $0x8,%esi
    my_thread_data[0] = &thread_data[x]; 
    39ee:	49 8d be e0 07 00 00 	lea    0x7e0(%r14),%rdi
    my_thread_data[1] = &thread_data[(x + 1) % thread_count]; 
    39f5:	4c 89 70 08          	mov    %r14,0x8(%rax)
    39f9:	49 8d ae 20 01 00 00 	lea    0x120(%r14),%rbp

    io_mode = (io_mode + 1) % 2;
    thread_data[x].threads = my_thread_data;
    3a00:	49 89 86 f8 07 00 00 	mov    %rax,0x7f8(%r14)
    thread_data[x].thread_count = 2;
    3a07:	41 c7 86 08 08 00 00 02 00 00 00 	movl   $0x2,0x808(%r14)
    thread_data[x].thread_index = 0;
    3a12:	41 c7 86 e4 07 00 00 00 00 00 00 	movl   $0x0,0x7e4(%r14)
    thread_data[x].task_count = total_barrier_count;
    3a1d:	41 c7 86 20 08 00 00 03 00 00 00 	movl   $0x3,0x820(%r14)
    my_thread_data[0] = &thread_data[x]; 
    3a28:	48 89 38             	mov    %rdi,(%rax)
    3a2b:	48 89 7c 24 10       	mov    %rdi,0x10(%rsp)
    struct KernelThread **my_thread_data = calloc(2, sizeof(struct KernelThread*)); 
    3a30:	bf 02 00 00 00       	mov    $0x2,%edi
    3a35:	e8 d6 e9 ff ff       	call   2410 <calloc@plt>
  // schedule first task
  for (int n = 0 ; n < thread_count ; n++) {
    thread_data[n].tasks[0].scheduled = 1;
  }

  pthread_attr_t      *thread_attr = calloc(total_threads, sizeof(pthread_attr_t));
    3a3a:	be 38 00 00 00       	mov    $0x38,%esi
    3a3f:	bf 0b 00 00 00       	mov    $0xb,%edi
    my_thread_data[0] = &thread_data[x]; 
    3a44:	49 8d 96 00 09 00 00 	lea    0x900(%r14),%rdx
    3a4b:	48 89 10             	mov    %rdx,(%rax)
    thread_data[x].threads = my_thread_data;
    3a4e:	49 89 86 18 09 00 00 	mov    %rax,0x918(%r14)
    my_thread_data[1] = &thread_data[(x + 1) % thread_count]; 
    3a55:	48 89 68 08          	mov    %rbp,0x8(%rax)
    thread_data[n].tasks[0].scheduled = 1;
    3a59:	49 8b 46 38          	mov    0x38(%r14),%rax
    thread_data[x].thread_count = 2;
    3a5d:	41 c7 86 28 09 00 00 02 00 00 00 	movl   $0x2,0x928(%r14)
    thread_data[x].thread_index = 0;
    3a68:	41 c7 86 04 09 00 00 00 00 00 00 	movl   $0x0,0x904(%r14)
    thread_data[x].task_count = total_barrier_count;
    3a73:	41 c7 86 40 09 00 00 03 00 00 00 	movl   $0x3,0x940(%r14)
    thread_data[n].tasks[0].scheduled = 1;
    3a7e:	c7 80 4c 01 00 00 01 00 00 00 	movl   $0x1,0x14c(%rax)
    3a88:	49 8b 86 58 01 00 00 	mov    0x158(%r14),%rax
    my_thread_data[0] = &thread_data[x]; 
    3a8f:	48 89 54 24 18       	mov    %rdx,0x18(%rsp)
    thread_data[n].tasks[0].scheduled = 1;
    3a94:	c7 80 4c 01 00 00 01 00 00 00 	movl   $0x1,0x14c(%rax)
  pthread_attr_t      *thread_attr = calloc(total_threads, sizeof(pthread_attr_t));
    3a9e:	e8 6d e9 ff ff       	call   2410 <calloc@plt>
  pthread_attr_t      *timer_attr = calloc(total_threads, sizeof(pthread_attr_t));
    3aa3:	be 38 00 00 00       	mov    $0x38,%esi
    3aa8:	bf 0b 00 00 00       	mov    $0xb,%edi
  pthread_attr_t      *thread_attr = calloc(total_threads, sizeof(pthread_attr_t));
    3aad:	49 89 c5             	mov    %rax,%r13
  pthread_attr_t      *timer_attr = calloc(total_threads, sizeof(pthread_attr_t));
    3ab0:	e8 5b e9 ff ff       	call   2410 <calloc@plt>
  pthread_attr_t      *io_attr = calloc(total_threads, sizeof(pthread_attr_t));
    3ab5:	be 38 00 00 00       	mov    $0x38,%esi
    3aba:	bf 0b 00 00 00       	mov    $0xb,%edi
  pthread_attr_t      *timer_attr = calloc(total_threads, sizeof(pthread_attr_t));
    3abf:	49 89 c4             	mov    %rax,%r12
  pthread_attr_t      *io_attr = calloc(total_threads, sizeof(pthread_attr_t));
    3ac2:	e8 49 e9 ff ff       	call   2410 <calloc@plt>
  pthread_attr_t      *external_attr = calloc(total_threads, sizeof(pthread_attr_t));
    3ac7:	be 38 00 00 00       	mov    $0x38,%esi
    3acc:	bf 0b 00 00 00       	mov    $0xb,%edi
  pthread_attr_t      *io_attr = calloc(total_threads, sizeof(pthread_attr_t));
    3ad1:	48 89 44 24 08       	mov    %rax,0x8(%rsp)
  pthread_attr_t      *external_attr = calloc(total_threads, sizeof(pthread_attr_t));
    3ad6:	e8 35 e9 ff ff       	call   2410 <calloc@plt>
  pthread_t *thread = calloc(total_threads, sizeof(pthread_t));
    3adb:	be 08 00 00 00       	mov    $0x8,%esi
    3ae0:	bf 0b 00 00 00       	mov    $0xb,%edi
  pthread_attr_t      *external_attr = calloc(total_threads, sizeof(pthread_attr_t));
    3ae5:	48 89 44 24 30       	mov    %rax,0x30(%rsp)
  pthread_t *thread = calloc(total_threads, sizeof(pthread_t));
    3aea:	e8 21 e9 ff ff       	call   2410 <calloc@plt>




  // thread_data[thread_count].threads = thread_data;
  struct KernelThread **my_thread_data = calloc(total_threads, sizeof(struct KernelThread*)); 
    3aef:	be 08 00 00 00       	mov    $0x8,%esi
    3af4:	bf 0b 00 00 00       	mov    $0xb,%edi
  thread_data[timer_threadi].type = TIMER;
    3af9:	41 c7 86 cc 06 00 00 00 00 00 00 	movl   $0x0,0x6cc(%r14)
  pthread_t *thread = calloc(total_threads, sizeof(pthread_t));
    3b04:	48 89 c3             	mov    %rax,%rbx
  thread_data[timer_threadi].task_count = total_barrier_count;
    3b07:	48 8b 05 ca 64 00 00 	mov    0x64ca(%rip),%rax        # 9fd8 <_IO_stdin_used+0xfd8>
    3b0e:	49 89 86 00 07 00 00 	mov    %rax,0x700(%r14)
  struct KernelThread **my_thread_data = calloc(total_threads, sizeof(struct KernelThread*)); 
    3b15:	e8 f6 e8 ff ff       	call   2410 <calloc@plt>
  for (int n = 0 ; n < total_threads ; n++) {
    my_thread_data[n] = &thread_data[n]; 
    3b1a:	49 8d 96 40 02 00 00 	lea    0x240(%r14),%rdx
    3b21:	48 8b 74 24 10       	mov    0x10(%rsp),%rsi
    3b26:	4c 89 f7             	mov    %r14,%rdi
    3b29:	48 89 50 10          	mov    %rdx,0x10(%rax)
    3b2d:	49 8d 96 60 03 00 00 	lea    0x360(%r14),%rdx
    3b34:	48 89 50 18          	mov    %rdx,0x18(%rax)
    3b38:	49 8d 96 80 04 00 00 	lea    0x480(%r14),%rdx
    3b3f:	48 89 50 20          	mov    %rdx,0x20(%rax)
    3b43:	49 8d 96 a0 05 00 00 	lea    0x5a0(%r14),%rdx
    3b4a:	48 89 50 28          	mov    %rdx,0x28(%rax)
    3b4e:	48 8b 54 24 18       	mov    0x18(%rsp),%rdx
    3b53:	4c 89 30             	mov    %r14,(%rax)
    3b56:	4d 8d b6 c0 06 00 00 	lea    0x6c0(%r14),%r14
    3b5d:	48 89 70 38          	mov    %rsi,0x38(%rax)
    3b61:	48 8d b7 20 0a 00 00 	lea    0xa20(%rdi),%rsi
    3b68:	48 89 50 40          	mov    %rdx,0x40(%rax)
    3b6c:	48 8d 97 40 0b 00 00 	lea    0xb40(%rdi),%rdx
    3b73:	4c 89 70 30          	mov    %r14,0x30(%rax)
    3b77:	48 89 70 48          	mov    %rsi,0x48(%rax)
    3b7b:	48 89 50 50          	mov    %rdx,0x50(%rax)
    3b7f:	ba 06 00 00 00       	mov    $0x6,%edx
  }
  thread_data[timer_threadi].threads = my_thread_data;
    3b84:	48 89 87 d8 06 00 00 	mov    %rax,0x6d8(%rdi)
    my_thread_data[n] = &thread_data[n]; 
    3b8b:	48 89 68 08          	mov    %rbp,0x8(%rax)
  thread_data[timer_threadi].total_thread_count = total_threads;
  thread_data[timer_threadi].thread_count = group_count * threads_per_group;
    3b8f:	48 8b 05 4a 64 00 00 	mov    0x644a(%rip),%rax        # 9fe0 <_IO_stdin_used+0xfe0>
  thread_data[timer_threadi].my_thread_count = group_count * threads_per_group;
    3b96:	c7 87 f0 06 00 00 06 00 00 00 	movl   $0x6,0x6f0(%rdi)
  thread_data[timer_threadi].thread_count = group_count * threads_per_group;
    3ba0:	48 89 87 e8 06 00 00 	mov    %rax,0x6e8(%rdi)
    3ba7:	31 c0                	xor    %eax,%eax
  thread_data[timer_threadi].thread_index = 0;
    3ba9:	c7 87 c4 06 00 00 00 00 00 00 	movl   $0x0,0x6c4(%rdi)
    my_thread_data[n] = &thread_data[n]; 
    3bb3:	48 89 74 24 40       	mov    %rsi,0x40(%rsp)
    3bb8:	48 8d 35 a7 59 00 00 	lea    0x59a7(%rip),%rsi        # 9566 <_IO_stdin_used+0x566>
  thread_data[timer_threadi].thread_index = 0;
    3bbf:	48 89 7c 24 38       	mov    %rdi,0x38(%rsp)
    3bc4:	bf 01 00 00 00       	mov    $0x1,%edi
    3bc9:	e8 f2 e8 ff ff       	call   24c0 <__printf_chk@plt>

  printf("Creating scheduler thread %d\n", timer_threadi);
  pthread_create(&thread[timer_threadi], &timer_attr[timer_threadi], &timer_thread, &thread_data[timer_threadi]);
    3bce:	4c 89 f1             	mov    %r14,%rcx
    3bd1:	48 8d 7b 30          	lea    0x30(%rbx),%rdi
  for (int k = 0 ; k < group_count ; k++) {
    3bd5:	45 31 f6             	xor    %r14d,%r14d
  pthread_create(&thread[timer_threadi], &timer_attr[timer_threadi], &timer_thread, &thread_data[timer_threadi]);
    3bd8:	48 8d 15 f1 0f 00 00 	lea    0xff1(%rip),%rdx        # 4bd0 <timer_thread>
    3bdf:	49 8d b4 24 50 01 00 00 	lea    0x150(%r12),%rsi
    3be7:	e8 f4 e8 ff ff       	call   24e0 <pthread_create@plt>
  for (int k = 0 ; k < group_count ; k++) {
    3bec:	48 89 5c 24 28       	mov    %rbx,0x28(%rsp)
    3bf1:	48 89 d9             	mov    %rbx,%rcx
    3bf4:	4c 89 e8             	mov    %r13,%rax
    3bf7:	48 89 6c 24 48       	mov    %rbp,0x48(%rsp)
  pthread_create(&thread[timer_threadi], &timer_attr[timer_threadi], &timer_thread, &thread_data[timer_threadi]);
    3bfc:	41 ba 02 00 00 00    	mov    $0x2,%r10d
    3c02:	48 8b 54 24 38       	mov    0x38(%rsp),%rdx
    3c07:	44 89 7c 24 20       	mov    %r15d,0x20(%rsp)
    3c0c:	45 89 d7             	mov    %r10d,%r15d
    for (int d = 0 ; d < threads_per_group ; d++) {
    3c0f:	48 89 44 24 50       	mov    %rax,0x50(%rsp)
    3c14:	43 8d 1c 36          	lea    (%r14,%r14,1),%ebx
    3c18:	48 89 c5             	mov    %rax,%rbp
    3c1b:	49 89 cd             	mov    %rcx,%r13
    3c1e:	48 89 4c 24 58       	mov    %rcx,0x58(%rsp)
    3c23:	49 89 d4             	mov    %rdx,%r12
    3c26:	48 89 54 24 60       	mov    %rdx,0x60(%rsp)
      int x = (k * threads_per_group) + d;
      thread_data[x].type = WORKER;
    3c2b:	41 c7 44 24 0c 01 00 00 00 	movl   $0x1,0xc(%r12)
    3c34:	89 da                	mov    %ebx,%edx
    3c36:	44 89 f1             	mov    %r14d,%ecx
    3c39:	31 c0                	xor    %eax,%eax
    3c3b:	48 8d 35 8e 5e 00 00 	lea    0x5e8e(%rip),%rsi        # 9ad0 <_IO_stdin_used+0xad0>
    3c42:	bf 01 00 00 00       	mov    $0x1,%edi
    for (int d = 0 ; d < threads_per_group ; d++) {
    3c47:	83 c3 01             	add    $0x1,%ebx
      thread_data[x].running = 1;
    3c4a:	41 c7 44 24 44 01 00 00 00 	movl   $0x1,0x44(%r12)
    3c53:	e8 68 e8 ff ff       	call   24c0 <__printf_chk@plt>
      printf("Creating kernel worker thread %d in group %d\n", x, k);
      pthread_create(&thread[x], &thread_attr[x], &barriered_thread, &thread_data[x]);
    3c58:	4c 89 e1             	mov    %r12,%rcx
    3c5b:	48 89 ee             	mov    %rbp,%rsi
    3c5e:	4c 89 ef             	mov    %r13,%rdi
    3c61:	48 8d 15 c8 3a 00 00 	lea    0x3ac8(%rip),%rdx        # 7730 <barriered_thread>
    for (int d = 0 ; d < threads_per_group ; d++) {
    3c68:	49 81 c4 20 01 00 00 	add    $0x120,%r12
    3c6f:	49 83 c5 08          	add    $0x8,%r13
    3c73:	48 83 c5 38          	add    $0x38,%rbp
      pthread_create(&thread[x], &thread_attr[x], &barriered_thread, &thread_data[x]);
    3c77:	e8 64 e8 ff ff       	call   24e0 <pthread_create@plt>
      pthread_setaffinity_np(thread[x], sizeof(thread_data[x].cpu_set), thread_data[x].cpu_set);
    3c7c:	49 8b 54 24 98       	mov    -0x68(%r12),%rdx
    3c81:	49 8b 7d f8          	mov    -0x8(%r13),%rdi
    3c85:	be 08 00 00 00       	mov    $0x8,%esi
    3c8a:	e8 a1 e6 ff ff       	call   2330 <pthread_setaffinity_np@plt>
    for (int d = 0 ; d < threads_per_group ; d++) {
    3c8f:	41 39 df             	cmp    %ebx,%r15d
    3c92:	75 97                	jne    3c2b <main+0x156b>
  for (int k = 0 ; k < group_count ; k++) {
    3c94:	48 8b 44 24 50       	mov    0x50(%rsp),%rax
    3c99:	48 8b 4c 24 58       	mov    0x58(%rsp),%rcx
    3c9e:	41 83 c6 01          	add    $0x1,%r14d
    3ca2:	41 83 c7 02          	add    $0x2,%r15d
    3ca6:	48 8b 54 24 60       	mov    0x60(%rsp),%rdx
    3cab:	48 83 c1 10          	add    $0x10,%rcx
    3caf:	48 83 c0 70          	add    $0x70,%rax
    3cb3:	48 81 c2 40 02 00 00 	add    $0x240,%rdx
    3cba:	41 83 fe 03          	cmp    $0x3,%r14d
    3cbe:	0f 85 4b ff ff ff    	jne    3c0f <main+0x154f>
    }
  }
  struct io_uring **rings = calloc(2, sizeof(struct io_uring*));
    3cc4:	be 08 00 00 00       	mov    $0x8,%esi
    3cc9:	bf 02 00 00 00       	mov    $0x2,%edi
    3cce:	48 8b 6c 24 48       	mov    0x48(%rsp),%rbp
    3cd3:	48 8b 5c 24 28       	mov    0x28(%rsp),%rbx
    3cd8:	44 8b 7c 24 20       	mov    0x20(%rsp),%r15d
    3cdd:	e8 2e e7 ff ff       	call   2410 <calloc@plt>

  rings[IO_MODE_SEND] = calloc(1, sizeof(struct io_uring));
    3ce2:	be d8 00 00 00       	mov    $0xd8,%esi
    3ce7:	bf 01 00 00 00       	mov    $0x1,%edi
  struct io_uring **rings = calloc(2, sizeof(struct io_uring*));
    3cec:	49 89 c4             	mov    %rax,%r12
  rings[IO_MODE_SEND] = calloc(1, sizeof(struct io_uring));
    3cef:	e8 1c e7 ff ff       	call   2410 <calloc@plt>
  rings[IO_MODE_RECV] = calloc(1, sizeof(struct io_uring));
    3cf4:	be d8 00 00 00       	mov    $0xd8,%esi
    3cf9:	bf 01 00 00 00       	mov    $0x1,%edi
  rings[IO_MODE_SEND] = calloc(1, sizeof(struct io_uring));
    3cfe:	49 89 04 24          	mov    %rax,(%r12)
    3d02:	48 89 44 24 20       	mov    %rax,0x20(%rsp)
  rings[IO_MODE_RECV] = calloc(1, sizeof(struct io_uring));
    3d07:	e8 04 e7 ff ff       	call   2410 <calloc@plt>

  struct Buffers *iomailboxes = calloc(io_threads, sizeof(struct Buffers));
    3d0c:	be 10 00 00 00       	mov    $0x10,%esi
    3d11:	bf 02 00 00 00       	mov    $0x2,%edi
  rings[IO_MODE_RECV] = calloc(1, sizeof(struct io_uring));
    3d16:	49 89 44 24 08       	mov    %rax,0x8(%r12)
    3d1b:	48 89 44 24 28       	mov    %rax,0x28(%rsp)
  struct Buffers *iomailboxes = calloc(io_threads, sizeof(struct Buffers));
    3d20:	e8 eb e6 ff ff       	call   2410 <calloc@plt>
    3d25:	48 89 5c 24 50       	mov    %rbx,0x50(%rsp)
    3d2a:	49 89 c6             	mov    %rax,%r14
  long iomailboxes_size = 1000;
  for (int x = 0 ; x < io_threads; x++) {
    3d2d:	48 8d 40 20          	lea    0x20(%rax),%rax
    3d31:	48 89 44 24 48       	mov    %rax,0x48(%rsp)
    3d36:	48 89 e8             	mov    %rbp,%rax
    3d39:	4c 89 f5             	mov    %r14,%rbp
    3d3c:	49 89 c5             	mov    %rax,%r13
    iomailboxes[x].count = iomailboxes_size;
    3d3f:	c7 45 00 e8 03 00 00 	movl   $0x3e8,0x0(%rbp)
    iomailboxes[x].buffer = calloc(iomailboxes_size, sizeof(struct Buffer));
    3d46:	be 00 01 00 00       	mov    $0x100,%esi
    3d4b:	bf e8 03 00 00       	mov    $0x3e8,%edi
    3d50:	e8 bb e6 ff ff       	call   2410 <calloc@plt>
    3d55:	48 89 45 08          	mov    %rax,0x8(%rbp)
    3d59:	48 89 c3             	mov    %rax,%rbx
    for (int y = 0 ; y < iomailboxes_size; y++) {
    3d5c:	4c 8d a0 80 00 00 00 	lea    0x80(%rax),%r12
    3d63:	48 81 c3 80 e8 03 00 	add    $0x3e880,%rbx
    3d6a:	66 0f 1f 44 00 00    	nopw   0x0(%rax,%rax,1)
      iomailboxes[x].buffer[y].available = 0;
    3d70:	41 c7 04 24 00 00 00 00 	movl   $0x0,(%r12)
      iomailboxes[x].buffer[y].snapshot_limit = snapshot_limit;
      iomailboxes[x].buffer[y].snapshots = calloc(snapshot_limit, sizeof(struct Snapshot));
    3d78:	be 20 00 00 00       	mov    $0x20,%esi
    3d7d:	bf 64 00 00 00       	mov    $0x64,%edi
    for (int y = 0 ; y < iomailboxes_size; y++) {
    3d82:	49 81 c4 00 01 00 00 	add    $0x100,%r12
      iomailboxes[x].buffer[y].snapshot_limit = snapshot_limit;
    3d89:	41 c7 84 24 10 ff ff ff 64 00 00 00 	movl   $0x64,-0xf0(%r12)
      iomailboxes[x].buffer[y].snapshots = calloc(snapshot_limit, sizeof(struct Snapshot));
    3d95:	e8 76 e6 ff ff       	call   2410 <calloc@plt>
    3d9a:	49 89 84 24 08 ff ff ff 	mov    %rax,-0xf8(%r12)
    for (int y = 0 ; y < iomailboxes_size; y++) {
    3da2:	4c 39 e3             	cmp    %r12,%rbx
    3da5:	75 c9                	jne    3d70 <main+0x16b0>
  for (int x = 0 ; x < io_threads; x++) {
    3da7:	48 8b 44 24 48       	mov    0x48(%rsp),%rax
    3dac:	48 83 c5 10          	add    $0x10,%rbp
    3db0:	48 39 c5             	cmp    %rax,%rbp
    3db3:	75 8a                	jne    3d3f <main+0x167f>
  char * send_identity = "send-thread";
  char * recv_identity = "recv-thread";
  char * unknown_identity = "unknown-thread";
  int counter = 0;
  for (int x = io_index ; x < io_index + io_threads ; x++) {
    thread_data[x].type = IO;
    3db5:	4c 89 ed             	mov    %r13,%rbp
    3db8:	4c 8b 6c 24 38       	mov    0x38(%rsp),%r13
    3dbd:	45 31 c0             	xor    %r8d,%r8d
    3dc0:	b9 01 00 00 00       	mov    $0x1,%ecx
    3dc5:	ba 07 00 00 00       	mov    $0x7,%edx
    3dca:	bf 01 00 00 00       	mov    $0x1,%edi
    3dcf:	48 8b 5c 24 50       	mov    0x50(%rsp),%rbx
    thread_data[x].running = 1;
    thread_data[x].task_count = 0;
    3dd4:	4c 8b 25 0d 62 00 00 	mov    0x620d(%rip),%r12        # 9fe8 <_IO_stdin_used+0xfe8>
    3ddb:	48 8d 05 a2 57 00 00 	lea    0x57a2(%rip),%rax        # 9584 <_IO_stdin_used+0x584>
      thread_data[x].identity = unknown_identity;
    }
    thread_data[x].io_mode = myring;
    thread_data[x].my_io = myring;
    thread_data[x].other_io = otherring;
    thread_data[x].iomailboxes = iomailboxes; 
    3de2:	4d 89 b5 e8 08 00 00 	mov    %r14,0x8e8(%r13)
    3de9:	4c 8d 1d a0 57 00 00 	lea    0x57a0(%rip),%r11        # 9590 <_IO_stdin_used+0x590>
    3df0:	49 89 85 f8 08 00 00 	mov    %rax,0x8f8(%r13)
    3df7:	4c 89 de             	mov    %r11,%rsi
    3dfa:	31 c0                	xor    %eax,%eax
    thread_data[x].type = IO;
    3dfc:	41 c7 85 ec 07 00 00 02 00 00 00 	movl   $0x2,0x7ec(%r13)
    thread_data[x].task_count = 0;
    3e07:	4d 89 a5 20 08 00 00 	mov    %r12,0x820(%r13)
    thread_data[x].io_mode = myring;
    3e0e:	41 c7 85 e4 08 00 00 01 00 00 00 	movl   $0x1,0x8e4(%r13)
    thread_data[x].other_io = otherring;
    3e19:	4d 89 a5 f0 08 00 00 	mov    %r12,0x8f0(%r13)
    3e20:	e8 9b e6 ff ff       	call   24c0 <__printf_chk@plt>
    printf("%d myring %d other is %d\n", x, myring, otherring);
    thread_data[x].ring = rings[myring]; 
    3e25:	48 8b 44 24 28       	mov    0x28(%rsp),%rax
    int myeventfd = eventfd(counter++, EFD_NONBLOCK);
    3e2a:	be 00 08 00 00       	mov    $0x800,%esi
    3e2f:	31 ff                	xor    %edi,%edi
    thread_data[x].ring = rings[myring]; 
    3e31:	49 89 85 40 08 00 00 	mov    %rax,0x840(%r13)
    int myeventfd = eventfd(counter++, EFD_NONBLOCK);
    3e38:	e8 f3 e6 ff ff       	call   2530 <eventfd@plt>
    thread_data[x]._eventfd = myeventfd; 
    struct KernelThread **my_thread_data = calloc(thread_count, sizeof(struct KernelThread*)); 
    3e3d:	be 08 00 00 00       	mov    $0x8,%esi
    3e42:	bf 02 00 00 00       	mov    $0x2,%edi
    thread_data[x]._eventfd = myeventfd; 
    3e47:	41 89 85 48 08 00 00 	mov    %eax,0x848(%r13)
    struct KernelThread **my_thread_data = calloc(thread_count, sizeof(struct KernelThread*)); 
    3e4e:	e8 bd e5 ff ff       	call   2410 <calloc@plt>
    3e53:	ba 07 00 00 00       	mov    $0x7,%edx
    3e58:	bf 01 00 00 00       	mov    $0x1,%edi
    for (int n = 0 ; n < thread_count ; n++) {
      my_thread_data[n] = &thread_data[n]; 
    }
    thread_data[x].threads = my_thread_data;
    // thread_data[x].threads = thread_data;
    thread_data[x].thread_count = thread_count;
    3e5d:	41 c7 85 08 08 00 00 02 00 00 00 	movl   $0x2,0x808(%r13)
      my_thread_data[n] = &thread_data[n]; 
    3e68:	4c 89 28             	mov    %r13,(%rax)
    3e6b:	4c 8d 15 38 57 00 00 	lea    0x5738(%rip),%r10        # 95aa <_IO_stdin_used+0x5aa>
    thread_data[x].threads = my_thread_data;
    3e72:	49 89 85 f8 07 00 00 	mov    %rax,0x7f8(%r13)
    3e79:	4c 89 d6             	mov    %r10,%rsi
      my_thread_data[n] = &thread_data[n]; 
    3e7c:	48 89 68 08          	mov    %rbp,0x8(%rax)
    3e80:	31 c0                	xor    %eax,%eax
    thread_data[x].thread_index = x;
    3e82:	41 c7 85 e4 07 00 00 07 00 00 00 	movl   $0x7,0x7e4(%r13)
    3e8d:	4c 89 6c 24 38       	mov    %r13,0x38(%rsp)
    printf("Creating IO thread %d\n", x);
    pthread_create(&thread[x], &io_attr[x], &io_thread, &thread_data[x]);
    3e92:	4c 8d 2d 27 22 00 00 	lea    0x2227(%rip),%r13        # 60c0 <io_thread>
    3e99:	e8 22 e6 ff ff       	call   24c0 <__printf_chk@plt>
    3e9e:	48 8b 7c 24 08       	mov    0x8(%rsp),%rdi
    3ea3:	48 8b 4c 24 10       	mov    0x10(%rsp),%rcx
    3ea8:	4c 89 ea             	mov    %r13,%rdx
    3eab:	48 8d b7 88 01 00 00 	lea    0x188(%rdi),%rsi
    3eb2:	48 8d 7b 38          	lea    0x38(%rbx),%rdi
    3eb6:	e8 25 e6 ff ff       	call   24e0 <pthread_create@plt>
    thread_data[x].type = IO;
    3ebb:	48 8b 44 24 38       	mov    0x38(%rsp),%rax
    3ec0:	31 c9                	xor    %ecx,%ecx
    3ec2:	48 8d 35 f8 56 00 00 	lea    0x56f8(%rip),%rsi        # 95c1 <_IO_stdin_used+0x5c1>
    3ec9:	41 b8 01 00 00 00    	mov    $0x1,%r8d
    3ecf:	ba 08 00 00 00       	mov    $0x8,%edx
    3ed4:	bf 01 00 00 00       	mov    $0x1,%edi
    3ed9:	48 89 b0 18 0a 00 00 	mov    %rsi,0xa18(%rax)
    3ee0:	4c 8d 1d a9 56 00 00 	lea    0x56a9(%rip),%r11        # 9590 <_IO_stdin_used+0x590>
    thread_data[x].iomailboxes = iomailboxes; 
    3ee7:	4c 89 b0 08 0a 00 00 	mov    %r14,0xa08(%rax)
    3eee:	4c 89 de             	mov    %r11,%rsi
    thread_data[x].type = IO;
    3ef1:	c7 80 0c 09 00 00 02 00 00 00 	movl   $0x2,0x90c(%rax)
    thread_data[x].task_count = 0;
    3efb:	4c 89 a0 40 09 00 00 	mov    %r12,0x940(%rax)
    thread_data[x].io_mode = myring;
    3f02:	c7 80 04 0a 00 00 00 00 00 00 	movl   $0x0,0xa04(%rax)
    thread_data[x].other_io = otherring;
    3f0c:	48 c7 80 10 0a 00 00 01 00 00 00 	movq   $0x1,0xa10(%rax)
    3f17:	31 c0                	xor    %eax,%eax
    3f19:	e8 a2 e5 ff ff       	call   24c0 <__printf_chk@plt>
    thread_data[x].ring = rings[myring]; 
    3f1e:	4c 8b 74 24 38       	mov    0x38(%rsp),%r14
    3f23:	48 8b 44 24 20       	mov    0x20(%rsp),%rax
    int myeventfd = eventfd(counter++, EFD_NONBLOCK);
    3f28:	be 00 08 00 00       	mov    $0x800,%esi
    3f2d:	bf 01 00 00 00       	mov    $0x1,%edi
    thread_data[x].ring = rings[myring]; 
    3f32:	49 89 86 60 09 00 00 	mov    %rax,0x960(%r14)
    int myeventfd = eventfd(counter++, EFD_NONBLOCK);
    3f39:	e8 f2 e5 ff ff       	call   2530 <eventfd@plt>
    struct KernelThread **my_thread_data = calloc(thread_count, sizeof(struct KernelThread*)); 
    3f3e:	be 08 00 00 00       	mov    $0x8,%esi
    3f43:	bf 02 00 00 00       	mov    $0x2,%edi
    thread_data[x]._eventfd = myeventfd; 
    3f48:	41 89 86 68 09 00 00 	mov    %eax,0x968(%r14)
    struct KernelThread **my_thread_data = calloc(thread_count, sizeof(struct KernelThread*)); 
    3f4f:	e8 bc e4 ff ff       	call   2410 <calloc@plt>
    3f54:	ba 08 00 00 00       	mov    $0x8,%edx
    3f59:	bf 01 00 00 00       	mov    $0x1,%edi
    thread_data[x].thread_count = thread_count;
    3f5e:	41 c7 86 28 09 00 00 02 00 00 00 	movl   $0x2,0x928(%r14)
      my_thread_data[n] = &thread_data[n]; 
    3f69:	4c 89 30             	mov    %r14,(%rax)
    3f6c:	4c 8d 15 37 56 00 00 	lea    0x5637(%rip),%r10        # 95aa <_IO_stdin_used+0x5aa>
    thread_data[x].threads = my_thread_data;
    3f73:	49 89 86 18 09 00 00 	mov    %rax,0x918(%r14)
    3f7a:	4c 89 d6             	mov    %r10,%rsi
      my_thread_data[n] = &thread_data[n]; 
    3f7d:	48 89 68 08          	mov    %rbp,0x8(%rax)
    3f81:	31 c0                	xor    %eax,%eax
    thread_data[x].thread_index = x;
    3f83:	41 c7 86 04 09 00 00 08 00 00 00 	movl   $0x8,0x904(%r14)
  }
  int external_index = io_index + io_threads;
  printf("External index is %d\n", external_index);
	int next_buffer = 0;
  for (int x = external_index, buffer_index = 0 ; x < external_index + external_threads; x++, buffer_index++) {
    3f8e:	41 be 09 00 00 00    	mov    $0x9,%r14d
    3f94:	e8 27 e5 ff ff       	call   24c0 <__printf_chk@plt>
    pthread_create(&thread[x], &io_attr[x], &io_thread, &thread_data[x]);
    3f99:	48 8b 7c 24 08       	mov    0x8(%rsp),%rdi
    3f9e:	48 8b 4c 24 18       	mov    0x18(%rsp),%rcx
    3fa3:	4c 89 ea             	mov    %r13,%rdx
    3fa6:	48 8d b7 c0 01 00 00 	lea    0x1c0(%rdi),%rsi
    3fad:	48 8d 7b 40          	lea    0x40(%rbx),%rdi
    3fb1:	e8 2a e5 ff ff       	call   24e0 <pthread_create@plt>
    3fb6:	ba 09 00 00 00       	mov    $0x9,%edx
    3fbb:	48 8d 35 0b 56 00 00 	lea    0x560b(%rip),%rsi        # 95cd <_IO_stdin_used+0x5cd>
    3fc2:	31 c0                	xor    %eax,%eax
    3fc4:	bf 01 00 00 00       	mov    $0x1,%edi
    3fc9:	e8 f2 e4 ff ff       	call   24c0 <__printf_chk@plt>
  for (int x = external_index, buffer_index = 0 ; x < external_index + external_threads; x++, buffer_index++) {
    3fce:	48 8d 43 48          	lea    0x48(%rbx),%rax
    3fd2:	4c 8b 6c 24 40       	mov    0x40(%rsp),%r13
    3fd7:	48 89 44 24 10       	mov    %rax,0x10(%rsp)
    3fdc:	48 8b 44 24 30       	mov    0x30(%rsp),%rax
    3fe1:	48 05 f8 01 00 00    	add    $0x1f8,%rax
    3fe7:	48 89 44 24 08       	mov    %rax,0x8(%rsp)
    3fec:	44 89 f2             	mov    %r14d,%edx
    3fef:	48 8d 35 ed 55 00 00 	lea    0x55ed(%rip),%rsi        # 95e3 <_IO_stdin_used+0x5e3>
    3ff6:	bf 01 00 00 00       	mov    $0x1,%edi
    3ffb:	31 c0                	xor    %eax,%eax
    3ffd:	e8 be e4 ff ff       	call   24c0 <__printf_chk@plt>
    printf("Creating external thread %d\n", x);
    thread_data[x].type = EXTERNAL;
    thread_data[x].running = 1;
    thread_data[x].task_count = 0;
    4002:	4d 89 65 40          	mov    %r12,0x40(%r13)
    thread_data[x].buffers = calloc(1, sizeof(struct Buffers*));
    4006:	be 08 00 00 00       	mov    $0x8,%esi
    400b:	bf 01 00 00 00       	mov    $0x1,%edi
    thread_data[x].type = EXTERNAL;
    4010:	41 c7 45 0c 03 00 00 00 	movl   $0x3,0xc(%r13)
    thread_data[x].buffers = calloc(1, sizeof(struct Buffers*));
    4018:	e8 f3 e3 ff ff       	call   2410 <calloc@plt>
		thread_data[x].buffers[0] = &buffers[next_buffer++];
    401d:	48 8b bc 24 d0 00 00 00 	mov    0xd0(%rsp),%rdi
	  thread_data[x].buffers_count = 1;
    struct KernelThread **my_thread_data = calloc(thread_count, sizeof(struct KernelThread*)); 
    4025:	be 08 00 00 00       	mov    $0x8,%esi
	  thread_data[x].buffers_count = 1;
    402a:	41 c7 85 c4 00 00 00 01 00 00 00 	movl   $0x1,0xc4(%r13)
    thread_data[x].buffers = calloc(1, sizeof(struct Buffers*));
    4035:	49 89 45 50          	mov    %rax,0x50(%r13)
		thread_data[x].buffers[0] = &buffers[next_buffer++];
    4039:	48 89 38             	mov    %rdi,(%rax)
    struct KernelThread **my_thread_data = calloc(thread_count, sizeof(struct KernelThread*)); 
    403c:	bf 02 00 00 00       	mov    $0x2,%edi
    4041:	e8 ca e3 ff ff       	call   2410 <calloc@plt>
    for (int n = 0 ; n < thread_count ; n++) {
      my_thread_data[n] = &thread_data[n]; 
    4046:	48 8b 74 24 38       	mov    0x38(%rsp),%rsi
    }
    thread_data[x].threads = my_thread_data;
    thread_data[x].thread_count = thread_count;
    thread_data[x].total_thread_count = total_threads;
    thread_data[x].thread_index = x;
    404b:	45 89 75 04          	mov    %r14d,0x4(%r13)
    pthread_create(&thread[x], &external_attr[x], &external_thread, &thread_data[x]);
    404f:	4c 89 e9             	mov    %r13,%rcx
    thread_data[x].threads = my_thread_data;
    4052:	49 89 45 18          	mov    %rax,0x18(%r13)
    pthread_create(&thread[x], &external_attr[x], &external_thread, &thread_data[x]);
    4056:	48 8b 7c 24 10       	mov    0x10(%rsp),%rdi
    405b:	48 8d 15 5e 0a 00 00 	lea    0xa5e(%rip),%rdx        # 4ac0 <external_thread>
  for (int x = external_index, buffer_index = 0 ; x < external_index + external_threads; x++, buffer_index++) {
    4062:	49 81 c5 20 01 00 00 	add    $0x120,%r13
      my_thread_data[n] = &thread_data[n]; 
    4069:	48 89 30             	mov    %rsi,(%rax)
    thread_data[x].thread_count = thread_count;
    406c:	48 8b 35 5d 5f 00 00 	mov    0x5f5d(%rip),%rsi        # 9fd0 <_IO_stdin_used+0xfd0>
      my_thread_data[n] = &thread_data[n]; 
    4073:	48 89 68 08          	mov    %rbp,0x8(%rax)
    thread_data[x].thread_count = thread_count;
    4077:	49 89 b5 08 ff ff ff 	mov    %rsi,-0xf8(%r13)
    pthread_create(&thread[x], &external_attr[x], &external_thread, &thread_data[x]);
    407e:	48 8b 74 24 08       	mov    0x8(%rsp),%rsi
    4083:	e8 58 e4 ff ff       	call   24e0 <pthread_create@plt>
  for (int x = external_index, buffer_index = 0 ; x < external_index + external_threads; x++, buffer_index++) {
    4088:	48 83 44 24 10 08    	addq   $0x8,0x10(%rsp)
    408e:	48 83 84 24 d0 00 00 00 10 	addq   $0x10,0xd0(%rsp)
    4097:	48 83 44 24 08 38    	addq   $0x38,0x8(%rsp)
    409d:	41 83 fe 09          	cmp    $0x9,%r14d
    40a1:	75 17                	jne    40ba <main+0x19fa>
    40a3:	41 be 0a 00 00 00    	mov    $0xa,%r14d
    40a9:	e9 3e ff ff ff       	jmp    3fec <main+0x192c>
            CPU_SET(j, sendercpu);
    40ae:	48 81 0b ff 0f 00 00 	orq    $0xfff,(%rbx)
          for (int j = 0 ; j < cores ; j++) {
    40b5:	e9 b0 ec ff ff       	jmp    2d6a <main+0x6aa>
    40ba:	48 8b 44 24 38       	mov    0x38(%rsp),%rax
    40bf:	48 8d 2d 3a 55 00 00 	lea    0x553a(%rip),%rbp        # 9600 <_IO_stdin_used+0x600>
    40c6:	4c 8d 68 04          	lea    0x4(%rax),%r13
    40ca:	4c 8d a0 64 0c 00 00 	lea    0xc64(%rax),%r12
    40d1:	41 8b 4d 04          	mov    0x4(%r13),%ecx
    40d5:	41 8b 55 00          	mov    0x0(%r13),%edx
    40d9:	48 89 ee             	mov    %rbp,%rsi
    40dc:	bf 01 00 00 00       	mov    $0x1,%edi
    40e1:	31 c0                	xor    %eax,%eax
  }

  for (int x = 0 ; x < total_threads ; x++) {
    40e3:	49 81 c5 20 01 00 00 	add    $0x120,%r13
    40ea:	e8 d1 e3 ff ff       	call   24c0 <__printf_chk@plt>
    40ef:	4d 39 ec             	cmp    %r13,%r12
    40f2:	75 dd                	jne    40d1 <main+0x1a11>
    40f4:	48 8d 3d 18 55 00 00 	lea    0x5518(%rip),%rdi        # 9613 <_IO_stdin_used+0x613>
    40fb:	45 31 ed             	xor    %r13d,%r13d
    40fe:	4c 8d a4 24 10 01 00 00 	lea    0x110(%rsp),%r12
    4106:	e8 35 e2 ff ff       	call   2340 <puts@plt>
    printf("threadindex %d %d\n", thread_data[x].thread_index, thread_data[x].real_thread_index);
  }

  printf("Waiting for threads to finish\n");  
  for (int x = 0 ; x < total_threads ; x++) {
    410b:	48 8d 2d 1f 55 00 00 	lea    0x551f(%rip),%rbp        # 9631 <_IO_stdin_used+0x631>
    void * result; 
    pthread_join(thread[x], &result);
    4112:	4a 8b 3c eb          	mov    (%rbx,%r13,8),%rdi
    4116:	4c 89 e6             	mov    %r12,%rsi
    4119:	e8 52 e4 ff ff       	call   2570 <pthread_join@plt>
    411e:	44 89 ea             	mov    %r13d,%edx
    4121:	48 89 ee             	mov    %rbp,%rsi
    4124:	bf 01 00 00 00       	mov    $0x1,%edi
    4129:	31 c0                	xor    %eax,%eax
  for (int x = 0 ; x < total_threads ; x++) {
    412b:	49 83 c5 01          	add    $0x1,%r13
    412f:	e8 8c e3 ff ff       	call   24c0 <__printf_chk@plt>
    4134:	49 83 fd 0b          	cmp    $0xb,%r13
    4138:	75 d8                	jne    4112 <main+0x1a52>
    printf("Finished thread %d\n", x);
  }
  struct Data ** datas = calloc(1024, sizeof(struct Data*)); 
    413a:	be 08 00 00 00       	mov    $0x8,%esi
    413f:	bf 00 04 00 00       	mov    $0x400,%edi
  int datas2_size = 0; 
    4144:	31 db                	xor    %ebx,%ebx
  struct Data ** datas = calloc(1024, sizeof(struct Data*)); 
    4146:	e8 c5 e2 ff ff       	call   2410 <calloc@plt>
    414b:	48 8b 54 24 38       	mov    0x38(%rsp),%rdx
    4150:	48 89 c5             	mov    %rax,%rbp
    4153:	31 c0                	xor    %eax,%eax
  for (int k = 0 ; k < group_count ; k++) {
    for (int d = 0 ; d < threads_per_group ; d++) {
    4155:	49 89 d1             	mov    %rdx,%r9
    4158:	45 31 db             	xor    %r11d,%r11d
      int x = (k * threads_per_group) + d;
      for (int n = 0 ; n < thread_data[x].task_count ; n++) {
    415b:	45 8b 51 40          	mov    0x40(%r9),%r10d
    415f:	45 85 d2             	test   %r10d,%r10d
    4162:	0f 8e a8 00 00 00    	jle    4210 <main+0x1b50>
    4168:	49 8b 79 38          	mov    0x38(%r9),%rdi
    416c:	4d 63 c2             	movslq %r10d,%r8
    416f:	48 63 cb             	movslq %ebx,%rcx
    4172:	49 c1 e0 09          	shl    $0x9,%r8
    4176:	48 8d 74 cd 00       	lea    0x0(%rbp,%rcx,8),%rsi
    417b:	49 01 f8             	add    %rdi,%r8
    417e:	66 90                	xchg   %ax,%ax
        for (int kk = 0 ; kk < mailboxes_needed ; kk++) {
          datas[datas2_size++] = ((struct Data*) ((struct Mailbox)thread_data[x].tasks[n].mailboxes[kk]).lower);
    4180:	48 8b 8f 70 01 00 00 	mov    0x170(%rdi),%rcx
      for (int n = 0 ; n < thread_data[x].task_count ; n++) {
    4187:	48 81 c7 00 02 00 00 	add    $0x200,%rdi
    418e:	48 83 c6 60          	add    $0x60,%rsi
    4192:	f3 0f 7e a1 00 01 00 00 	movq   0x100(%rcx),%xmm4
          datas[datas2_size++] = ((struct Data*) ((struct Mailbox)thread_data[x].tasks[n].mailboxes[kk]).lower);
    419a:	f3 0f 7e 29          	movq   (%rcx),%xmm5
    419e:	f3 0f 7e 99 00 02 00 00 	movq   0x200(%rcx),%xmm3
    41a6:	f3 0f 7e 91 00 03 00 00 	movq   0x300(%rcx),%xmm2
    41ae:	f3 0f 7e 89 00 04 00 00 	movq   0x400(%rcx),%xmm1
    41b6:	0f 16 a1 80 01 00 00 	movhps 0x180(%rcx),%xmm4
          datas[datas2_size++] = ((struct Data*) ((struct Mailbox)thread_data[x].tasks[n].mailboxes[kk]).higher);
    41bd:	f3 0f 7e 81 00 05 00 00 	movq   0x500(%rcx),%xmm0
          datas[datas2_size++] = ((struct Data*) ((struct Mailbox)thread_data[x].tasks[n].mailboxes[kk]).lower);
    41c5:	0f 16 a9 80 00 00 00 	movhps 0x80(%rcx),%xmm5
    41cc:	0f 16 99 80 02 00 00 	movhps 0x280(%rcx),%xmm3
          datas[datas2_size++] = ((struct Data*) ((struct Mailbox)thread_data[x].tasks[n].mailboxes[kk]).higher);
    41d3:	0f 16 91 80 03 00 00 	movhps 0x380(%rcx),%xmm2
          datas[datas2_size++] = ((struct Data*) ((struct Mailbox)thread_data[x].tasks[n].mailboxes[kk]).lower);
    41da:	0f 11 6e a0          	movups %xmm5,-0x60(%rsi)
    41de:	0f 16 89 80 04 00 00 	movhps 0x480(%rcx),%xmm1
          datas[datas2_size++] = ((struct Data*) ((struct Mailbox)thread_data[x].tasks[n].mailboxes[kk]).higher);
    41e5:	0f 16 81 80 05 00 00 	movhps 0x580(%rcx),%xmm0
          datas[datas2_size++] = ((struct Data*) ((struct Mailbox)thread_data[x].tasks[n].mailboxes[kk]).lower);
    41ec:	0f 11 66 b0          	movups %xmm4,-0x50(%rsi)
    41f0:	0f 11 5e c0          	movups %xmm3,-0x40(%rsi)
    41f4:	0f 11 56 d0          	movups %xmm2,-0x30(%rsi)
    41f8:	0f 11 4e e0          	movups %xmm1,-0x20(%rsi)
    41fc:	0f 11 46 f0          	movups %xmm0,-0x10(%rsi)
      for (int n = 0 ; n < thread_data[x].task_count ; n++) {
    4200:	4c 39 c7             	cmp    %r8,%rdi
    4203:	0f 85 77 ff ff ff    	jne    4180 <main+0x1ac0>
    4209:	43 8d 0c 52          	lea    (%r10,%r10,2),%ecx
    420d:	8d 1c 8b             	lea    (%rbx,%rcx,4),%ebx
    for (int d = 0 ; d < threads_per_group ; d++) {
    4210:	49 81 c1 20 01 00 00 	add    $0x120,%r9
    4217:	45 85 db             	test   %r11d,%r11d
    421a:	75 08                	jne    4224 <main+0x1b64>
    421c:	45 89 fb             	mov    %r15d,%r11d
    421f:	e9 37 ff ff ff       	jmp    415b <main+0x1a9b>
  for (int k = 0 ; k < group_count ; k++) {
    4224:	83 c0 02             	add    $0x2,%eax
    4227:	48 81 c2 40 02 00 00 	add    $0x240,%rdx
    422e:	83 f8 06             	cmp    $0x6,%eax
    4231:	0f 85 1e ff ff ff    	jne    4155 <main+0x1a95>
    4237:	48 8d 3d 07 54 00 00 	lea    0x5407(%rip),%rdi        # 9645 <_IO_stdin_used+0x645>
    423e:	e8 fd e0 ff ff       	call   2340 <puts@plt>
      }
    }
  }
  printf("Mailboxes list 2 mlist2\n");
  FILE *m2;
  m2 = fopen("mailbox2", "w");
    4243:	48 8d 35 a5 52 00 00 	lea    0x52a5(%rip),%rsi        # 94ef <_IO_stdin_used+0x4ef>
    424a:	48 8d 3d 0c 54 00 00 	lea    0x540c(%rip),%rdi        # 965d <_IO_stdin_used+0x65d>
    4251:	e8 aa e2 ff ff       	call   2500 <fopen@plt>
    4256:	49 89 c6             	mov    %rax,%r14
  for (int x = 0 ; x < datas2_size; x++) {
    4259:	85 db                	test   %ebx,%ebx
    425b:	7e 73                	jle    42d0 <main+0x1c10>
    425d:	48 63 db             	movslq %ebx,%rbx
    4260:	49 89 ef             	mov    %rbp,%r15
    4263:	4c 8d 2d 64 52 00 00 	lea    0x5264(%rip),%r13        # 94ce <_IO_stdin_used+0x4ce>
    426a:	48 8d 6c dd 00       	lea    0x0(%rbp,%rbx,8),%rbp
    426f:	4c 8d 25 9c 52 00 00 	lea    0x529c(%rip),%r12        # 9512 <_IO_stdin_used+0x512>
    char * c = calloc(250, sizeof(char));
    4276:	be 01 00 00 00       	mov    $0x1,%esi
    427b:	bf fa 00 00 00       	mov    $0xfa,%edi
  for (int x = 0 ; x < datas2_size; x++) {
    4280:	49 83 c7 08          	add    $0x8,%r15
    char * c = calloc(250, sizeof(char));
    4284:	e8 87 e1 ff ff       	call   2410 <calloc@plt>
  return __builtin___sprintf_chk (__s, __USE_FORTIFY_LEVEL - 1,
    4289:	4c 89 e9             	mov    %r13,%rcx
    428c:	ba fa 00 00 00       	mov    $0xfa,%edx
    4291:	be 01 00 00 00       	mov    $0x1,%esi
    4296:	48 89 c3             	mov    %rax,%rbx
    sprintf(c, "mailbox %d\n", datas[x]->id);
    4299:	49 8b 47 f8          	mov    -0x8(%r15),%rax
    429d:	48 89 df             	mov    %rbx,%rdi
    42a0:	44 8b 80 18 04 00 00 	mov    0x418(%rax),%r8d
    42a7:	31 c0                	xor    %eax,%eax
    42a9:	e8 12 e3 ff ff       	call   25c0 <__sprintf_chk@plt>
  return __printf_chk (__USE_FORTIFY_LEVEL - 1, __fmt, __va_arg_pack ());
    42ae:	48 89 da             	mov    %rbx,%rdx
    42b1:	4c 89 e6             	mov    %r12,%rsi
    42b4:	bf 01 00 00 00       	mov    $0x1,%edi
    42b9:	31 c0                	xor    %eax,%eax
    42bb:	e8 00 e2 ff ff       	call   24c0 <__printf_chk@plt>
  return __fprintf_chk (__stream, __USE_FORTIFY_LEVEL - 1, __fmt,
    42c0:	4c 89 f6             	mov    %r14,%rsi
    42c3:	48 89 df             	mov    %rbx,%rdi
    42c6:	e8 05 e1 ff ff       	call   23d0 <fputs@plt>
  for (int x = 0 ; x < datas2_size; x++) {
    42cb:	49 39 ef             	cmp    %rbp,%r15
    42ce:	75 a6                	jne    4276 <main+0x1bb6>
    printf("%s", c);
    fprintf(m2, "%s", c);
  } 
  fclose(m2);
    42d0:	4c 89 f7             	mov    %r14,%rdi
    42d3:	41 bc ff ff ff ff    	mov    $0xffffffff,%r12d
  long total = 0;
  long ingests = 0;
  long sends = 0;
  long sents = 0;
  long received = 0;
    42d9:	31 db                	xor    %ebx,%ebx
      for (int n = 0 ; n < thread_data[x].task_timestamp_limit ; n++) {
        struct timespec start = thread_data[x].task_snapshot[n].task_start;
        struct timespec end = thread_data[x].task_snapshot[n].task_end;
        const uint64_t seconds = (end.tv_sec) - (start.tv_sec);
        const uint64_t seconds2 = (end.tv_nsec) - (start.tv_nsec);
        printf("%d tasks (%d) synchronized in %ld seconds %ld milliseconds %ld nanoseconds\n", 2, thread_data[x].task_snapshot[n].task, seconds, seconds2 / 1000000, seconds2);
    42db:	48 bd db 34 b6 d7 82 de 1b 43 	movabs $0x431bde82d7b634db,%rbp
  fclose(m2);
    42e5:	e8 86 e0 ff ff       	call   2370 <fclose@plt>
  long sents = 0;
    42ea:	48 c7 44 24 28 00 00 00 00 	movq   $0x0,0x28(%rsp)
  long sends = 0;
    42f3:	48 c7 44 24 18 00 00 00 00 	movq   $0x0,0x18(%rsp)
  long ingests = 0;
    42fc:	48 c7 44 24 20 00 00 00 00 	movq   $0x0,0x20(%rsp)
  long total = 0;
    4305:	48 c7 44 24 30 00 00 00 00 	movq   $0x0,0x30(%rsp)
  int datas2_size = 0; 
    430e:	48 8b 84 24 d8 00 00 00 	mov    0xd8(%rsp),%rax
    4316:	45 8d 44 24 02       	lea    0x2(%r12),%r8d
    431b:	4c 8b b4 24 98 00 00 00 	mov    0x98(%rsp),%r14
    4323:	45 89 e5             	mov    %r12d,%r13d
    4326:	44 89 44 24 48       	mov    %r8d,0x48(%rsp)
    432b:	48 89 44 24 40       	mov    %rax,0x40(%rsp)
    4330:	4d 89 f4             	mov    %r14,%r12
      int x = (k * threads_per_group) + d;
    4333:	44 89 e8             	mov    %r13d,%eax
    4336:	41 83 c5 01          	add    $0x1,%r13d
  return __printf_chk (__USE_FORTIFY_LEVEL - 1, __fmt, __va_arg_pack ());
    433a:	bf 0a 00 00 00       	mov    $0xa,%edi
        other = abs(x - 1) % total_threads;
    433f:	41 f6 c5 01          	test   $0x1,%r13b
    4343:	8d 50 02             	lea    0x2(%rax),%edx
    4346:	0f 44 c2             	cmove  %edx,%eax
    4349:	41 89 c6             	mov    %eax,%r14d
    434c:	e8 cf df ff ff       	call   2320 <putchar@plt>
    4351:	48 8b 44 24 40       	mov    0x40(%rsp),%rax
    4356:	bf 01 00 00 00       	mov    $0x1,%edi
    435b:	48 8d 35 04 53 00 00 	lea    0x5304(%rip),%rsi        # 9666 <_IO_stdin_used+0x666>
    4362:	48 8b 10             	mov    (%rax),%rdx
    4365:	31 c0                	xor    %eax,%eax
    4367:	e8 54 e1 ff ff       	call   24c0 <__printf_chk@plt>
      for (int n = 0 ; n < thread_data[me].task_count ; n++) {
    436c:	41 8b 54 24 40       	mov    0x40(%r12),%edx
    4371:	85 d2                	test   %edx,%edx
    4373:	0f 8e 53 05 00 00    	jle    48cc <main+0x220c>
    4379:	48 63 ca             	movslq %edx,%rcx
    437c:	49 8b 44 24 38       	mov    0x38(%r12),%rax
      long v = 0;
    4381:	31 d2                	xor    %edx,%edx
    4383:	48 c1 e1 09          	shl    $0x9,%rcx
    4387:	48 01 c1             	add    %rax,%rcx
    438a:	66 0f 1f 44 00 00    	nopw   0x0(%rax,%rax,1)
        v += thread_data[me].tasks[n].v;
    4390:	48 03 90 10 01 00 00 	add    0x110(%rax),%rdx
      for (int n = 0 ; n < thread_data[me].task_count ; n++) {
    4397:	48 05 00 02 00 00    	add    $0x200,%rax
    439d:	48 39 c8             	cmp    %rcx,%rax
    43a0:	75 ee                	jne    4390 <main+0x1cd0>
      for (int n = 0 ; n < thread_data[other].task_count ; n++) {
    43a2:	49 63 c6             	movslq %r14d,%rax
    43a5:	48 8b 7c 24 38       	mov    0x38(%rsp),%rdi
    43aa:	48 8d 04 c0          	lea    (%rax,%rax,8),%rax
    43ae:	48 c1 e0 05          	shl    $0x5,%rax
    43b2:	48 01 f8             	add    %rdi,%rax
    43b5:	48 63 48 40          	movslq 0x40(%rax),%rcx
    43b9:	85 c9                	test   %ecx,%ecx
    43bb:	7e 25                	jle    43e2 <main+0x1d22>
    43bd:	48 8b 40 38          	mov    0x38(%rax),%rax
    43c1:	48 c1 e1 09          	shl    $0x9,%rcx
    43c5:	48 01 c1             	add    %rax,%rcx
    43c8:	0f 1f 84 00 00 00 00 00 	nopl   0x0(%rax,%rax,1)
        v += thread_data[other].tasks[n].v;
    43d0:	48 03 90 10 01 00 00 	add    0x110(%rax),%rdx
      for (int n = 0 ; n < thread_data[other].task_count ; n++) {
    43d7:	48 05 00 02 00 00    	add    $0x200,%rax
    43dd:	48 39 c1             	cmp    %rax,%rcx
    43e0:	75 ee                	jne    43d0 <main+0x1d10>
    43e2:	48 8d 35 92 52 00 00 	lea    0x5292(%rip),%rsi        # 967b <_IO_stdin_used+0x67b>
    43e9:	bf 01 00 00 00       	mov    $0x1,%edi
    43ee:	31 c0                	xor    %eax,%eax
    43f0:	e8 cb e0 ff ff       	call   24c0 <__printf_chk@plt>
      printf("Total Protected per second %ld\n", protected_state[me].protected / DURATION);
    43f5:	48 8b 44 24 40       	mov    0x40(%rsp),%rax
    43fa:	bf 01 00 00 00       	mov    $0x1,%edi
    43ff:	48 8d 35 fa 56 00 00 	lea    0x56fa(%rip),%rsi        # 9b00 <_IO_stdin_used+0xb00>
    4406:	48 8b 08             	mov    (%rax),%rcx
    4409:	48 b8 0b d7 a3 70 3d 0a d7 a3 	movabs $0xa3d70a3d70a3d70b,%rax
    4413:	48 f7 e9             	imul   %rcx
    4416:	31 c0                	xor    %eax,%eax
    4418:	48 01 ca             	add    %rcx,%rdx
    441b:	48 c1 f9 3f          	sar    $0x3f,%rcx
    441f:	48 c1 fa 04          	sar    $0x4,%rdx
    4423:	48 29 ca             	sub    %rcx,%rdx
    4426:	e8 95 e0 ff ff       	call   24c0 <__printf_chk@plt>
    442b:	bf 0a 00 00 00       	mov    $0xa,%edi
    4430:	e8 eb de ff ff       	call   2320 <putchar@plt>
      for (int n = 0 ; n < thread_data[x].task_count ; n++) {
    4435:	45 8b 74 24 40       	mov    0x40(%r12),%r14d
    443a:	45 85 f6             	test   %r14d,%r14d
    443d:	0f 8e 43 01 00 00    	jle    4586 <main+0x1ec6>
    4443:	4c 8b 54 24 18       	mov    0x18(%rsp),%r10
    4448:	48 8b 74 24 20       	mov    0x20(%rsp),%rsi
    444d:	44 89 6c 24 08       	mov    %r13d,0x8(%rsp)
    4452:	31 d2                	xor    %edx,%edx
    4454:	48 8b 7c 24 30       	mov    0x30(%rsp),%rdi
    4459:	4c 8b 7c 24 28       	mov    0x28(%rsp),%r15
    445e:	4d 89 e5             	mov    %r12,%r13
    4461:	0f 1f 80 00 00 00 00 	nopl   0x0(%rax)
        total += thread_data[x].tasks[n].n;
    4468:	49 8b 45 38          	mov    0x38(%r13),%rax
    446c:	49 89 d1             	mov    %rdx,%r9
        sends += thread_data[x].tasks[n].sends;
    446f:	48 89 54 24 30       	mov    %rdx,0x30(%rsp)
    4474:	41 89 d4             	mov    %edx,%r12d
        total += thread_data[x].tasks[n].n;
    4477:	49 c1 e1 09          	shl    $0x9,%r9
        sends += thread_data[x].tasks[n].sends;
    447b:	45 31 f6             	xor    %r14d,%r14d
        total += thread_data[x].tasks[n].n;
    447e:	4c 01 c8             	add    %r9,%rax
        sends += thread_data[x].tasks[n].sends;
    4481:	4c 89 4c 24 10       	mov    %r9,0x10(%rsp)
        total += thread_data[x].tasks[n].n;
    4486:	48 03 b8 08 01 00 00 	add    0x108(%rax),%rdi
        ingests += thread_data[x].tasks[n].ingest_count;
    448d:	48 03 b0 68 01 00 00 	add    0x168(%rax),%rsi
        sends += thread_data[x].tasks[n].sends;
    4494:	4c 03 90 80 01 00 00 	add    0x180(%rax),%r10
    449b:	48 89 74 24 20       	mov    %rsi,0x20(%rsp)
    44a0:	4c 89 54 24 18       	mov    %r10,0x18(%rsp)
    44a5:	48 89 7c 24 28       	mov    %rdi,0x28(%rsp)
    44aa:	66 0f 1f 44 00 00    	nopw   0x0(%rax,%rax,1)
    44b0:	8b 54 24 08          	mov    0x8(%rsp),%edx
    44b4:	45 89 f0             	mov    %r14d,%r8d
    44b7:	44 89 e1             	mov    %r12d,%ecx
    44ba:	bf 01 00 00 00       	mov    $0x1,%edi
    44bf:	48 8d 35 c2 51 00 00 	lea    0x51c2(%rip),%rsi        # 9688 <_IO_stdin_used+0x688>
    44c6:	31 c0                	xor    %eax,%eax
    44c8:	e8 f3 df ff ff       	call   24c0 <__printf_chk@plt>
          sents += ((struct Data*) ((struct Mailbox)thread_data[x].tasks[n].mailboxes[kk]).lower)->sent;
    44cd:	48 8b 7c 24 10       	mov    0x10(%rsp),%rdi
    44d2:	4c 89 f0             	mov    %r14,%rax
    44d5:	45 89 f0             	mov    %r14d,%r8d
    44d8:	49 8b 55 38          	mov    0x38(%r13),%rdx
    44dc:	48 c1 e0 08          	shl    $0x8,%rax
    44e0:	48 83 ec 08          	sub    $0x8,%rsp
        for (int kk = 0 ; kk < mailboxes_needed ; kk++) {
    44e4:	49 83 c6 01          	add    $0x1,%r14
          sents += ((struct Data*) ((struct Mailbox)thread_data[x].tasks[n].mailboxes[kk]).lower)->sent;
    44e8:	48 03 84 3a 70 01 00 00 	add    0x170(%rdx,%rdi,1),%rax
    44f0:	48 8b 38             	mov    (%rax),%rdi
          sents += ((struct Data*) ((struct Mailbox)thread_data[x].tasks[n].mailboxes[kk]).higher)->sent;
    44f3:	48 8b b0 80 00 00 00 	mov    0x80(%rax),%rsi
          long temprec = ((struct Data*) ((struct Mailbox)thread_data[x].tasks[n].mailboxes[kk]).lower)->received + ((struct Data*) ((struct Mailbox)thread_data[x].tasks[n].mailboxes[kk]).higher)->received;
    44fa:	48 8b 87 00 04 00 00 	mov    0x400(%rdi),%rax
          sents += ((struct Data*) ((struct Mailbox)thread_data[x].tasks[n].mailboxes[kk]).higher)->sent;
    4501:	48 8b 96 80 03 00 00 	mov    0x380(%rsi),%rdx
          long temprec = ((struct Data*) ((struct Mailbox)thread_data[x].tasks[n].mailboxes[kk]).lower)->received + ((struct Data*) ((struct Mailbox)thread_data[x].tasks[n].mailboxes[kk]).higher)->received;
    4508:	48 8b b6 00 04 00 00 	mov    0x400(%rsi),%rsi
          sents += ((struct Data*) ((struct Mailbox)thread_data[x].tasks[n].mailboxes[kk]).lower)->sent;
    450f:	48 8b 8f 80 03 00 00 	mov    0x380(%rdi),%rcx
    4516:	bf 01 00 00 00       	mov    $0x1,%edi
          received += ((struct Data*)((struct Mailbox)thread_data[x].tasks[n].mailboxes[kk]).lower)->received;
    451b:	48 01 c3             	add    %rax,%rbx
          long temprec = ((struct Data*) ((struct Mailbox)thread_data[x].tasks[n].mailboxes[kk]).lower)->received + ((struct Data*) ((struct Mailbox)thread_data[x].tasks[n].mailboxes[kk]).higher)->received;
    451e:	48 01 f0             	add    %rsi,%rax
          sents += ((struct Data*) ((struct Mailbox)thread_data[x].tasks[n].mailboxes[kk]).lower)->sent;
    4521:	49 01 cf             	add    %rcx,%r15
    4524:	4c 8d 0c 11          	lea    (%rcx,%rdx,1),%r9
          received += ((struct Data*)((struct Mailbox)thread_data[x].tasks[n].mailboxes[kk]).higher)->received;
    4528:	48 01 f3             	add    %rsi,%rbx
    452b:	50                   	push   %rax
          sents += ((struct Data*) ((struct Mailbox)thread_data[x].tasks[n].mailboxes[kk]).higher)->sent;
    452c:	49 01 d7             	add    %rdx,%r15
    452f:	8b 54 24 18          	mov    0x18(%rsp),%edx
    4533:	44 89 e1             	mov    %r12d,%ecx
    4536:	48 8d 35 e3 55 00 00 	lea    0x55e3(%rip),%rsi        # 9b20 <_IO_stdin_used+0xb20>
    453d:	31 c0                	xor    %eax,%eax
    453f:	e8 7c df ff ff       	call   24c0 <__printf_chk@plt>
        for (int kk = 0 ; kk < mailboxes_needed ; kk++) {
    4544:	41 5a                	pop    %r10
    4546:	41 5b                	pop    %r11
    4548:	49 83 fe 06          	cmp    $0x6,%r14
    454c:	0f 85 5e ff ff ff    	jne    44b0 <main+0x1df0>
      for (int n = 0 ; n < thread_data[x].task_count ; n++) {
    4552:	48 8b 54 24 30       	mov    0x30(%rsp),%rdx
    4557:	4c 8b 54 24 18       	mov    0x18(%rsp),%r10
    455c:	48 8b 74 24 20       	mov    0x20(%rsp),%rsi
    4561:	48 8b 7c 24 28       	mov    0x28(%rsp),%rdi
    4566:	48 83 c2 01          	add    $0x1,%rdx
    456a:	41 39 55 40          	cmp    %edx,0x40(%r13)
    456e:	0f 8f f4 fe ff ff    	jg     4468 <main+0x1da8>
    4574:	48 89 7c 24 30       	mov    %rdi,0x30(%rsp)
    4579:	4d 89 ec             	mov    %r13,%r12
    457c:	44 8b 6c 24 08       	mov    0x8(%rsp),%r13d
    4581:	4c 89 7c 24 28       	mov    %r15,0x28(%rsp)
      for (int n = 0 ; n < thread_data[x].task_timestamp_limit ; n++) {
    4586:	45 31 ff             	xor    %r15d,%r15d
    4589:	4c 8d 35 b0 55 00 00 	lea    0x55b0(%rip),%r14        # 9b40 <_IO_stdin_used+0xb40>
    4590:	49 83 bc 24 a8 00 00 00 00 	cmpq   $0x0,0xa8(%r12)
    4599:	7e 5f                	jle    45fa <main+0x1f3a>
    459b:	0f 1f 44 00 00       	nopl   0x0(%rax,%rax,1)
        struct timespec start = thread_data[x].task_snapshot[n].task_start;
    45a0:	49 8b 84 24 98 00 00 00 	mov    0x98(%r12),%rax
    45a8:	4b 8d 14 bf          	lea    (%r15,%r15,4),%rdx
    45ac:	48 83 ec 08          	sub    $0x8,%rsp
    45b0:	bf 01 00 00 00       	mov    $0x1,%edi
      for (int n = 0 ; n < thread_data[x].task_timestamp_limit ; n++) {
    45b5:	49 83 c7 01          	add    $0x1,%r15
        struct timespec start = thread_data[x].task_snapshot[n].task_start;
    45b9:	48 8d 0c d0          	lea    (%rax,%rdx,8),%rcx
        const uint64_t seconds2 = (end.tv_nsec) - (start.tv_nsec);
    45bd:	48 8b 71 18          	mov    0x18(%rcx),%rsi
    45c1:	48 2b 71 08          	sub    0x8(%rcx),%rsi
        printf("%d tasks (%d) synchronized in %ld seconds %ld milliseconds %ld nanoseconds\n", 2, thread_data[x].task_snapshot[n].task, seconds, seconds2 / 1000000, seconds2);
    45c5:	48 89 f0             	mov    %rsi,%rax
        const uint64_t seconds = (end.tv_sec) - (start.tv_sec);
    45c8:	4c 8b 41 10          	mov    0x10(%rcx),%r8
    45cc:	4c 2b 01             	sub    (%rcx),%r8
        printf("%d tasks (%d) synchronized in %ld seconds %ld milliseconds %ld nanoseconds\n", 2, thread_data[x].task_snapshot[n].task, seconds, seconds2 / 1000000, seconds2);
    45cf:	48 f7 e5             	mul    %rbp
    45d2:	8b 49 20             	mov    0x20(%rcx),%ecx
    45d5:	56                   	push   %rsi
    45d6:	31 c0                	xor    %eax,%eax
    45d8:	4c 89 f6             	mov    %r14,%rsi
    45db:	48 c1 ea 12          	shr    $0x12,%rdx
    45df:	49 89 d1             	mov    %rdx,%r9
    45e2:	ba 02 00 00 00       	mov    $0x2,%edx
    45e7:	e8 d4 de ff ff       	call   24c0 <__printf_chk@plt>
      for (int n = 0 ; n < thread_data[x].task_timestamp_limit ; n++) {
    45ec:	41 58                	pop    %r8
    45ee:	41 59                	pop    %r9
    45f0:	4d 39 bc 24 a8 00 00 00 	cmp    %r15,0xa8(%r12)
    45f8:	7f a6                	jg     45a0 <main+0x1ee0>
        // printf("%ldns per thread\n", (seconds2 / 2));
      }
      // printf("cycles %ld\n", thread_data[x].cycles);

      for (int b = 0 ; b < thread_data[x].buffers_count ; b++) {
    45fa:	41 8b 94 24 c4 00 00 00 	mov    0xc4(%r12),%edx
    4602:	85 d2                	test   %edx,%edx
    4604:	0f 8e 09 01 00 00    	jle    4713 <main+0x2053>
    460a:	48 89 5c 24 50       	mov    %rbx,0x50(%rsp)
        for (int n = 0 ; n < thread_data[x].buffers[b]->count ; n++) {
    460f:	49 8b 7c 24 50       	mov    0x50(%r12),%rdi
    4614:	45 31 ff             	xor    %r15d,%r15d
    4617:	44 89 6c 24 58       	mov    %r13d,0x58(%rsp)
    461c:	0f 1f 40 00          	nopl   0x0(%rax)
    4620:	4a 8b 04 ff          	mov    (%rdi,%r15,8),%rax
    4624:	44 89 fb             	mov    %r15d,%ebx
    4627:	4e 8d 2c fd 00 00 00 00 	lea    0x0(,%r15,8),%r13
    462f:	8b 30                	mov    (%rax),%esi
    4631:	85 f6                	test   %esi,%esi
    4633:	0f 8e c3 00 00 00    	jle    46fc <main+0x203c>
    4639:	4c 89 7c 24 10       	mov    %r15,0x10(%rsp)
    for (int k = 0 ; k < thread_data[x].buffers[b]->buffer[n].ingest_snapshot ; k++) {
    463e:	31 d2                	xor    %edx,%edx
    4640:	48 8b 48 08          	mov    0x8(%rax),%rcx
    4644:	49 89 f8             	mov    %rdi,%r8
    4647:	48 89 d7             	mov    %rdx,%rdi
    464a:	66 0f 1f 44 00 00    	nopw   0x0(%rax,%rax,1)
    4650:	49 89 fe             	mov    %rdi,%r14
    4653:	45 31 ff             	xor    %r15d,%r15d
    4656:	49 c1 e6 08          	shl    $0x8,%r14
    465a:	4a 8d 04 31          	lea    (%rcx,%r14,1),%rax
    465e:	8b 90 94 00 00 00    	mov    0x94(%rax),%edx
    4664:	85 d2                	test   %edx,%edx
    4666:	7e 78                	jle    46e0 <main+0x2020>
    4668:	48 89 7c 24 08       	mov    %rdi,0x8(%rsp)
    466d:	0f 1f 00             	nopl   (%rax)
      struct timespec end = thread_data[x].buffers[b]->buffer[n].snapshots[k].end;
    4670:	4c 89 f9             	mov    %r15,%rcx
    4673:	48 83 ec 08          	sub    $0x8,%rsp
    4677:	bf 01 00 00 00       	mov    $0x1,%edi
    for (int k = 0 ; k < thread_data[x].buffers[b]->buffer[n].ingest_snapshot ; k++) {
    467c:	49 83 c7 01          	add    $0x1,%r15
      struct timespec end = thread_data[x].buffers[b]->buffer[n].snapshots[k].end;
    4680:	48 c1 e1 05          	shl    $0x5,%rcx
    4684:	48 03 88 88 00 00 00 	add    0x88(%rax),%rcx
      struct timespec start = thread_data[x].buffers[b]->buffer[n].snapshots[k].start;
      const uint64_t seconds = (end.tv_sec) - (start.tv_sec);
      const uint64_t seconds2 = (end.tv_nsec) - (start.tv_nsec);
    468b:	48 8b 71 18          	mov    0x18(%rcx),%rsi
    468f:	48 2b 71 08          	sub    0x8(%rcx),%rsi
      printf("%d external ingest latency (%d) in %ld seconds %ld milliseconds %ld nanoseconds\n", 2, b, seconds, seconds2 / 1000000, seconds2);
    4693:	48 89 f0             	mov    %rsi,%rax
      const uint64_t seconds = (end.tv_sec) - (start.tv_sec);
    4696:	4c 8b 41 10          	mov    0x10(%rcx),%r8
    469a:	4c 2b 01             	sub    (%rcx),%r8
    469d:	56                   	push   %rsi
      printf("%d external ingest latency (%d) in %ld seconds %ld milliseconds %ld nanoseconds\n", 2, b, seconds, seconds2 / 1000000, seconds2);
    469e:	48 f7 e5             	mul    %rbp
    46a1:	89 d9                	mov    %ebx,%ecx
    46a3:	48 8d 35 e6 54 00 00 	lea    0x54e6(%rip),%rsi        # 9b90 <_IO_stdin_used+0xb90>
    46aa:	31 c0                	xor    %eax,%eax
    46ac:	48 c1 ea 12          	shr    $0x12,%rdx
    46b0:	49 89 d1             	mov    %rdx,%r9
    46b3:	ba 02 00 00 00       	mov    $0x2,%edx
    46b8:	e8 03 de ff ff       	call   24c0 <__printf_chk@plt>
    for (int k = 0 ; k < thread_data[x].buffers[b]->buffer[n].ingest_snapshot ; k++) {
    46bd:	4d 8b 44 24 50       	mov    0x50(%r12),%r8
    46c2:	5e                   	pop    %rsi
    46c3:	5f                   	pop    %rdi
    46c4:	4b 8b 14 28          	mov    (%r8,%r13,1),%rdx
    46c8:	48 8b 4a 08          	mov    0x8(%rdx),%rcx
    46cc:	4a 8d 04 31          	lea    (%rcx,%r14,1),%rax
    46d0:	44 39 b8 94 00 00 00 	cmp    %r15d,0x94(%rax)
    46d7:	7f 97                	jg     4670 <main+0x1fb0>
        for (int n = 0 ; n < thread_data[x].buffers[b]->count ; n++) {
    46d9:	48 8b 7c 24 08       	mov    0x8(%rsp),%rdi
    46de:	8b 32                	mov    (%rdx),%esi
    46e0:	48 83 c7 01          	add    $0x1,%rdi
    46e4:	39 fe                	cmp    %edi,%esi
    46e6:	0f 8f 64 ff ff ff    	jg     4650 <main+0x1f90>
      for (int b = 0 ; b < thread_data[x].buffers_count ; b++) {
    46ec:	4c 8b 7c 24 10       	mov    0x10(%rsp),%r15
    46f1:	41 8b 94 24 c4 00 00 00 	mov    0xc4(%r12),%edx
    46f9:	4c 89 c7             	mov    %r8,%rdi
    46fc:	49 83 c7 01          	add    $0x1,%r15
    4700:	44 39 fa             	cmp    %r15d,%edx
    4703:	0f 8f 17 ff ff ff    	jg     4620 <main+0x1f60>
    4709:	48 8b 5c 24 50       	mov    0x50(%rsp),%rbx
    470e:	44 8b 6c 24 58       	mov    0x58(%rsp),%r13d
    for (int d = 0 ; d < threads_per_group ; d++) {
    4713:	48 83 44 24 40 18    	addq   $0x18,0x40(%rsp)
    4719:	49 81 c4 20 01 00 00 	add    $0x120,%r12
    4720:	44 39 6c 24 48       	cmp    %r13d,0x48(%rsp)
    4725:	0f 85 08 fc ff ff    	jne    4333 <main+0x1c73>
  for (int k = 0 ; k < group_count ; k++) {
    472b:	48 83 84 24 d8 00 00 00 30 	addq   $0x30,0xd8(%rsp)
    4734:	44 8b 44 24 48       	mov    0x48(%rsp),%r8d
    4739:	48 81 84 24 98 00 00 00 40 02 00 00 	addq   $0x240,0x98(%rsp)
    4745:	41 83 f8 05          	cmp    $0x5,%r8d
    4749:	74 08                	je     4753 <main+0x2093>
    474b:	45 89 c4             	mov    %r8d,%r12d
    474e:	e9 bb fb ff ff       	jmp    430e <main+0x1c4e>
    4753:	4c 8b 74 24 30       	mov    0x30(%rsp),%r14
    4758:	bf 01 00 00 00       	mov    $0x1,%edi
    475d:	31 c0                	xor    %eax,%eax
    475f:	49 89 df             	mov    %rbx,%r15
    4762:	48 8d 35 2f 4f 00 00 	lea    0x4f2f(%rip),%rsi        # 9698 <_IO_stdin_used+0x698>
    }
  }
  printf("Total Requests %ld\n", total);
  printf("\n");
  printf("Total money %ld (correct if 0 or 500)\n", protected_state->balance);
  printf("Total external thread ingests per second %ld\n", ingests / DURATION);
    4769:	48 bb 0b d7 a3 70 3d 0a d7 a3 	movabs $0xa3d70a3d70a3d70b,%rbx
    4773:	4c 89 f2             	mov    %r14,%rdx
    4776:	e8 45 dd ff ff       	call   24c0 <__printf_chk@plt>
    477b:	bf 0a 00 00 00       	mov    $0xa,%edi
    4780:	e8 9b db ff ff       	call   2320 <putchar@plt>
    4785:	48 8b bc 24 b0 00 00 00 	mov    0xb0(%rsp),%rdi
    478d:	48 8d 35 54 54 00 00 	lea    0x5454(%rip),%rsi        # 9be8 <_IO_stdin_used+0xbe8>
    4794:	31 c0                	xor    %eax,%eax
    4796:	48 8b 57 08          	mov    0x8(%rdi),%rdx
    479a:	bf 01 00 00 00       	mov    $0x1,%edi
    479f:	e8 1c dd ff ff       	call   24c0 <__printf_chk@plt>
    47a4:	48 8b 44 24 20       	mov    0x20(%rsp),%rax
    47a9:	48 8b 7c 24 20       	mov    0x20(%rsp),%rdi
    47ae:	48 8d 35 5b 54 00 00 	lea    0x545b(%rip),%rsi        # 9c10 <_IO_stdin_used+0xc10>
    47b5:	48 f7 eb             	imul   %rbx
    47b8:	31 c0                	xor    %eax,%eax
    47ba:	48 01 fa             	add    %rdi,%rdx
    47bd:	48 c1 ff 3f          	sar    $0x3f,%rdi
    47c1:	48 c1 fa 04          	sar    $0x4,%rdx
    47c5:	48 29 fa             	sub    %rdi,%rdx
    47c8:	bf 01 00 00 00       	mov    $0x1,%edi
    47cd:	e8 ee dc ff ff       	call   24c0 <__printf_chk@plt>
  printf("Total intra thread sends per second %ld\n", sends / DURATION);
    47d2:	48 8b 44 24 18       	mov    0x18(%rsp),%rax
    47d7:	48 8b 7c 24 18       	mov    0x18(%rsp),%rdi
    47dc:	48 8d 35 5d 54 00 00 	lea    0x545d(%rip),%rsi        # 9c40 <_IO_stdin_used+0xc40>
    47e3:	48 f7 eb             	imul   %rbx
    47e6:	31 c0                	xor    %eax,%eax
    47e8:	48 01 fa             	add    %rdi,%rdx
    47eb:	48 c1 ff 3f          	sar    $0x3f,%rdi
    47ef:	48 c1 fa 04          	sar    $0x4,%rdx
    47f3:	48 29 fa             	sub    %rdi,%rdx
    47f6:	bf 01 00 00 00       	mov    $0x1,%edi
    47fb:	e8 c0 dc ff ff       	call   24c0 <__printf_chk@plt>
  printf("Total Requests per second %ld\n", total / DURATION);
    4800:	4c 89 f0             	mov    %r14,%rax
    4803:	bf 01 00 00 00       	mov    $0x1,%edi
    4808:	48 8d 35 61 54 00 00 	lea    0x5461(%rip),%rsi        # 9c70 <_IO_stdin_used+0xc70>
    480f:	48 f7 eb             	imul   %rbx
    4812:	4c 89 f0             	mov    %r14,%rax
    4815:	48 c1 f8 3f          	sar    $0x3f,%rax
    4819:	4c 01 f2             	add    %r14,%rdx
    481c:	48 c1 fa 04          	sar    $0x4,%rdx
    4820:	48 29 c2             	sub    %rax,%rdx
    4823:	31 c0                	xor    %eax,%eax
    4825:	e8 96 dc ff ff       	call   24c0 <__printf_chk@plt>
  long sentdur = sents / DURATION;
    482a:	48 8b 44 24 28       	mov    0x28(%rsp),%rax
    482f:	bf 01 00 00 00       	mov    $0x1,%edi
    4834:	48 8d 35 71 4e 00 00 	lea    0x4e71(%rip),%rsi        # 96ac <_IO_stdin_used+0x6ac>
    483b:	48 f7 eb             	imul   %rbx
    483e:	48 8b 44 24 28       	mov    0x28(%rsp),%rax
    4843:	48 8d 2c 02          	lea    (%rdx,%rax,1),%rbp
    4847:	48 c1 f8 3f          	sar    $0x3f,%rax
    484b:	48 c1 fd 04          	sar    $0x4,%rbp
    484f:	48 29 c5             	sub    %rax,%rbp
    4852:	31 c0                	xor    %eax,%eax
    4854:	48 89 ea             	mov    %rbp,%rdx
    4857:	e8 64 dc ff ff       	call   24c0 <__printf_chk@plt>
  printf("Total sents per second %ld\n", sentdur);
  long recdur = received / DURATION;
    485c:	4c 89 f8             	mov    %r15,%rax
    485f:	bf 01 00 00 00       	mov    $0x1,%edi
    4864:	48 8d 35 25 54 00 00 	lea    0x5425(%rip),%rsi        # 9c90 <_IO_stdin_used+0xc90>
    486b:	48 f7 eb             	imul   %rbx
    486e:	4c 89 f8             	mov    %r15,%rax
    4871:	48 c1 f8 3f          	sar    $0x3f,%rax
    4875:	48 89 d3             	mov    %rdx,%rbx
    4878:	4c 01 fb             	add    %r15,%rbx
    487b:	48 c1 fb 04          	sar    $0x4,%rbx
    487f:	48 29 c3             	sub    %rax,%rbx
    4882:	31 c0                	xor    %eax,%eax
    4884:	48 89 da             	mov    %rbx,%rdx
  printf("Total receives per second %ld\n", recdur);
  // verify(thread_data, thread_count);
  printf("Difference %ld\n", recdur - sentdur);
    4887:	48 29 eb             	sub    %rbp,%rbx
    488a:	e8 31 dc ff ff       	call   24c0 <__printf_chk@plt>
    488f:	31 c0                	xor    %eax,%eax
    4891:	48 89 da             	mov    %rbx,%rdx
    4894:	bf 01 00 00 00       	mov    $0x1,%edi
    4899:	48 8d 35 28 4e 00 00 	lea    0x4e28(%rip),%rsi        # 96c8 <_IO_stdin_used+0x6c8>
    48a0:	e8 1b dc ff ff       	call   24c0 <__printf_chk@plt>
  return 0;

}
    48a5:	48 8b 84 24 28 01 00 00 	mov    0x128(%rsp),%rax
    48ad:	64 48 2b 04 25 28 00 00 00 	sub    %fs:0x28,%rax
    48b6:	75 25                	jne    48dd <main+0x221d>
    48b8:	48 81 c4 38 01 00 00 	add    $0x138,%rsp
    48bf:	31 c0                	xor    %eax,%eax
    48c1:	5b                   	pop    %rbx
    48c2:	5d                   	pop    %rbp
    48c3:	41 5c                	pop    %r12
    48c5:	41 5d                	pop    %r13
    48c7:	41 5e                	pop    %r14
    48c9:	41 5f                	pop    %r15
    48cb:	c3                   	ret
      long v = 0;
    48cc:	31 d2                	xor    %edx,%edx
    48ce:	e9 cf fa ff ff       	jmp    43a2 <main+0x1ce2>
            exit(1);
    48d3:	bf 01 00 00 00       	mov    $0x1,%edi
    48d8:	e8 43 dc ff ff       	call   2520 <exit@plt>
}
    48dd:	e8 ae da ff ff       	call   2390 <__stack_chk_fail@plt>
    48e2:	66 2e 0f 1f 84 00 00 00 00 00 	cs nopw 0x0(%rax,%rax,1)
    48ec:	0f 1f 40 00          	nopl   0x0(%rax)

00000000000048f0 <_start>:
    48f0:	f3 0f 1e fa          	endbr64
    48f4:	31 ed                	xor    %ebp,%ebp
    48f6:	49 89 d1             	mov    %rdx,%r9
    48f9:	5e                   	pop    %rsi
    48fa:	48 89 e2             	mov    %rsp,%rdx
    48fd:	48 83 e4 f0          	and    $0xfffffffffffffff0,%rsp
    4901:	50                   	push   %rax
    4902:	54                   	push   %rsp
    4903:	45 31 c0             	xor    %r8d,%r8d
    4906:	31 c9                	xor    %ecx,%ecx
    4908:	48 8d 3d b1 dd ff ff 	lea    -0x224f(%rip),%rdi        # 26c0 <main>
    490f:	ff 15 c3 76 00 00    	call   *0x76c3(%rip)        # bfd8 <__libc_start_main@GLIBC_2.34>
    4915:	f4                   	hlt
    4916:	66 2e 0f 1f 84 00 00 00 00 00 	cs nopw 0x0(%rax,%rax,1)

0000000000004920 <deregister_tm_clones>:
    4920:	48 8d 3d f9 76 00 00 	lea    0x76f9(%rip),%rdi        # c020 <stderr@GLIBC_2.2.5>
    4927:	48 8d 05 f2 76 00 00 	lea    0x76f2(%rip),%rax        # c020 <stderr@GLIBC_2.2.5>
    492e:	48 39 f8             	cmp    %rdi,%rax
    4931:	74 15                	je     4948 <deregister_tm_clones+0x28>
    4933:	48 8b 05 a6 76 00 00 	mov    0x76a6(%rip),%rax        # bfe0 <_ITM_deregisterTMCloneTable@Base>
    493a:	48 85 c0             	test   %rax,%rax
    493d:	74 09                	je     4948 <deregister_tm_clones+0x28>
    493f:	ff e0                	jmp    *%rax
    4941:	0f 1f 80 00 00 00 00 	nopl   0x0(%rax)
    4948:	c3                   	ret
    4949:	0f 1f 80 00 00 00 00 	nopl   0x0(%rax)

0000000000004950 <register_tm_clones>:
    4950:	48 8d 3d c9 76 00 00 	lea    0x76c9(%rip),%rdi        # c020 <stderr@GLIBC_2.2.5>
    4957:	48 8d 35 c2 76 00 00 	lea    0x76c2(%rip),%rsi        # c020 <stderr@GLIBC_2.2.5>
    495e:	48 29 fe             	sub    %rdi,%rsi
    4961:	48 89 f0             	mov    %rsi,%rax
    4964:	48 c1 ee 3f          	shr    $0x3f,%rsi
    4968:	48 c1 f8 03          	sar    $0x3,%rax
    496c:	48 01 c6             	add    %rax,%rsi
    496f:	48 d1 fe             	sar    %rsi
    4972:	74 14                	je     4988 <register_tm_clones+0x38>
    4974:	48 8b 05 75 76 00 00 	mov    0x7675(%rip),%rax        # bff0 <_ITM_registerTMCloneTable@Base>
    497b:	48 85 c0             	test   %rax,%rax
    497e:	74 08                	je     4988 <register_tm_clones+0x38>
    4980:	ff e0                	jmp    *%rax
    4982:	66 0f 1f 44 00 00    	nopw   0x0(%rax,%rax,1)
    4988:	c3                   	ret
    4989:	0f 1f 80 00 00 00 00 	nopl   0x0(%rax)

0000000000004990 <__do_global_dtors_aux>:
    4990:	f3 0f 1e fa          	endbr64
    4994:	80 3d 8d 76 00 00 00 	cmpb   $0x0,0x768d(%rip)        # c028 <completed.0>
    499b:	75 2b                	jne    49c8 <__do_global_dtors_aux+0x38>
    499d:	55                   	push   %rbp
    499e:	48 83 3d 52 76 00 00 00 	cmpq   $0x0,0x7652(%rip)        # bff8 <__cxa_finalize@GLIBC_2.2.5>
    49a6:	48 89 e5             	mov    %rsp,%rbp
    49a9:	74 0c                	je     49b7 <__do_global_dtors_aux+0x27>
    49ab:	48 8b 3d 56 76 00 00 	mov    0x7656(%rip),%rdi        # c008 <__dso_handle>
    49b2:	e8 49 d9 ff ff       	call   2300 <__cxa_finalize@plt>
    49b7:	e8 64 ff ff ff       	call   4920 <deregister_tm_clones>
    49bc:	c6 05 65 76 00 00 01 	movb   $0x1,0x7665(%rip)        # c028 <completed.0>
    49c3:	5d                   	pop    %rbp
    49c4:	c3                   	ret
    49c5:	0f 1f 00             	nopl   (%rax)
    49c8:	c3                   	ret
    49c9:	0f 1f 80 00 00 00 00 	nopl   0x0(%rax)

00000000000049d0 <frame_dummy>:
    49d0:	f3 0f 1e fa          	endbr64
    49d4:	e9 77 ff ff ff       	jmp    4950 <register_tm_clones>
    49d9:	0f 1f 80 00 00 00 00 	nopl   0x0(%rax)

00000000000049e0 <do_protected_write>:
int do_protected_write(struct BarrierTask *data) {
    49e0:	f3 0f 1e fa          	endbr64
  struct ProtectedState *protected = data->thread->protected_state;
    49e4:	48 8b 87 28 01 00 00 	mov    0x128(%rdi),%rax
    49eb:	48 8b 40 48          	mov    0x48(%rax),%rax
  data->v++; // thread local
    49ef:	48 83 87 10 01 00 00 01 	addq   $0x1,0x110(%rdi)
  if (protected->balance > 0) {
    49f7:	48 8b 48 08          	mov    0x8(%rax),%rcx
  protected->protected++; // shared between all threads
    49fb:	48 83 00 01          	addq   $0x1,(%rax)
    protected->balance -= 500; // shared between all threads
    49ff:	48 8d b1 0c fe ff ff 	lea    -0x1f4(%rcx),%rsi
    4a06:	48 85 c9             	test   %rcx,%rcx
    4a09:	48 8d 91 f4 01 00 00 	lea    0x1f4(%rcx),%rdx
    4a10:	48 0f 4f d6          	cmovg  %rsi,%rdx
    4a14:	48 89 50 08          	mov    %rdx,0x8(%rax)
}
    4a18:	31 c0                	xor    %eax,%eax
    4a1a:	c3                   	ret
    4a1b:	0f 1f 44 00 00       	nopl   0x0(%rax,%rax,1)

0000000000004a20 <barriered_reset>:
int barriered_reset(struct BarrierTask *data) {
    4a20:	f3 0f 1e fa          	endbr64
    for (int x = 0 ; x < data->task_count ; x++) {
    4a24:	48 63 8f 48 01 00 00 	movslq 0x148(%rdi),%rcx
  if (data->thread->global->request_group_sync != -1 && data->thread->global->request_group_sync == data->thread->group_count - 1 && data->thread->thread_index == 1) {
    4a2b:	4c 8b 87 28 01 00 00 	mov    0x128(%rdi),%r8
    for (int x = 0 ; x < data->task_count ; x++) {
    4a32:	85 c9                	test   %ecx,%ecx
    4a34:	7e 48                	jle    4a7e <barriered_reset+0x5e>
      data->thread->threads[data->thread_index]->tasks[x].arrived++; 
    4a36:	48 63 97 30 01 00 00 	movslq 0x130(%rdi),%rdx
    4a3d:	49 8b 40 18          	mov    0x18(%r8),%rax
    4a41:	48 c1 e1 09          	shl    $0x9,%rcx
      data->thread->tasks[x].available = 1; 
    4a45:	49 8b 70 38          	mov    0x38(%r8),%rsi
      data->thread->threads[data->thread_index]->tasks[x].arrived++; 
    4a49:	48 8b 04 d0          	mov    (%rax,%rdx,8),%rax
    4a4d:	48 8b 50 38          	mov    0x38(%rax),%rdx
      data->thread->tasks[x].available = 1; 
    4a51:	31 c0                	xor    %eax,%eax
    4a53:	0f 1f 44 00 00       	nopl   0x0(%rax,%rax,1)
      data->thread->threads[data->thread_index]->tasks[x].arrived++; 
    4a58:	83 84 02 80 00 00 00 01 	addl   $0x1,0x80(%rdx,%rax,1)
      data->thread->threads[data->thread_index]->tasks[x].prearrive++; 
    4a60:	83 84 02 00 01 00 00 01 	addl   $0x1,0x100(%rdx,%rax,1)
      data->thread->tasks[x].available = 1; 
    4a68:	c7 84 06 44 01 00 00 01 00 00 00 	movl   $0x1,0x144(%rsi,%rax,1)
    for (int x = 0 ; x < data->task_count ; x++) {
    4a73:	48 05 00 02 00 00    	add    $0x200,%rax
    4a79:	48 39 c1             	cmp    %rax,%rcx
    4a7c:	75 da                	jne    4a58 <barriered_reset+0x38>
  if (data->thread->global->request_group_sync != -1 && data->thread->global->request_group_sync == data->thread->group_count - 1 && data->thread->thread_index == 1) {
    4a7e:	49 8b 88 f8 00 00 00 	mov    0xf8(%r8),%rcx
    4a85:	8b 01                	mov    (%rcx),%eax
    4a87:	83 f8 ff             	cmp    $0xffffffff,%eax
    4a8a:	74 0e                	je     4a9a <barriered_reset+0x7a>
    4a8c:	41 8b b8 c8 00 00 00 	mov    0xc8(%r8),%edi
    4a93:	8d 57 ff             	lea    -0x1(%rdi),%edx
    4a96:	39 d0                	cmp    %edx,%eax
    4a98:	74 06                	je     4aa0 <barriered_reset+0x80>
}
    4a9a:	31 c0                	xor    %eax,%eax
    4a9c:	c3                   	ret
    4a9d:	0f 1f 00             	nopl   (%rax)
  if (data->thread->global->request_group_sync != -1 && data->thread->global->request_group_sync == data->thread->group_count - 1 && data->thread->thread_index == 1) {
    4aa0:	41 83 78 04 01       	cmpl   $0x1,0x4(%r8)
    4aa5:	75 f3                	jne    4a9a <barriered_reset+0x7a>
    data->thread->group_data->arrived++;
    4aa7:	49 8b 80 e0 00 00 00 	mov    0xe0(%r8),%rax
    4aae:	83 00 01             	addl   $0x1,(%rax)
    data->thread->global->request_group_sync = -1;
    4ab1:	c7 01 ff ff ff ff    	movl   $0xffffffff,(%rcx)
    4ab7:	eb e1                	jmp    4a9a <barriered_reset+0x7a>
    4ab9:	0f 1f 80 00 00 00 00 	nopl   0x0(%rax)

0000000000004ac0 <external_thread>:
void * external_thread(void *arg) {
    4ac0:	f3 0f 1e fa          	endbr64
  while (data->running == 1) {
    4ac4:	83 7f 44 01          	cmpl   $0x1,0x44(%rdi)
    4ac8:	0f 85 f8 00 00 00    	jne    4bc6 <external_thread+0x106>
void * external_thread(void *arg) {
    4ace:	41 57                	push   %r15
    4ad0:	4c 8d 3d 2d 45 00 00 	lea    0x452d(%rip),%r15        # 9004 <_IO_stdin_used+0x4>
    4ad7:	41 56                	push   %r14
    4ad9:	49 89 fe             	mov    %rdi,%r14
    4adc:	41 55                	push   %r13
    4ade:	41 54                	push   %r12
    4ae0:	55                   	push   %rbp
    4ae1:	53                   	push   %rbx
    4ae2:	48 83 ec 08          	sub    $0x8,%rsp
    4ae6:	66 2e 0f 1f 84 00 00 00 00 00 	cs nopw 0x0(%rax,%rax,1)
    for (int b = 0; b < data->buffers_count; b++) {
    4af0:	41 8b 8e c4 00 00 00 	mov    0xc4(%r14),%ecx
    4af7:	85 c9                	test   %ecx,%ecx
    4af9:	7e 57                	jle    4b52 <external_thread+0x92>
      for (int x = 0; x < data->buffers[b]->count; x++) {
    4afb:	49 8b 7e 50          	mov    0x50(%r14),%rdi
    4aff:	45 31 ed             	xor    %r13d,%r13d
    4b02:	66 0f 1f 44 00 00    	nopw   0x0(%rax,%rax,1)
    4b08:	4e 8d 24 ed 00 00 00 00 	lea    0x0(,%r13,8),%r12
    4b10:	31 db                	xor    %ebx,%ebx
    4b12:	4a 8d 34 27          	lea    (%rdi,%r12,1),%rsi
    4b16:	48 8b 06             	mov    (%rsi),%rax
    4b19:	8b 10                	mov    (%rax),%edx
    4b1b:	85 d2                	test   %edx,%edx
    4b1d:	7e 2a                	jle    4b49 <external_thread+0x89>
    4b1f:	48 8b 48 08          	mov    0x8(%rax),%rcx
				if (data->buffers[b]->buffer[x].available == 0) {
    4b23:	48 89 dd             	mov    %rbx,%rbp
    4b26:	48 c1 e5 08          	shl    $0x8,%rbp
    4b2a:	48 8d 04 29          	lea    (%rcx,%rbp,1),%rax
    4b2e:	44 8b 80 80 00 00 00 	mov    0x80(%rax),%r8d
    4b35:	45 85 c0             	test   %r8d,%r8d
    4b38:	74 36                	je     4b70 <external_thread+0xb0>
      for (int x = 0; x < data->buffers[b]->count; x++) {
    4b3a:	48 83 c3 01          	add    $0x1,%rbx
    4b3e:	39 da                	cmp    %ebx,%edx
    4b40:	7f e1                	jg     4b23 <external_thread+0x63>
    for (int b = 0; b < data->buffers_count; b++) {
    4b42:	41 8b 8e c4 00 00 00 	mov    0xc4(%r14),%ecx
    4b49:	49 83 c5 01          	add    $0x1,%r13
    4b4d:	44 39 e9             	cmp    %r13d,%ecx
    4b50:	7f b6                	jg     4b08 <external_thread+0x48>
  while (data->running == 1) {
    4b52:	41 83 7e 44 01       	cmpl   $0x1,0x44(%r14)
    4b57:	74 97                	je     4af0 <external_thread+0x30>
}
    4b59:	48 83 c4 08          	add    $0x8,%rsp
    4b5d:	31 c0                	xor    %eax,%eax
    4b5f:	5b                   	pop    %rbx
    4b60:	5d                   	pop    %rbp
    4b61:	41 5c                	pop    %r12
    4b63:	41 5d                	pop    %r13
    4b65:	41 5e                	pop    %r14
    4b67:	41 5f                	pop    %r15
    4b69:	c3                   	ret
    4b6a:	66 0f 1f 44 00 00    	nopw   0x0(%rax,%rax,1)
					data->buffers[b]->buffer[x].data = "Hello world";
    4b70:	4c 89 38             	mov    %r15,(%rax)
					clock_gettime(CLOCK_MONOTONIC_RAW, &data->buffers[b]->buffer[x].snapshots[data->buffers[b]->buffer[x].ingest_snapshot].start);
    4b73:	48 8b 06             	mov    (%rsi),%rax
      for (int x = 0; x < data->buffers[b]->count; x++) {
    4b76:	48 83 c3 01          	add    $0x1,%rbx
					clock_gettime(CLOCK_MONOTONIC_RAW, &data->buffers[b]->buffer[x].snapshots[data->buffers[b]->buffer[x].ingest_snapshot].start);
    4b7a:	48 8b 78 08          	mov    0x8(%rax),%rdi
    4b7e:	48 01 ef             	add    %rbp,%rdi
    4b81:	48 63 b7 94 00 00 00 	movslq 0x94(%rdi),%rsi
    4b88:	48 c1 e6 05          	shl    $0x5,%rsi
    4b8c:	48 03 b7 88 00 00 00 	add    0x88(%rdi),%rsi
    4b93:	bf 04 00 00 00       	mov    $0x4,%edi
    4b98:	e8 c3 d7 ff ff       	call   2360 <clock_gettime@plt>
					data->buffers[b]->buffer[x].available = 1;
    4b9d:	49 8b 7e 50          	mov    0x50(%r14),%rdi
    4ba1:	4a 8d 34 27          	lea    (%rdi,%r12,1),%rsi
    4ba5:	48 8b 06             	mov    (%rsi),%rax
    4ba8:	48 8b 50 08          	mov    0x8(%rax),%rdx
    4bac:	c7 84 2a 80 00 00 00 01 00 00 00 	movl   $0x1,0x80(%rdx,%rbp,1)
      for (int x = 0; x < data->buffers[b]->count; x++) {
    4bb7:	8b 10                	mov    (%rax),%edx
    4bb9:	39 da                	cmp    %ebx,%edx
    4bbb:	0f 8f 5e ff ff ff    	jg     4b1f <external_thread+0x5f>
    4bc1:	e9 7c ff ff ff       	jmp    4b42 <external_thread+0x82>
}
    4bc6:	31 c0                	xor    %eax,%eax
    4bc8:	c3                   	ret
    4bc9:	0f 1f 80 00 00 00 00 	nopl   0x0(%rax)

0000000000004bd0 <timer_thread>:
void* timer_thread(void *arg) {
    4bd0:	f3 0f 1e fa          	endbr64
    4bd4:	41 57                	push   %r15
    4bd6:	48 8d 35 33 44 00 00 	lea    0x4433(%rip),%rsi        # 9010 <_IO_stdin_used+0x10>
    4bdd:	49 89 ff             	mov    %rdi,%r15
    4be0:	41 56                	push   %r14
    4be2:	41 55                	push   %r13
    4be4:	41 54                	push   %r12
    4be6:	55                   	push   %rbp
    4be7:	53                   	push   %rbx
    4be8:	48 83 ec 58          	sub    $0x58,%rsp
    4bec:	8b 57 04             	mov    0x4(%rdi),%edx
    4bef:	bf 01 00 00 00       	mov    $0x1,%edi
    4bf4:	64 48 8b 04 25 28 00 00 00 	mov    %fs:0x28,%rax
    4bfd:	48 89 44 24 48       	mov    %rax,0x48(%rsp)
    4c02:	31 c0                	xor    %eax,%eax
    4c04:	e8 b7 d8 ff ff       	call   24c0 <__printf_chk@plt>
  struct timespec preempt = {
    4c09:	66 0f 6f 05 9f 52 00 00 	movdqa 0x529f(%rip),%xmm0        # 9eb0 <_IO_stdin_used+0xeb0>
    4c11:	ba a8 61 00 00       	mov    $0x61a8,%edx
    4c16:	31 c0                	xor    %eax,%eax
    4c18:	48 8d 35 03 44 00 00 	lea    0x4403(%rip),%rsi        # 9022 <_IO_stdin_used+0x22>
    4c1f:	bf 01 00 00 00       	mov    $0x1,%edi
    4c24:	0f 29 44 24 10       	movaps %xmm0,0x10(%rsp)
    4c29:	e8 92 d8 ff ff       	call   24c0 <__printf_chk@plt>
  while (data->running && n < times) {
    4c2e:	41 8b 47 44          	mov    0x44(%r15),%eax
    4c32:	89 c3                	mov    %eax,%ebx
    4c34:	85 c0                	test   %eax,%eax
    4c36:	0f 84 97 00 00 00    	je     4cd3 <timer_thread+0x103>
  int n = 0;
    4c3c:	45 31 f6             	xor    %r14d,%r14d
  int y = 0;
    4c3f:	31 db                	xor    %ebx,%ebx
    4c41:	49 89 e5             	mov    %rsp,%r13
    y++;
    4c44:	31 ed                	xor    %ebp,%ebp
    4c46:	4c 8d 64 24 10       	lea    0x10(%rsp),%r12
    nanosleep(&preempt , &rem2);
    4c4b:	4c 89 e7             	mov    %r12,%rdi
    4c4e:	4c 89 ee             	mov    %r13,%rsi
    n++;
    4c51:	41 83 c6 01          	add    $0x1,%r14d
    nanosleep(&preempt , &rem2);
    4c55:	e8 56 d7 ff ff       	call   23b0 <nanosleep@plt>
    for (int x = 0 ; x < data->my_thread_count ; x++) {
    4c5a:	49 63 47 30          	movslq 0x30(%r15),%rax
    y++;
    4c5e:	8d 7b 01             	lea    0x1(%rbx),%edi
    for (int x = 0 ; x < data->my_thread_count ; x++) {
    4c61:	85 c0                	test   %eax,%eax
    4c63:	7e 4a                	jle    4caf <timer_thread+0xdf>
    4c65:	49 8b 4f 18          	mov    0x18(%r15),%rcx
        data->threads[x]->tasks[y].scheduled = 0;
    4c69:	4c 63 c3             	movslq %ebx,%r8
    4c6c:	49 c1 e0 09          	shl    $0x9,%r8
    4c70:	4c 8d 0c c1          	lea    (%rcx,%rax,8),%r9
    4c74:	0f 1f 40 00          	nopl   0x0(%rax)
        int next = (y + 1) % data->threads[x]->task_count - 1; // ignore reset task
    4c78:	48 8b 19             	mov    (%rcx),%rbx
    4c7b:	89 f8                	mov    %edi,%eax
    for (int x = 0 ; x < data->my_thread_count ; x++) {
    4c7d:	48 83 c1 08          	add    $0x8,%rcx
        int next = (y + 1) % data->threads[x]->task_count - 1; // ignore reset task
    4c81:	99                   	cltd
    4c82:	f7 7b 40             	idivl  0x40(%rbx)
        data->threads[x]->tasks[next].scheduled = 1;
    4c85:	48 8b 73 38          	mov    0x38(%rbx),%rsi
        int next = (y + 1) % data->threads[x]->task_count - 1; // ignore reset task
    4c89:	83 ea 01             	sub    $0x1,%edx
        data->threads[x]->tasks[next].scheduled = 1;
    4c8c:	48 63 d2             	movslq %edx,%rdx
    4c8f:	48 c1 e2 09          	shl    $0x9,%rdx
    4c93:	c7 84 16 4c 01 00 00 01 00 00 00 	movl   $0x1,0x14c(%rsi,%rdx,1)
        data->threads[x]->tasks[y].scheduled = 0;
    4c9e:	42 c7 84 06 4c 01 00 00 00 00 00 00 	movl   $0x0,0x14c(%rsi,%r8,1)
    for (int x = 0 ; x < data->my_thread_count ; x++) {
    4caa:	49 39 c9             	cmp    %rcx,%r9
    4cad:	75 c9                	jne    4c78 <timer_thread+0xa8>
    if (y >= data->threads[0]->task_count) {
    4caf:	49 8b 47 18          	mov    0x18(%r15),%rax
  while (data->running && n < times) {
    4cb3:	41 8b 4f 44          	mov    0x44(%r15),%ecx
    y++;
    4cb7:	89 fb                	mov    %edi,%ebx
    if (y >= data->threads[0]->task_count) {
    4cb9:	48 8b 00             	mov    (%rax),%rax
    y++;
    4cbc:	39 78 40             	cmp    %edi,0x40(%rax)
    4cbf:	0f 4e dd             	cmovle %ebp,%ebx
  while (data->running && n < times) {
    4cc2:	85 c9                	test   %ecx,%ecx
    4cc4:	74 0d                	je     4cd3 <timer_thread+0x103>
    4cc6:	41 81 fe a8 61 00 00 	cmp    $0x61a8,%r14d
    4ccd:	0f 85 78 ff ff ff    	jne    4c4b <timer_thread+0x7b>
    4cd3:	48 8d 3d 5e 43 00 00 	lea    0x435e(%rip),%rdi        # 9038 <_IO_stdin_used+0x38>
    4cda:	e8 61 d6 ff ff       	call   2340 <puts@plt>
  for (int x = 0 ; x < data->my_thread_count ; x++) {
    4cdf:	49 63 57 30          	movslq 0x30(%r15),%rdx
    4ce3:	85 d2                	test   %edx,%edx
    4ce5:	7e 6e                	jle    4d55 <timer_thread+0x185>
    for (int y = 0 ; y < data->task_count ; y++) {
    4ce7:	49 63 47 40          	movslq 0x40(%r15),%rax
    4ceb:	85 c0                	test   %eax,%eax
    4ced:	7e 66                	jle    4d55 <timer_thread+0x185>
    4cef:	48 c1 e0 09          	shl    $0x9,%rax
      data->threads[x]->tasks[y].sending = 0;
    4cf3:	4d 8b 47 18          	mov    0x18(%r15),%r8
    4cf7:	48 8d 3c d5 00 00 00 00 	lea    0x0(,%rdx,8),%rdi
    4cff:	31 c9                	xor    %ecx,%ecx
    4d01:	48 89 c6             	mov    %rax,%rsi
    4d04:	49 8b 04 08          	mov    (%r8,%rcx,1),%rax
    4d08:	48 8b 40 38          	mov    0x38(%rax),%rax
    4d0c:	48 8d 14 06          	lea    (%rsi,%rax,1),%rdx
    4d10:	f7 c6 00 02 00 00    	test   $0x200,%esi
    4d16:	74 18                	je     4d30 <timer_thread+0x160>
    4d18:	c7 80 88 01 00 00 00 00 00 00 	movl   $0x0,0x188(%rax)
    for (int y = 0 ; y < data->task_count ; y++) {
    4d22:	48 05 00 02 00 00    	add    $0x200,%rax
    4d28:	48 39 c2             	cmp    %rax,%rdx
    4d2b:	74 1f                	je     4d4c <timer_thread+0x17c>
    4d2d:	0f 1f 00             	nopl   (%rax)
      data->threads[x]->tasks[y].sending = 0;
    4d30:	c7 80 88 01 00 00 00 00 00 00 	movl   $0x0,0x188(%rax)
    for (int y = 0 ; y < data->task_count ; y++) {
    4d3a:	48 05 00 04 00 00    	add    $0x400,%rax
      data->threads[x]->tasks[y].sending = 0;
    4d40:	c7 40 88 00 00 00 00 	movl   $0x0,-0x78(%rax)
    for (int y = 0 ; y < data->task_count ; y++) {
    4d47:	48 39 c2             	cmp    %rax,%rdx
    4d4a:	75 e4                	jne    4d30 <timer_thread+0x160>
  for (int x = 0 ; x < data->my_thread_count ; x++) {
    4d4c:	48 83 c1 08          	add    $0x8,%rcx
    4d50:	48 39 cf             	cmp    %rcx,%rdi
    4d53:	75 af                	jne    4d04 <timer_thread+0x134>
  struct timespec drain = {
    4d55:	66 0f 6f 05 63 51 00 00 	movdqa 0x5163(%rip),%xmm0        # 9ec0 <_IO_stdin_used+0xec0>
    4d5d:	41 89 dc             	mov    %ebx,%r12d
    4d60:	0f 29 44 24 30       	movaps %xmm0,0x30(%rsp)
    for (int x = 0 ; x < data->thread_count ; x++) {
    4d65:	49 63 47 28          	movslq 0x28(%r15),%rax
    y++;
    4d69:	41 8d 7c 24 01       	lea    0x1(%r12),%edi
    for (int x = 0 ; x < data->thread_count ; x++) {
    4d6e:	85 c0                	test   %eax,%eax
    4d70:	7e 49                	jle    4dbb <timer_thread+0x1eb>
    4d72:	49 8b 4f 18          	mov    0x18(%r15),%rcx
        data->threads[x]->tasks[y].scheduled = 0;
    4d76:	49 63 ec             	movslq %r12d,%rbp
    4d79:	48 c1 e5 09          	shl    $0x9,%rbp
    4d7d:	4c 8d 04 c1          	lea    (%rcx,%rax,8),%r8
    4d81:	0f 1f 80 00 00 00 00 	nopl   0x0(%rax)
        int next = (y + 1) % data->threads[x]->task_count;
    4d88:	48 8b 19             	mov    (%rcx),%rbx
    4d8b:	89 f8                	mov    %edi,%eax
    for (int x = 0 ; x < data->thread_count ; x++) {
    4d8d:	48 83 c1 08          	add    $0x8,%rcx
        int next = (y + 1) % data->threads[x]->task_count;
    4d91:	99                   	cltd
    4d92:	f7 7b 40             	idivl  0x40(%rbx)
        data->threads[x]->tasks[next].scheduled = 1;
    4d95:	48 8b 73 38          	mov    0x38(%rbx),%rsi
    4d99:	48 63 d2             	movslq %edx,%rdx
    4d9c:	48 c1 e2 09          	shl    $0x9,%rdx
    4da0:	c7 84 16 4c 01 00 00 01 00 00 00 	movl   $0x1,0x14c(%rsi,%rdx,1)
        data->threads[x]->tasks[y].scheduled = 0;
    4dab:	c7 84 2e 4c 01 00 00 00 00 00 00 	movl   $0x0,0x14c(%rsi,%rbp,1)
    for (int x = 0 ; x < data->thread_count ; x++) {
    4db6:	49 39 c8             	cmp    %rcx,%r8
    4db9:	75 cd                	jne    4d88 <timer_thread+0x1b8>
    if (y >= data->threads[0]->task_count) {
    4dbb:	49 8b 77 18          	mov    0x18(%r15),%rsi
    y++;
    4dbf:	45 31 e4             	xor    %r12d,%r12d
    if (y >= data->threads[0]->task_count) {
    4dc2:	48 8b 06             	mov    (%rsi),%rax
    y++;
    4dc5:	39 78 40             	cmp    %edi,0x40(%rax)
    4dc8:	44 0f 4f e7          	cmovg  %edi,%r12d
    for (int x = 0 ; x < data->my_thread_count ; x++) {
    4dcc:	41 8b 7f 30          	mov    0x30(%r15),%edi
    4dd0:	85 ff                	test   %edi,%edi
    4dd2:	0f 8e ac 01 00 00    	jle    4f84 <timer_thread+0x3b4>
    4dd8:	45 31 f6             	xor    %r14d,%r14d
    int all_empty = 1;
    4ddb:	41 ba 01 00 00 00    	mov    $0x1,%r10d
    4de1:	4c 89 f5             	mov    %r14,%rbp
    4de4:	0f 1f 40 00          	nopl   0x0(%rax)
    4de8:	89 eb                	mov    %ebp,%ebx
      for (int y = 0 ; y < 2 ; y++) {
    4dea:	4c 8d 2c ed 00 00 00 00 	lea    0x0(,%rbp,8),%r13
    4df2:	45 31 f6             	xor    %r14d,%r14d
        for (int k = 0 ; k < data->my_thread_count; k++) {
    4df5:	85 ff                	test   %edi,%edi
    4df7:	7e 7f                	jle    4e78 <timer_thread+0x2a8>
    4df9:	4c 89 f6             	mov    %r14,%rsi
    4dfc:	48 63 cf             	movslq %edi,%rcx
    4dff:	45 31 c0             	xor    %r8d,%r8d
    4e02:	48 c1 e6 09          	shl    $0x9,%rsi
    4e06:	66 2e 0f 1f 84 00 00 00 00 00 	cs nopw 0x0(%rax,%rax,1)
          if (x == k) { continue; }
    4e10:	41 39 e8             	cmp    %ebp,%r8d
    4e13:	74 45                	je     4e5a <timer_thread+0x28a>
          if (((struct Data*)data->threads[x]->tasks[y].mailboxes[k].lower)->messages_count > 0 || ((struct Data*)data->threads[x]->tasks[y].mailboxes[k].higher)->messages_count > 0) {
    4e15:	49 8b 47 18          	mov    0x18(%r15),%rax
    4e19:	4a 8b 04 28          	mov    (%rax,%r13,1),%rax
    4e1d:	48 8b 50 38          	mov    0x38(%rax),%rdx
    4e21:	4c 89 c0             	mov    %r8,%rax
    4e24:	48 c1 e0 08          	shl    $0x8,%rax
    4e28:	48 03 84 32 70 01 00 00 	add    0x170(%rdx,%rsi,1),%rax
    4e30:	48 8b 10             	mov    (%rax),%rdx
    4e33:	48 8b 80 80 00 00 00 	mov    0x80(%rax),%rax
    4e3a:	4c 8b 8a 80 00 00 00 	mov    0x80(%rdx),%r9
    4e41:	4c 8b 98 80 00 00 00 	mov    0x80(%rax),%r11
    4e48:	4d 85 c9             	test   %r9,%r9
    4e4b:	0f 8f 97 00 00 00    	jg     4ee8 <timer_thread+0x318>
    4e51:	4d 85 db             	test   %r11,%r11
    4e54:	0f 8f 8e 00 00 00    	jg     4ee8 <timer_thread+0x318>
        for (int k = 0 ; k < data->my_thread_count; k++) {
    4e5a:	49 83 c0 01          	add    $0x1,%r8
    4e5e:	4c 39 c1             	cmp    %r8,%rcx
    4e61:	75 ad                	jne    4e10 <timer_thread+0x240>
      for (int y = 0 ; y < 2 ; y++) {
    4e63:	49 83 fe 01          	cmp    $0x1,%r14
    4e67:	74 0f                	je     4e78 <timer_thread+0x2a8>
    4e69:	41 be 01 00 00 00    	mov    $0x1,%r14d
        for (int k = 0 ; k < data->my_thread_count; k++) {
    4e6f:	85 ff                	test   %edi,%edi
    4e71:	7f 86                	jg     4df9 <timer_thread+0x229>
    4e73:	0f 1f 44 00 00       	nopl   0x0(%rax,%rax,1)
    for (int x = 0 ; x < data->my_thread_count ; x++) {
    4e78:	48 83 c5 01          	add    $0x1,%rbp
    4e7c:	39 ef                	cmp    %ebp,%edi
    4e7e:	0f 8f 64 ff ff ff    	jg     4de8 <timer_thread+0x218>
    4e84:	44 89 d5             	mov    %r10d,%ebp
    for (int k = 0 ; k < data->my_thread_count; k++) {
    4e87:	85 ff                	test   %edi,%edi
    4e89:	7e 3b                	jle    4ec6 <timer_thread+0x2f6>
    4e8b:	31 db                	xor    %ebx,%ebx
    int all_waited = 1;
    4e8d:	bf 01 00 00 00       	mov    $0x1,%edi
    4e92:	49 8b 77 18          	mov    0x18(%r15),%rsi
    4e96:	41 8b 57 40          	mov    0x40(%r15),%edx
        if (data->threads[k]->tasks[tt].wait < data->task_count) {
    4e9a:	48 8b 04 de          	mov    (%rsi,%rbx,8),%rax
    4e9e:	48 8b 40 38          	mov    0x38(%rax),%rax
    4ea2:	8b 88 a4 01 00 00    	mov    0x1a4(%rax),%ecx
    4ea8:	39 d1                	cmp    %edx,%ecx
    4eaa:	0f 8c a8 00 00 00    	jl     4f58 <timer_thread+0x388>
    4eb0:	8b 80 a4 03 00 00    	mov    0x3a4(%rax),%eax
    4eb6:	39 d0                	cmp    %edx,%eax
    4eb8:	7c 6e                	jl     4f28 <timer_thread+0x358>
    for (int k = 0 ; k < data->my_thread_count; k++) {
    4eba:	48 83 c3 01          	add    $0x1,%rbx
    4ebe:	41 39 5f 30          	cmp    %ebx,0x30(%r15)
    4ec2:	7f d6                	jg     4e9a <timer_thread+0x2ca>
    4ec4:	21 fd                	and    %edi,%ebp
    if (all_empty == 1 && all_waited == 1) {
    4ec6:	85 ed                	test   %ebp,%ebp
    4ec8:	0f 85 b6 00 00 00    	jne    4f84 <timer_thread+0x3b4>
      nanosleep(&drain , &drainrem);
    4ece:	48 8d 74 24 20       	lea    0x20(%rsp),%rsi
    4ed3:	48 8d 7c 24 30       	lea    0x30(%rsp),%rdi
    4ed8:	e8 d3 d4 ff ff       	call   23b0 <nanosleep@plt>
    4edd:	e9 83 fe ff ff       	jmp    4d65 <timer_thread+0x195>
    4ee2:	66 0f 1f 44 00 00    	nopw   0x0(%rax,%rax,1)
    4ee8:	8b 80 18 04 00 00    	mov    0x418(%rax),%eax
    4eee:	48 83 ec 08          	sub    $0x8,%rsp
    4ef2:	bf 01 00 00 00       	mov    $0x1,%edi
    4ef7:	44 89 f1             	mov    %r14d,%ecx
    4efa:	48 8d 35 5c 41 00 00 	lea    0x415c(%rip),%rsi        # 905d <_IO_stdin_used+0x5d>
    4f01:	50                   	push   %rax
    4f02:	8b 82 18 04 00 00    	mov    0x418(%rdx),%eax
    4f08:	89 da                	mov    %ebx,%edx
    4f0a:	50                   	push   %rax
    4f0b:	31 c0                	xor    %eax,%eax
    4f0d:	41 53                	push   %r11
    4f0f:	e8 ac d5 ff ff       	call   24c0 <__printf_chk@plt>
    for (int x = 0 ; x < data->my_thread_count ; x++) {
    4f14:	41 8b 7f 30          	mov    0x30(%r15),%edi
    4f18:	48 83 c4 20          	add    $0x20,%rsp
            all_empty = 0;
    4f1c:	45 31 d2             	xor    %r10d,%r10d
    4f1f:	e9 3f ff ff ff       	jmp    4e63 <timer_thread+0x293>
    4f24:	0f 1f 40 00          	nopl   0x0(%rax)
    4f28:	89 c2                	mov    %eax,%edx
    4f2a:	bf 01 00 00 00       	mov    $0x1,%edi
    4f2f:	31 c0                	xor    %eax,%eax
    for (int k = 0 ; k < data->my_thread_count; k++) {
    4f31:	48 83 c3 01          	add    $0x1,%rbx
    4f35:	48 8d 35 b9 44 00 00 	lea    0x44b9(%rip),%rsi        # 93f5 <_IO_stdin_used+0x3f5>
    4f3c:	e8 7f d5 ff ff       	call   24c0 <__printf_chk@plt>
          all_waited = 0; 
    4f41:	31 ff                	xor    %edi,%edi
    for (int k = 0 ; k < data->my_thread_count; k++) {
    4f43:	41 39 5f 30          	cmp    %ebx,0x30(%r15)
    4f47:	0f 8f 45 ff ff ff    	jg     4e92 <timer_thread+0x2c2>
    4f4d:	e9 72 ff ff ff       	jmp    4ec4 <timer_thread+0x2f4>
    4f52:	66 0f 1f 44 00 00    	nopw   0x0(%rax,%rax,1)
    4f58:	89 ca                	mov    %ecx,%edx
    4f5a:	48 8d 35 94 44 00 00 	lea    0x4494(%rip),%rsi        # 93f5 <_IO_stdin_used+0x3f5>
    4f61:	bf 01 00 00 00       	mov    $0x1,%edi
    4f66:	31 c0                	xor    %eax,%eax
    4f68:	e8 53 d5 ff ff       	call   24c0 <__printf_chk@plt>
        if (data->threads[k]->tasks[tt].wait < data->task_count) {
    4f6d:	49 8b 77 18          	mov    0x18(%r15),%rsi
    4f71:	41 8b 57 40          	mov    0x40(%r15),%edx
          all_waited = 0; 
    4f75:	31 ff                	xor    %edi,%edi
        if (data->threads[k]->tasks[tt].wait < data->task_count) {
    4f77:	48 8b 04 de          	mov    (%rsi,%rbx,8),%rax
    4f7b:	48 8b 40 38          	mov    0x38(%rax),%rax
    4f7f:	e9 2c ff ff ff       	jmp    4eb0 <timer_thread+0x2e0>
    4f84:	48 8d 3d c9 40 00 00 	lea    0x40c9(%rip),%rdi        # 9054 <_IO_stdin_used+0x54>
    4f8b:	e8 b0 d3 ff ff       	call   2340 <puts@plt>
  while (data->running) {
    4f90:	41 8b 57 44          	mov    0x44(%r15),%edx
    4f94:	85 d2                	test   %edx,%edx
    4f96:	0f 84 e8 00 00 00    	je     5084 <timer_thread+0x4b4>
    for (int x = 0 ; x < data->total_thread_count ; x++) {
    4f9c:	41 8b 47 2c          	mov    0x2c(%r15),%eax
    4fa0:	31 db                	xor    %ebx,%ebx
    4fa2:	48 8d 2d d1 40 00 00 	lea    0x40d1(%rip),%rbp        # 907a <_IO_stdin_used+0x7a>
    4fa9:	4c 8d 25 e5 40 00 00 	lea    0x40e5(%rip),%r12        # 9095 <_IO_stdin_used+0x95>
    4fb0:	85 c0                	test   %eax,%eax
    4fb2:	7e 38                	jle    4fec <timer_thread+0x41c>
    4fb4:	0f 1f 40 00          	nopl   0x0(%rax)
    4fb8:	31 c0                	xor    %eax,%eax
    4fba:	89 da                	mov    %ebx,%edx
    4fbc:	48 89 ee             	mov    %rbp,%rsi
    4fbf:	bf 01 00 00 00       	mov    $0x1,%edi
    4fc4:	e8 f7 d4 ff ff       	call   24c0 <__printf_chk@plt>
      data->threads[x]->running = 0;
    4fc9:	49 8b 47 18          	mov    0x18(%r15),%rax
    4fcd:	48 8b 04 d8          	mov    (%rax,%rbx,8),%rax
      if (data->threads[x]->type == IO) {
    4fd1:	83 78 0c 02          	cmpl   $0x2,0xc(%rax)
      data->threads[x]->running = 0;
    4fd5:	c7 40 44 00 00 00 00 	movl   $0x0,0x44(%rax)
      if (data->threads[x]->type == IO) {
    4fdc:	0f 84 cf 00 00 00    	je     50b1 <timer_thread+0x4e1>
    for (int x = 0 ; x < data->total_thread_count ; x++) {
    4fe2:	48 83 c3 01          	add    $0x1,%rbx
    4fe6:	41 39 5f 2c          	cmp    %ebx,0x2c(%r15)
    4fea:	7f cc                	jg     4fb8 <timer_thread+0x3e8>
    for (int x = 0 ; x < data->my_thread_count ; x++) {
    4fec:	49 63 57 30          	movslq 0x30(%r15),%rdx
    4ff0:	85 d2                	test   %edx,%edx
    4ff2:	7e 7c                	jle    5070 <timer_thread+0x4a0>
      for (int y = 0 ; y < data->task_count ; y++) {
    4ff4:	41 8b 47 40          	mov    0x40(%r15),%eax
    4ff8:	85 c0                	test   %eax,%eax
    4ffa:	7e 74                	jle    5070 <timer_thread+0x4a0>
    4ffc:	48 63 f0             	movslq %eax,%rsi
        data->threads[x]->tasks[y].scheduled = 0;
    4fff:	4d 8b 47 18          	mov    0x18(%r15),%r8
    5003:	48 8d 3c d5 00 00 00 00 	lea    0x0(,%rdx,8),%rdi
    500b:	31 c9                	xor    %ecx,%ecx
    500d:	48 c1 e6 09          	shl    $0x9,%rsi
    5011:	0f 1f 80 00 00 00 00 	nopl   0x0(%rax)
    5018:	49 8b 04 08          	mov    (%r8,%rcx,1),%rax
    501c:	48 8b 40 38          	mov    0x38(%rax),%rax
    5020:	48 8d 14 30          	lea    (%rax,%rsi,1),%rdx
    5024:	f7 c6 00 02 00 00    	test   $0x200,%esi
    502a:	74 1c                	je     5048 <timer_thread+0x478>
    502c:	c7 80 4c 01 00 00 00 00 00 00 	movl   $0x0,0x14c(%rax)
      for (int y = 0 ; y < data->task_count ; y++) {
    5036:	48 05 00 02 00 00    	add    $0x200,%rax
    503c:	48 39 d0             	cmp    %rdx,%rax
    503f:	74 26                	je     5067 <timer_thread+0x497>
    5041:	0f 1f 80 00 00 00 00 	nopl   0x0(%rax)
        data->threads[x]->tasks[y].scheduled = 0;
    5048:	c7 80 4c 01 00 00 00 00 00 00 	movl   $0x0,0x14c(%rax)
      for (int y = 0 ; y < data->task_count ; y++) {
    5052:	48 05 00 04 00 00    	add    $0x400,%rax
        data->threads[x]->tasks[y].scheduled = 0;
    5058:	c7 80 4c ff ff ff 00 00 00 00 	movl   $0x0,-0xb4(%rax)
      for (int y = 0 ; y < data->task_count ; y++) {
    5062:	48 39 d0             	cmp    %rdx,%rax
    5065:	75 e1                	jne    5048 <timer_thread+0x478>
    for (int x = 0 ; x < data->my_thread_count ; x++) {
    5067:	48 83 c1 08          	add    $0x8,%rcx
    506b:	48 39 cf             	cmp    %rcx,%rdi
    506e:	75 a8                	jne    5018 <timer_thread+0x448>
    5070:	48 8d 3d 30 40 00 00 	lea    0x4030(%rip),%rdi        # 90a7 <_IO_stdin_used+0xa7>
    5077:	e8 c4 d2 ff ff       	call   2340 <puts@plt>
    data->running = 0;
    507c:	41 c7 47 44 00 00 00 00 	movl   $0x0,0x44(%r15)
    5084:	48 8d 3d 23 40 00 00 	lea    0x4023(%rip),%rdi        # 90ae <_IO_stdin_used+0xae>
    508b:	e8 b0 d2 ff ff       	call   2340 <puts@plt>
}
    5090:	48 8b 44 24 48       	mov    0x48(%rsp),%rax
    5095:	64 48 2b 04 25 28 00 00 00 	sub    %fs:0x28,%rax
    509e:	75 41                	jne    50e1 <timer_thread+0x511>
    50a0:	48 83 c4 58          	add    $0x58,%rsp
    50a4:	31 c0                	xor    %eax,%eax
    50a6:	5b                   	pop    %rbx
    50a7:	5d                   	pop    %rbp
    50a8:	41 5c                	pop    %r12
    50aa:	41 5d                	pop    %r13
    50ac:	41 5e                	pop    %r14
    50ae:	41 5f                	pop    %r15
    50b0:	c3                   	ret
    50b1:	4c 89 e7             	mov    %r12,%rdi
    50b4:	e8 87 d2 ff ff       	call   2340 <puts@plt>
        eventfd_write(data->threads[x]->_eventfd, 1);
    50b9:	49 8b 47 18          	mov    0x18(%r15),%rax
    50bd:	be 01 00 00 00       	mov    $0x1,%esi
    50c2:	48 8b 04 d8          	mov    (%rax,%rbx,8),%rax
    for (int x = 0 ; x < data->total_thread_count ; x++) {
    50c6:	48 83 c3 01          	add    $0x1,%rbx
        eventfd_write(data->threads[x]->_eventfd, 1);
    50ca:	8b 78 68             	mov    0x68(%rax),%edi
    50cd:	e8 9e d3 ff ff       	call   2470 <eventfd_write@plt>
    for (int x = 0 ; x < data->total_thread_count ; x++) {
    50d2:	41 39 5f 2c          	cmp    %ebx,0x2c(%r15)
    50d6:	0f 8f dc fe ff ff    	jg     4fb8 <timer_thread+0x3e8>
    50dc:	e9 0b ff ff ff       	jmp    4fec <timer_thread+0x41c>
}
    50e1:	e8 aa d2 ff ff       	call   2390 <__stack_chk_fail@plt>
    50e6:	66 2e 0f 1f 84 00 00 00 00 00 	cs nopw 0x0(%rax,%rax,1)

00000000000050f0 <minf>:
int minf(int a, int b) {
    50f0:	f3 0f 1e fa          	endbr64
  if (b < a) { return b; }
    50f4:	39 f7                	cmp    %esi,%edi
    50f6:	89 f0                	mov    %esi,%eax
    50f8:	0f 4e c7             	cmovle %edi,%eax
}
    50fb:	c3                   	ret
    50fc:	0f 1f 40 00          	nopl   0x0(%rax)

0000000000005100 <maxf>:
int maxf(int a, int b) {
    5100:	f3 0f 1e fa          	endbr64
  if (b > a) { return b; }
    5104:	39 f7                	cmp    %esi,%edi
    5106:	89 f0                	mov    %esi,%eax
    5108:	0f 4d c7             	cmovge %edi,%eax
}
    510b:	c3                   	ret
    510c:	0f 1f 40 00          	nopl   0x0(%rax)

0000000000005110 <strtolower>:
void strtolower(char *str) {
    5110:	f3 0f 1e fa          	endbr64
    5114:	55                   	push   %rbp
    5115:	53                   	push   %rbx
    5116:	48 83 ec 08          	sub    $0x8,%rsp
    for (; *str; ++str)
    511a:	48 0f be 1f          	movsbq (%rdi),%rbx
    511e:	84 db                	test   %bl,%bl
    5120:	74 24                	je     5146 <strtolower+0x36>
    5122:	48 89 fd             	mov    %rdi,%rbp
        *str = (char)tolower(*str);
    5125:	e8 86 d4 ff ff       	call   25b0 <__ctype_tolower_loc@plt>
    512a:	66 0f 1f 44 00 00    	nopw   0x0(%rax,%rax,1)
    5130:	48 8b 10             	mov    (%rax),%rdx
    for (; *str; ++str)
    5133:	48 83 c5 01          	add    $0x1,%rbp
        *str = (char)tolower(*str);
    5137:	8b 14 9a             	mov    (%rdx,%rbx,4),%edx
    513a:	88 55 ff             	mov    %dl,-0x1(%rbp)
    for (; *str; ++str)
    513d:	48 0f be 5d 00       	movsbq 0x0(%rbp),%rbx
    5142:	84 db                	test   %bl,%bl
    5144:	75 ea                	jne    5130 <strtolower+0x20>
}
    5146:	48 83 c4 08          	add    $0x8,%rsp
    514a:	5b                   	pop    %rbx
    514b:	5d                   	pop    %rbp
    514c:	c3                   	ret
    514d:	0f 1f 00             	nopl   (%rax)

0000000000005150 <zh_malloc>:
void *zh_malloc(size_t size) {
    5150:	f3 0f 1e fa          	endbr64
    5154:	48 83 ec 08          	sub    $0x8,%rsp
    void *buf = malloc(size);
    5158:	e8 23 d3 ff ff       	call   2480 <malloc@plt>
    if (!buf) {
    515d:	48 85 c0             	test   %rax,%rax
    5160:	74 05                	je     5167 <zh_malloc+0x17>
}
    5162:	48 83 c4 08          	add    $0x8,%rsp
    5166:	c3                   	ret
  return __fprintf_chk (__stream, __USE_FORTIFY_LEVEL - 1, __fmt,
    5167:	48 8b 0d b2 6e 00 00 	mov    0x6eb2(%rip),%rcx        # c020 <stderr@GLIBC_2.2.5>
    516e:	ba 28 00 00 00       	mov    $0x28,%edx
    5173:	be 01 00 00 00       	mov    $0x1,%esi
    5178:	48 8d 3d 59 45 00 00 	lea    0x4559(%rip),%rdi        # 96d8 <_IO_stdin_used+0x6d8>
    517f:	e8 bc d3 ff ff       	call   2540 <fwrite@plt>
        exit(1);
    5184:	bf 01 00 00 00       	mov    $0x1,%edi
    5189:	e8 92 d3 ff ff       	call   2520 <exit@plt>
    518e:	66 90                	xchg   %ax,%ax

0000000000005190 <get_filename_ext>:
const char *get_filename_ext(const char *filename) {
    5190:	f3 0f 1e fa          	endbr64
    5194:	53                   	push   %rbx
    const char *dot = strrchr(filename, '.');
    5195:	be 2e 00 00 00       	mov    $0x2e,%esi
const char *get_filename_ext(const char *filename) {
    519a:	48 89 fb             	mov    %rdi,%rbx
    const char *dot = strrchr(filename, '.');
    519d:	e8 1e d2 ff ff       	call   23c0 <strrchr@plt>
    if (!dot || dot == filename)
    51a2:	48 85 c0             	test   %rax,%rax
    51a5:	74 11                	je     51b8 <get_filename_ext+0x28>
    51a7:	48 39 c3             	cmp    %rax,%rbx
    51aa:	74 0c                	je     51b8 <get_filename_ext+0x28>
    return dot + 1;
    51ac:	48 83 c0 01          	add    $0x1,%rax
}
    51b0:	5b                   	pop    %rbx
    51b1:	c3                   	ret
    51b2:	66 0f 1f 44 00 00    	nopw   0x0(%rax,%rax,1)
        return "";
    51b8:	48 8d 05 37 3f 00 00 	lea    0x3f37(%rip),%rax        # 90f6 <_IO_stdin_used+0xf6>
}
    51bf:	5b                   	pop    %rbx
    51c0:	c3                   	ret
    51c1:	66 66 2e 0f 1f 84 00 00 00 00 00 	data16 cs nopw 0x0(%rax,%rax,1)
    51cc:	0f 1f 40 00          	nopl   0x0(%rax)

00000000000051d0 <send_headers>:
void send_headers(struct KernelThread *data, struct Buffers *buffers, const char *path, off_t len, struct iovec *iov) {
    51d0:	f3 0f 1e fa          	endbr64
    51d4:	41 55                	push   %r13
    51d6:	48 89 d6             	mov    %rdx,%rsi
#endif

__fortify_function char *
__NTH (strcpy (char *__restrict __dest, const char *__restrict __src))
{
  return __builtin___strcpy_chk (__dest, __src, __glibc_objsize (__dest));
    51d9:	ba 00 04 00 00       	mov    $0x400,%edx
    51de:	49 89 cd             	mov    %rcx,%r13
    51e1:	41 54                	push   %r12
    51e3:	55                   	push   %rbp
    51e4:	4c 89 c5             	mov    %r8,%rbp
    51e7:	53                   	push   %rbx
    51e8:	48 81 ec 18 08 00 00 	sub    $0x818,%rsp
    51ef:	64 48 8b 04 25 28 00 00 00 	mov    %fs:0x28,%rax
    51f8:	48 89 84 24 08 08 00 00 	mov    %rax,0x808(%rsp)
    5200:	31 c0                	xor    %eax,%eax
    5202:	49 89 e4             	mov    %rsp,%r12
    5205:	4c 89 e7             	mov    %r12,%rdi
    5208:	e8 93 d2 ff ff       	call   24a0 <__strcpy_chk@plt>
    for (; *str; ++str)
    520d:	48 0f be 1c 24       	movsbq (%rsp),%rbx
    5212:	84 db                	test   %bl,%bl
    5214:	74 24                	je     523a <send_headers+0x6a>
        *str = (char)tolower(*str);
    5216:	e8 95 d3 ff ff       	call   25b0 <__ctype_tolower_loc@plt>
    521b:	48 8b 08             	mov    (%rax),%rcx
    521e:	4c 89 e0             	mov    %r12,%rax
    5221:	0f 1f 80 00 00 00 00 	nopl   0x0(%rax)
    5228:	8b 14 99             	mov    (%rcx,%rbx,4),%edx
    for (; *str; ++str)
    522b:	48 83 c0 01          	add    $0x1,%rax
        *str = (char)tolower(*str);
    522f:	88 50 ff             	mov    %dl,-0x1(%rax)
    for (; *str; ++str)
    5232:	48 0f be 18          	movsbq (%rax),%rbx
    5236:	84 db                	test   %bl,%bl
    5238:	75 ee                	jne    5228 <send_headers+0x58>
    void *buf = malloc(size);
    523a:	bf 11 00 00 00       	mov    $0x11,%edi
    523f:	e8 3c d2 ff ff       	call   2480 <malloc@plt>
    if (!buf) {
    5244:	48 85 c0             	test   %rax,%rax
    5247:	0f 84 7e 04 00 00    	je     56cb <send_headers+0x4fb>
  return __builtin___memcpy_chk (__dest, __src, __len,
    524d:	66 0f 6f 05 7b 4c 00 00 	movdqa 0x4c7b(%rip),%xmm0        # 9ed0 <_IO_stdin_used+0xed0>
    iov[0].iov_base = zh_malloc(slen);
    5255:	48 89 45 00          	mov    %rax,0x0(%rbp)
    void *buf = malloc(size);
    5259:	bf 17 00 00 00       	mov    $0x17,%edi
    iov[0].iov_len = slen;
    525e:	48 c7 45 08 11 00 00 00 	movq   $0x11,0x8(%rbp)
    5266:	c6 40 10 0a          	movb   $0xa,0x10(%rax)
    526a:	0f 11 00             	movups %xmm0,(%rax)
    void *buf = malloc(size);
    526d:	e8 0e d2 ff ff       	call   2480 <malloc@plt>
    if (!buf) {
    5272:	48 85 c0             	test   %rax,%rax
    5275:	0f 84 50 04 00 00    	je     56cb <send_headers+0x4fb>
    527b:	66 0f 6f 05 5d 4c 00 00 	movdqa 0x4c5d(%rip),%xmm0        # 9ee0 <_IO_stdin_used+0xee0>
    iov[1].iov_base = zh_malloc(slen);
    5283:	48 89 45 10          	mov    %rax,0x10(%rbp)
    const char *dot = strrchr(filename, '.');
    5287:	4c 89 e7             	mov    %r12,%rdi
    528a:	48 be 70 64 2f 30 2e 31 0d 0a 	movabs $0xa0d312e302f6470,%rsi
    iov[1].iov_len = slen;
    5294:	48 c7 45 18 17 00 00 00 	movq   $0x17,0x18(%rbp)
    529c:	0f 11 00             	movups %xmm0,(%rax)
    529f:	48 89 70 0f          	mov    %rsi,0xf(%rax)
    const char *dot = strrchr(filename, '.');
    52a3:	be 2e 00 00 00       	mov    $0x2e,%esi
    52a8:	e8 13 d1 ff ff       	call   23c0 <strrchr@plt>
    if (!dot || dot == filename)
    52ad:	48 85 c0             	test   %rax,%rax
    52b0:	0f 84 ea 02 00 00    	je     55a0 <send_headers+0x3d0>
    52b6:	4c 39 e0             	cmp    %r12,%rax
    52b9:	0f 84 e1 02 00 00    	je     55a0 <send_headers+0x3d0>
    return dot + 1;
    52bf:	48 8d 58 01          	lea    0x1(%rax),%rbx
    if (strcmp("jpg", file_ext) == 0)
    52c3:	48 8d 3d fa 3d 00 00 	lea    0x3dfa(%rip),%rdi        # 90c4 <_IO_stdin_used+0xc4>
    52ca:	48 89 de             	mov    %rbx,%rsi
    52cd:	e8 4e d1 ff ff       	call   2420 <strcmp@plt>
    52d2:	85 c0                	test   %eax,%eax
    52d4:	75 20                	jne    52f6 <send_headers+0x126>
  return __builtin___strcpy_chk (__dest, __src, __glibc_objsize (__dest));
    52d6:	66 0f 6f 05 12 4c 00 00 	movdqa 0x4c12(%rip),%xmm0        # 9ef0 <_IO_stdin_used+0xef0>
    52de:	0f 29 84 24 00 04 00 00 	movaps %xmm0,0x400(%rsp)
    52e6:	66 0f 6f 05 12 4c 00 00 	movdqa 0x4c12(%rip),%xmm0        # 9f00 <_IO_stdin_used+0xf00>
    52ee:	0f 11 84 24 0b 04 00 00 	movups %xmm0,0x40b(%rsp)
    if (strcmp("jpeg", file_ext) == 0)
    52f6:	48 89 de             	mov    %rbx,%rsi
    52f9:	48 8d 3d c8 3d 00 00 	lea    0x3dc8(%rip),%rdi        # 90c8 <_IO_stdin_used+0xc8>
    5300:	e8 1b d1 ff ff       	call   2420 <strcmp@plt>
    5305:	85 c0                	test   %eax,%eax
    5307:	75 20                	jne    5329 <send_headers+0x159>
    5309:	66 0f 6f 05 df 4b 00 00 	movdqa 0x4bdf(%rip),%xmm0        # 9ef0 <_IO_stdin_used+0xef0>
    5311:	0f 29 84 24 00 04 00 00 	movaps %xmm0,0x400(%rsp)
    5319:	66 0f 6f 05 df 4b 00 00 	movdqa 0x4bdf(%rip),%xmm0        # 9f00 <_IO_stdin_used+0xf00>
    5321:	0f 11 84 24 0b 04 00 00 	movups %xmm0,0x40b(%rsp)
    if (strcmp("png", file_ext) == 0)
    5329:	48 89 de             	mov    %rbx,%rsi
    532c:	48 8d 3d 9a 3d 00 00 	lea    0x3d9a(%rip),%rdi        # 90cd <_IO_stdin_used+0xcd>
    5333:	e8 e8 d0 ff ff       	call   2420 <strcmp@plt>
    5338:	85 c0                	test   %eax,%eax
    533a:	0f 84 10 02 00 00    	je     5550 <send_headers+0x380>
    if (strcmp("gif", file_ext) == 0)
    5340:	48 89 de             	mov    %rbx,%rsi
    5343:	48 8d 3d 87 3d 00 00 	lea    0x3d87(%rip),%rdi        # 90d1 <_IO_stdin_used+0xd1>
    534a:	e8 d1 d0 ff ff       	call   2420 <strcmp@plt>
    534f:	85 c0                	test   %eax,%eax
    5351:	0f 84 a9 02 00 00    	je     5600 <send_headers+0x430>
    if (strcmp("htm", file_ext) == 0)
    5357:	48 89 de             	mov    %rbx,%rsi
    535a:	48 8d 3d 74 3d 00 00 	lea    0x3d74(%rip),%rdi        # 90d5 <_IO_stdin_used+0xd5>
    5361:	e8 ba d0 ff ff       	call   2420 <strcmp@plt>
    5366:	85 c0                	test   %eax,%eax
    5368:	0f 84 6a 02 00 00    	je     55d8 <send_headers+0x408>
    if (strcmp("html", file_ext) == 0)
    536e:	48 89 de             	mov    %rbx,%rsi
    5371:	48 8d 3d ac 3d 00 00 	lea    0x3dac(%rip),%rdi        # 9124 <_IO_stdin_used+0x124>
    5378:	e8 a3 d0 ff ff       	call   2420 <strcmp@plt>
    537d:	85 c0                	test   %eax,%eax
    537f:	0f 84 2b 02 00 00    	je     55b0 <send_headers+0x3e0>
    if (strcmp("js", file_ext) == 0)
    5385:	80 3b 6a             	cmpb   $0x6a,(%rbx)
    5388:	0f 84 52 01 00 00    	je     54e0 <send_headers+0x310>
    if (strcmp("css", file_ext) == 0)
    538e:	48 89 de             	mov    %rbx,%rsi
    5391:	48 8d 3d 41 3d 00 00 	lea    0x3d41(%rip),%rdi        # 90d9 <_IO_stdin_used+0xd9>
    5398:	e8 83 d0 ff ff       	call   2420 <strcmp@plt>
    539d:	85 c0                	test   %eax,%eax
    539f:	0f 84 ab 02 00 00    	je     5650 <send_headers+0x480>
    if (strcmp("txt", file_ext) == 0)
    53a5:	48 89 de             	mov    %rbx,%rsi
    53a8:	48 8d 3d 2e 3d 00 00 	lea    0x3d2e(%rip),%rdi        # 90dd <_IO_stdin_used+0xdd>
    53af:	e8 6c d0 ff ff       	call   2420 <strcmp@plt>
    53b4:	85 c0                	test   %eax,%eax
    53b6:	0f 84 6c 02 00 00    	je     5628 <send_headers+0x458>
    slen = strlen(send_buffer);
    53bc:	4c 8d a4 24 00 04 00 00 	lea    0x400(%rsp),%r12
    53c4:	4c 89 e7             	mov    %r12,%rdi
    53c7:	e8 b4 cf ff ff       	call   2380 <strlen@plt>
    void *buf = malloc(size);
    53cc:	48 89 c7             	mov    %rax,%rdi
    slen = strlen(send_buffer);
    53cf:	48 89 c3             	mov    %rax,%rbx
    void *buf = malloc(size);
    53d2:	e8 a9 d0 ff ff       	call   2480 <malloc@plt>
    if (!buf) {
    53d7:	48 85 c0             	test   %rax,%rax
    53da:	0f 84 eb 02 00 00    	je     56cb <send_headers+0x4fb>
    iov[2].iov_base = zh_malloc(slen);
    53e0:	48 89 45 20          	mov    %rax,0x20(%rbp)
    iov[2].iov_len = slen;
    53e4:	48 89 5d 28          	mov    %rbx,0x28(%rbp)
  return __builtin___memcpy_chk (__dest, __src, __len,
    53e8:	83 fb 08             	cmp    $0x8,%ebx
    53eb:	0f 83 3f 01 00 00    	jae    5530 <send_headers+0x360>
    53f1:	f6 c3 04             	test   $0x4,%bl
    53f4:	0f 85 7b 02 00 00    	jne    5675 <send_headers+0x4a5>
    53fa:	85 db                	test   %ebx,%ebx
    53fc:	74 13                	je     5411 <send_headers+0x241>
    53fe:	0f b6 94 24 00 04 00 00 	movzbl 0x400(%rsp),%edx
    5406:	88 10                	mov    %dl,(%rax)
    5408:	f6 c3 02             	test   $0x2,%bl
    540b:	0f 85 96 02 00 00    	jne    56a7 <send_headers+0x4d7>
  return __builtin___sprintf_chk (__s, __USE_FORTIFY_LEVEL - 1,
    5411:	4d 89 e8             	mov    %r13,%r8
    5414:	48 8d 0d c6 3c 00 00 	lea    0x3cc6(%rip),%rcx        # 90e1 <_IO_stdin_used+0xe1>
    541b:	4c 89 e7             	mov    %r12,%rdi
    541e:	31 c0                	xor    %eax,%eax
    5420:	ba 00 04 00 00       	mov    $0x400,%edx
    5425:	be 01 00 00 00       	mov    $0x1,%esi
    542a:	e8 91 d1 ff ff       	call   25c0 <__sprintf_chk@plt>
    slen = strlen(send_buffer);
    542f:	4c 89 e7             	mov    %r12,%rdi
    5432:	e8 49 cf ff ff       	call   2380 <strlen@plt>
    void *buf = malloc(size);
    5437:	48 89 c7             	mov    %rax,%rdi
    slen = strlen(send_buffer);
    543a:	48 89 c3             	mov    %rax,%rbx
    void *buf = malloc(size);
    543d:	e8 3e d0 ff ff       	call   2480 <malloc@plt>
    if (!buf) {
    5442:	48 85 c0             	test   %rax,%rax
    5445:	0f 84 80 02 00 00    	je     56cb <send_headers+0x4fb>
    iov[3].iov_base = zh_malloc(slen);
    544b:	48 89 45 30          	mov    %rax,0x30(%rbp)
    iov[3].iov_len = slen;
    544f:	48 89 5d 38          	mov    %rbx,0x38(%rbp)
    5453:	83 fb 08             	cmp    $0x8,%ebx
    5456:	0f 83 1c 01 00 00    	jae    5578 <send_headers+0x3a8>
    545c:	f6 c3 04             	test   $0x4,%bl
    545f:	0f 85 29 02 00 00    	jne    568e <send_headers+0x4be>
    5465:	85 db                	test   %ebx,%ebx
    5467:	74 13                	je     547c <send_headers+0x2ac>
    5469:	0f b6 94 24 00 04 00 00 	movzbl 0x400(%rsp),%edx
    5471:	88 10                	mov    %dl,(%rax)
    5473:	f6 c3 02             	test   $0x2,%bl
    5476:	0f 85 3d 02 00 00    	jne    56b9 <send_headers+0x4e9>
  return __builtin___strcpy_chk (__dest, __src, __glibc_objsize (__dest));
    547c:	b8 0d 0a 00 00       	mov    $0xa0d,%eax
    void *buf = malloc(size);
    5481:	bf 02 00 00 00       	mov    $0x2,%edi
    5486:	c6 84 24 02 04 00 00 00 	movb   $0x0,0x402(%rsp)
    548e:	66 89 84 24 00 04 00 00 	mov    %ax,0x400(%rsp)
    5496:	e8 e5 cf ff ff       	call   2480 <malloc@plt>
    if (!buf) {
    549b:	48 85 c0             	test   %rax,%rax
    549e:	0f 84 27 02 00 00    	je     56cb <send_headers+0x4fb>
  return __builtin___memcpy_chk (__dest, __src, __len,
    54a4:	0f b7 94 24 00 04 00 00 	movzwl 0x400(%rsp),%edx
    iov[4].iov_base = zh_malloc(slen);
    54ac:	48 89 45 40          	mov    %rax,0x40(%rbp)
    iov[4].iov_len = slen;
    54b0:	48 c7 45 48 02 00 00 00 	movq   $0x2,0x48(%rbp)
    54b8:	66 89 10             	mov    %dx,(%rax)
}
    54bb:	48 8b 84 24 08 08 00 00 	mov    0x808(%rsp),%rax
    54c3:	64 48 2b 04 25 28 00 00 00 	sub    %fs:0x28,%rax
    54cc:	0f 85 20 02 00 00    	jne    56f2 <send_headers+0x522>
    54d2:	48 81 c4 18 08 00 00 	add    $0x818,%rsp
    54d9:	5b                   	pop    %rbx
    54da:	5d                   	pop    %rbp
    54db:	41 5c                	pop    %r12
    54dd:	41 5d                	pop    %r13
    54df:	c3                   	ret
    if (strcmp("js", file_ext) == 0)
    54e0:	80 7b 01 73          	cmpb   $0x73,0x1(%rbx)
    54e4:	0f 85 a4 fe ff ff    	jne    538e <send_headers+0x1be>
    54ea:	80 7b 02 00          	cmpb   $0x0,0x2(%rbx)
    54ee:	0f 85 9a fe ff ff    	jne    538e <send_headers+0x1be>
  return __builtin___strcpy_chk (__dest, __src, __glibc_objsize (__dest));
    54f4:	66 0f 6f 05 54 4a 00 00 	movdqa 0x4a54(%rip),%xmm0        # 9f50 <_IO_stdin_used+0xf50>
    54fc:	48 b8 63 72 69 70 74 0d 0a 00 	movabs $0xa0d7470697263,%rax
    5506:	0f 29 84 24 00 04 00 00 	movaps %xmm0,0x400(%rsp)
    550e:	66 0f 6f 05 4a 4a 00 00 	movdqa 0x4a4a(%rip),%xmm0        # 9f60 <_IO_stdin_used+0xf60>
    5516:	0f 29 84 24 10 04 00 00 	movaps %xmm0,0x410(%rsp)
    551e:	48 89 84 24 1f 04 00 00 	mov    %rax,0x41f(%rsp)
    5526:	e9 63 fe ff ff       	jmp    538e <send_headers+0x1be>
    552b:	0f 1f 44 00 00       	nopl   0x0(%rax,%rax,1)
  return __builtin___memcpy_chk (__dest, __src, __len,
    5530:	89 da                	mov    %ebx,%edx
    5532:	48 89 c7             	mov    %rax,%rdi
    5535:	4c 89 e6             	mov    %r12,%rsi
    5538:	49 8b 4c 14 f8       	mov    -0x8(%r12,%rdx,1),%rcx
    553d:	48 89 4c 10 f8       	mov    %rcx,-0x8(%rax,%rdx,1)
    5542:	8d 4b ff             	lea    -0x1(%rbx),%ecx
    5545:	c1 e9 03             	shr    $0x3,%ecx
    5548:	f3 48 a5             	rep movsq %ds:(%rsi),%es:(%rdi)
    554b:	e9 c1 fe ff ff       	jmp    5411 <send_headers+0x241>
  return __builtin___strcpy_chk (__dest, __src, __glibc_objsize (__dest));
    5550:	66 0f 6f 05 98 49 00 00 	movdqa 0x4998(%rip),%xmm0        # 9ef0 <_IO_stdin_used+0xef0>
    5558:	0f 29 84 24 00 04 00 00 	movaps %xmm0,0x400(%rsp)
    5560:	66 0f 6f 05 a8 49 00 00 	movdqa 0x49a8(%rip),%xmm0        # 9f10 <_IO_stdin_used+0xf10>
    5568:	0f 11 84 24 0a 04 00 00 	movups %xmm0,0x40a(%rsp)
    5570:	e9 cb fd ff ff       	jmp    5340 <send_headers+0x170>
    5575:	0f 1f 00             	nopl   (%rax)
  return __builtin___memcpy_chk (__dest, __src, __len,
    5578:	89 da                	mov    %ebx,%edx
    557a:	48 89 c7             	mov    %rax,%rdi
    557d:	4c 89 e6             	mov    %r12,%rsi
    5580:	49 8b 4c 14 f8       	mov    -0x8(%r12,%rdx,1),%rcx
    5585:	48 89 4c 10 f8       	mov    %rcx,-0x8(%rax,%rdx,1)
    558a:	8d 4b ff             	lea    -0x1(%rbx),%ecx
    558d:	c1 e9 03             	shr    $0x3,%ecx
    5590:	f3 48 a5             	rep movsq %ds:(%rsi),%es:(%rdi)
    5593:	e9 e4 fe ff ff       	jmp    547c <send_headers+0x2ac>
    5598:	0f 1f 84 00 00 00 00 00 	nopl   0x0(%rax,%rax,1)
        return "";
    55a0:	48 8d 1d 4f 3b 00 00 	lea    0x3b4f(%rip),%rbx        # 90f6 <_IO_stdin_used+0xf6>
    55a7:	e9 94 fd ff ff       	jmp    5340 <send_headers+0x170>
    55ac:	0f 1f 40 00          	nopl   0x0(%rax)
  return __builtin___strcpy_chk (__dest, __src, __glibc_objsize (__dest));
    55b0:	66 0f 6f 05 78 49 00 00 	movdqa 0x4978(%rip),%xmm0        # 9f30 <_IO_stdin_used+0xf30>
    55b8:	0f 29 84 24 00 04 00 00 	movaps %xmm0,0x400(%rsp)
    55c0:	66 0f 6f 05 78 49 00 00 	movdqa 0x4978(%rip),%xmm0        # 9f40 <_IO_stdin_used+0xf40>
    55c8:	0f 11 84 24 0a 04 00 00 	movups %xmm0,0x40a(%rsp)
    55d0:	e9 b0 fd ff ff       	jmp    5385 <send_headers+0x1b5>
    55d5:	0f 1f 00             	nopl   (%rax)
    55d8:	66 0f 6f 05 50 49 00 00 	movdqa 0x4950(%rip),%xmm0        # 9f30 <_IO_stdin_used+0xf30>
    55e0:	0f 29 84 24 00 04 00 00 	movaps %xmm0,0x400(%rsp)
    55e8:	66 0f 6f 05 50 49 00 00 	movdqa 0x4950(%rip),%xmm0        # 9f40 <_IO_stdin_used+0xf40>
    55f0:	0f 11 84 24 0a 04 00 00 	movups %xmm0,0x40a(%rsp)
    55f8:	e9 71 fd ff ff       	jmp    536e <send_headers+0x19e>
    55fd:	0f 1f 00             	nopl   (%rax)
    5600:	66 0f 6f 05 e8 48 00 00 	movdqa 0x48e8(%rip),%xmm0        # 9ef0 <_IO_stdin_used+0xef0>
    5608:	0f 29 84 24 00 04 00 00 	movaps %xmm0,0x400(%rsp)
    5610:	66 0f 6f 05 08 49 00 00 	movdqa 0x4908(%rip),%xmm0        # 9f20 <_IO_stdin_used+0xf20>
    5618:	0f 11 84 24 0a 04 00 00 	movups %xmm0,0x40a(%rsp)
    5620:	e9 32 fd ff ff       	jmp    5357 <send_headers+0x187>
    5625:	0f 1f 00             	nopl   (%rax)
    5628:	66 0f 6f 05 00 49 00 00 	movdqa 0x4900(%rip),%xmm0        # 9f30 <_IO_stdin_used+0xf30>
    5630:	0f 29 84 24 00 04 00 00 	movaps %xmm0,0x400(%rsp)
    5638:	66 0f 6f 05 40 49 00 00 	movdqa 0x4940(%rip),%xmm0        # 9f80 <_IO_stdin_used+0xf80>
    5640:	0f 11 84 24 0b 04 00 00 	movups %xmm0,0x40b(%rsp)
    5648:	e9 6f fd ff ff       	jmp    53bc <send_headers+0x1ec>
    564d:	0f 1f 00             	nopl   (%rax)
    5650:	66 0f 6f 05 d8 48 00 00 	movdqa 0x48d8(%rip),%xmm0        # 9f30 <_IO_stdin_used+0xf30>
    5658:	0f 29 84 24 00 04 00 00 	movaps %xmm0,0x400(%rsp)
    5660:	66 0f 6f 05 08 49 00 00 	movdqa 0x4908(%rip),%xmm0        # 9f70 <_IO_stdin_used+0xf70>
    5668:	0f 11 84 24 09 04 00 00 	movups %xmm0,0x409(%rsp)
    5670:	e9 30 fd ff ff       	jmp    53a5 <send_headers+0x1d5>
  return __builtin___memcpy_chk (__dest, __src, __len,
    5675:	8b 94 24 00 04 00 00 	mov    0x400(%rsp),%edx
    567c:	89 db                	mov    %ebx,%ebx
    567e:	89 10                	mov    %edx,(%rax)
    5680:	41 8b 54 1c fc       	mov    -0x4(%r12,%rbx,1),%edx
    5685:	89 54 18 fc          	mov    %edx,-0x4(%rax,%rbx,1)
    5689:	e9 83 fd ff ff       	jmp    5411 <send_headers+0x241>
    568e:	8b 94 24 00 04 00 00 	mov    0x400(%rsp),%edx
    5695:	89 db                	mov    %ebx,%ebx
    5697:	89 10                	mov    %edx,(%rax)
    5699:	41 8b 54 1c fc       	mov    -0x4(%r12,%rbx,1),%edx
    569e:	89 54 18 fc          	mov    %edx,-0x4(%rax,%rbx,1)
    56a2:	e9 d5 fd ff ff       	jmp    547c <send_headers+0x2ac>
    56a7:	89 db                	mov    %ebx,%ebx
    56a9:	41 0f b7 54 1c fe    	movzwl -0x2(%r12,%rbx,1),%edx
    56af:	66 89 54 18 fe       	mov    %dx,-0x2(%rax,%rbx,1)
    56b4:	e9 58 fd ff ff       	jmp    5411 <send_headers+0x241>
    56b9:	89 db                	mov    %ebx,%ebx
    56bb:	41 0f b7 54 1c fe    	movzwl -0x2(%r12,%rbx,1),%edx
    56c1:	66 89 54 18 fe       	mov    %dx,-0x2(%rax,%rbx,1)
    56c6:	e9 b1 fd ff ff       	jmp    547c <send_headers+0x2ac>
  return __fprintf_chk (__stream, __USE_FORTIFY_LEVEL - 1, __fmt,
    56cb:	48 8b 0d 4e 69 00 00 	mov    0x694e(%rip),%rcx        # c020 <stderr@GLIBC_2.2.5>
    56d2:	ba 28 00 00 00       	mov    $0x28,%edx
    56d7:	be 01 00 00 00       	mov    $0x1,%esi
    56dc:	48 8d 3d f5 3f 00 00 	lea    0x3ff5(%rip),%rdi        # 96d8 <_IO_stdin_used+0x6d8>
    56e3:	e8 58 ce ff ff       	call   2540 <fwrite@plt>
        exit(1);
    56e8:	bf 01 00 00 00       	mov    $0x1,%edi
    56ed:	e8 2e ce ff ff       	call   2520 <exit@plt>
}
    56f2:	e8 99 cc ff ff       	call   2390 <__stack_chk_fail@plt>
    56f7:	66 0f 1f 84 00 00 00 00 00 	nopw   0x0(%rax,%rax,1)

0000000000005700 <copy_file_contents>:
void copy_file_contents(char *file_path, off_t file_size, struct iovec *iov) {
    5700:	f3 0f 1e fa          	endbr64
    5704:	41 55                	push   %r13
    5706:	49 89 d5             	mov    %rdx,%r13
    5709:	41 54                	push   %r12
    570b:	49 89 fc             	mov    %rdi,%r12
    void *buf = malloc(size);
    570e:	48 89 f7             	mov    %rsi,%rdi
void copy_file_contents(char *file_path, off_t file_size, struct iovec *iov) {
    5711:	55                   	push   %rbp
    5712:	53                   	push   %rbx
    5713:	48 89 f3             	mov    %rsi,%rbx
    5716:	48 83 ec 08          	sub    $0x8,%rsp
    void *buf = malloc(size);
    571a:	e8 61 cd ff ff       	call   2480 <malloc@plt>
    if (!buf) {
    571f:	48 85 c0             	test   %rax,%rax
    5722:	74 6b                	je     578f <copy_file_contents+0x8f>
      if (__OPEN_NEEDS_MODE (__oflag) && __va_arg_pack_len () < 1)
	{
	  __open_missing_mode ();
	  return __open_2 (__path, __oflag);
	}
      return __open_alias (__path, __oflag, __va_arg_pack ());
    5724:	4c 89 e7             	mov    %r12,%rdi
    5727:	48 89 c5             	mov    %rax,%rbp
    572a:	31 f6                	xor    %esi,%esi
    572c:	31 c0                	xor    %eax,%eax
    572e:	e8 bd cd ff ff       	call   24f0 <open@plt>
    5733:	41 89 c4             	mov    %eax,%r12d
    if (fd < 0)
    5736:	85 c0                	test   %eax,%eax
    5738:	0f 88 b8 ce ff ff    	js     25f6 <copy_file_contents.cold>
# include <bits/unistd-decl.h>

__fortify_function __wur ssize_t
read (int __fd, void *__buf, size_t __nbytes)
{
  return __glibc_fortify (read, __nbytes, sizeof (char),
    573e:	48 89 da             	mov    %rbx,%rdx
    5741:	48 89 ee             	mov    %rbp,%rsi
    5744:	89 c7                	mov    %eax,%edi
    5746:	e8 b5 cc ff ff       	call   2400 <read@plt>
    if (ret < file_size) {
    574b:	48 98                	cltq
    574d:	48 39 d8             	cmp    %rbx,%rax
    5750:	7c 1e                	jl     5770 <copy_file_contents+0x70>
    close(fd);
    5752:	44 89 e7             	mov    %r12d,%edi
    5755:	e8 86 cc ff ff       	call   23e0 <close@plt>
    iov->iov_base = buf;
    575a:	49 89 6d 00          	mov    %rbp,0x0(%r13)
    iov->iov_len = file_size;
    575e:	49 89 5d 08          	mov    %rbx,0x8(%r13)
}
    5762:	48 83 c4 08          	add    $0x8,%rsp
    5766:	5b                   	pop    %rbx
    5767:	5d                   	pop    %rbp
    5768:	41 5c                	pop    %r12
    576a:	41 5d                	pop    %r13
    576c:	c3                   	ret
    576d:	0f 1f 00             	nopl   (%rax)
    5770:	48 8b 0d a9 68 00 00 	mov    0x68a9(%rip),%rcx        # c020 <stderr@GLIBC_2.2.5>
    5777:	ba 1a 00 00 00       	mov    $0x1a,%edx
    577c:	be 01 00 00 00       	mov    $0x1,%esi
    5781:	48 8d 3d 6f 39 00 00 	lea    0x396f(%rip),%rdi        # 90f7 <_IO_stdin_used+0xf7>
    5788:	e8 b3 cd ff ff       	call   2540 <fwrite@plt>
    578d:	eb c3                	jmp    5752 <copy_file_contents+0x52>
    578f:	48 8b 0d 8a 68 00 00 	mov    0x688a(%rip),%rcx        # c020 <stderr@GLIBC_2.2.5>
    5796:	ba 28 00 00 00       	mov    $0x28,%edx
    579b:	be 01 00 00 00       	mov    $0x1,%esi
    57a0:	48 8d 3d 31 3f 00 00 	lea    0x3f31(%rip),%rdi        # 96d8 <_IO_stdin_used+0x6d8>
    57a7:	e8 94 cd ff ff       	call   2540 <fwrite@plt>
        exit(1);
    57ac:	bf 01 00 00 00       	mov    $0x1,%edi
    57b1:	e8 6a cd ff ff       	call   2520 <exit@plt>
    57b6:	66 2e 0f 1f 84 00 00 00 00 00 	cs nopw 0x0(%rax,%rax,1)

00000000000057c0 <add_write_request>:
int add_write_request(struct KernelThread *data, struct Buffers *buffers, struct Request *req, struct io_uring *ring) {
    57c0:	f3 0f 1e fa          	endbr64
    57c4:	41 55                	push   %r13
    struct Write *write = calloc(1, sizeof(struct Write));
    57c6:	be 10 00 00 00       	mov    $0x10,%esi
int add_write_request(struct KernelThread *data, struct Buffers *buffers, struct Request *req, struct io_uring *ring) {
    57cb:	49 89 fd             	mov    %rdi,%r13
    struct Write *write = calloc(1, sizeof(struct Write));
    57ce:	bf 01 00 00 00       	mov    $0x1,%edi
int add_write_request(struct KernelThread *data, struct Buffers *buffers, struct Request *req, struct io_uring *ring) {
    57d3:	41 54                	push   %r12
    57d5:	55                   	push   %rbp
    57d6:	53                   	push   %rbx
    57d7:	48 89 d3             	mov    %rdx,%rbx
    57da:	48 83 ec 08          	sub    $0x8,%rsp
    struct Write *write = calloc(1, sizeof(struct Write));
    57de:	e8 2d cc ff ff       	call   2410 <calloc@plt>
    buffersend(data, &data->iomailboxes[data->other_io], IO_WRITE, write);
    57e3:	49 63 ad 10 01 00 00 	movslq 0x110(%r13),%rbp
    req->event_type = EVENT_TYPE_WRITE;
    57ea:	c7 03 02 00 00 00    	movl   $0x2,(%rbx)
    struct Write *write = calloc(1, sizeof(struct Write));
    57f0:	49 89 c4             	mov    %rax,%r12
    write->client_socket = req->client_socket;
    57f3:	8b 43 08             	mov    0x8(%rbx),%eax
    write->request = req;
    57f6:	49 89 1c 24          	mov    %rbx,(%r12)
    buffersend(data, &data->iomailboxes[data->other_io], IO_WRITE, write);
    57fa:	48 c1 e5 04          	shl    $0x4,%rbp
    57fe:	49 03 ad 08 01 00 00 	add    0x108(%r13),%rbp
    write->client_socket = req->client_socket;
    5805:	41 89 44 24 08       	mov    %eax,0x8(%r12)
  while (data->running == 1) {
    580a:	41 83 7d 44 01       	cmpl   $0x1,0x44(%r13)
    580f:	75 6a                	jne    587b <add_write_request+0xbb>
      for (int x = 0 ; x < buffers->count ; x++) {
    5811:	48 63 45 00          	movslq 0x0(%rbp),%rax
    5815:	85 c0                	test   %eax,%eax
    5817:	7e f1                	jle    580a <add_write_request+0x4a>
        if (buffers->buffer[x].available == 0) {
    5819:	48 8b 55 08          	mov    0x8(%rbp),%rdx
    581d:	48 c1 e0 08          	shl    $0x8,%rax
    5821:	31 db                	xor    %ebx,%ebx
    5823:	eb 0f                	jmp    5834 <add_write_request+0x74>
    5825:	0f 1f 00             	nopl   (%rax)
      for (int x = 0 ; x < buffers->count ; x++) {
    5828:	48 81 c3 00 01 00 00 	add    $0x100,%rbx
    582f:	48 39 c3             	cmp    %rax,%rbx
    5832:	74 d6                	je     580a <add_write_request+0x4a>
        if (buffers->buffer[x].available == 0) {
    5834:	8b 8c 1a 80 00 00 00 	mov    0x80(%rdx,%rbx,1),%ecx
    583b:	85 c9                	test   %ecx,%ecx
    583d:	75 e9                	jne    5828 <add_write_request+0x68>
  return __printf_chk (__USE_FORTIFY_LEVEL - 1, __fmt, __va_arg_pack ());
    583f:	8b 8c 1a 98 00 00 00 	mov    0x98(%rdx,%rbx,1),%ecx
    5846:	49 8b 95 18 01 00 00 	mov    0x118(%r13),%rdx
    584d:	bf 01 00 00 00       	mov    $0x1,%edi
    5852:	31 c0                	xor    %eax,%eax
    5854:	48 8d 35 b7 38 00 00 	lea    0x38b7(%rip),%rsi        # 9112 <_IO_stdin_used+0x112>
    585b:	e8 60 cc ff ff       	call   24c0 <__printf_chk@plt>
          buffers->buffer[x].data = send;
    5860:	48 03 5d 08          	add    0x8(%rbp),%rbx
    5864:	4c 89 23             	mov    %r12,(%rbx)
          buffers->buffer[x].kind = kind;
    5867:	c7 83 98 00 00 00 02 00 00 00 	movl   $0x2,0x98(%rbx)
          buffers->buffer[x].available = 1;
    5871:	c7 83 80 00 00 00 01 00 00 00 	movl   $0x1,0x80(%rbx)
}
    587b:	48 83 c4 08          	add    $0x8,%rsp
    587f:	31 c0                	xor    %eax,%eax
    5881:	5b                   	pop    %rbx
    5882:	5d                   	pop    %rbp
    5883:	41 5c                	pop    %r12
    5885:	41 5d                	pop    %r13
    5887:	c3                   	ret
    5888:	0f 1f 84 00 00 00 00 00 	nopl   0x0(%rax,%rax,1)

0000000000005890 <add_read_request>:
int add_read_request(struct KernelThread *data, struct Buffers *buffers, int client_socket, struct io_uring *ring) {
    5890:	f3 0f 1e fa          	endbr64
    5894:	41 55                	push   %r13
    5896:	41 89 d5             	mov    %edx,%r13d
    5899:	41 54                	push   %r12
    589b:	55                   	push   %rbp
    589c:	53                   	push   %rbx
    589d:	48 89 cb             	mov    %rcx,%rbx
    58a0:	48 83 ec 08          	sub    $0x8,%rsp
 * Returns a vacant sqe, or NULL if we're full.
 */
IOURINGINLINE struct io_uring_sqe *_io_uring_get_sqe(struct io_uring *ring)
{
	struct io_uring_sq *sq = &ring->sq;
	unsigned int head, next = sq->sqe_tail + 1;
    58a4:	8b 41 44             	mov    0x44(%rcx),%eax
	int shift = 0;

	if (ring->flags & IORING_SETUP_SQE128)
		shift = 1;
	if (!(ring->flags & IORING_SETUP_SQPOLL))
		head = IO_URING_READ_ONCE(*sq->khead);
    58a7:	48 8b 13             	mov    (%rbx),%rdx
	if (ring->flags & IORING_SETUP_SQE128)
    58aa:	8b 89 c0 00 00 00    	mov    0xc0(%rcx),%ecx
	unsigned int head, next = sq->sqe_tail + 1;
    58b0:	83 c0 01             	add    $0x1,%eax
		head = IO_URING_READ_ONCE(*sq->khead);
    58b3:	8b 32                	mov    (%rdx),%esi
	if (!(ring->flags & IORING_SETUP_SQPOLL))
    58b5:	f6 c1 02             	test   $0x2,%cl
    58b8:	74 00                	je     58ba <add_read_request+0x2a>
	else
		head = io_uring_smp_load_acquire(sq->khead);

	if (next - head <= sq->ring_entries) {
    58ba:	89 c2                	mov    %eax,%edx
    58bc:	29 f2                	sub    %esi,%edx
    58be:	39 53 5c             	cmp    %edx,0x5c(%rbx)
    58c1:	0f 82 3b cd ff ff    	jb     2602 <add_read_request.cold>
		struct io_uring_sqe *sqe;

		sqe = &sq->sqes[(sq->sqe_tail & sq->ring_mask) << shift];
    58c7:	8b 6b 44             	mov    0x44(%rbx),%ebp
	if (ring->flags & IORING_SETUP_SQE128)
    58ca:	c1 e9 0a             	shr    $0xa,%ecx
		sq->sqe_tail = next;
    58cd:	89 43 44             	mov    %eax,0x44(%rbx)
    struct Request *req = malloc(sizeof(*req) + sizeof(struct iovec));
    58d0:	bf 20 00 00 00       	mov    $0x20,%edi
	if (ring->flags & IORING_SETUP_SQE128)
    58d5:	83 e1 01             	and    $0x1,%ecx
		sqe = &sq->sqes[(sq->sqe_tail & sq->ring_mask) << shift];
    58d8:	23 6b 58             	and    0x58(%rbx),%ebp
    58db:	d3 e5                	shl    %cl,%ebp
    58dd:	48 c1 e5 06          	shl    $0x6,%rbp
    58e1:	48 03 6b 38          	add    0x38(%rbx),%rbp
    58e5:	e8 96 cb ff ff       	call   2480 <malloc@plt>
    req->iov[0].iov_base = malloc(READ_SZ);
    58ea:	be 01 00 00 00       	mov    $0x1,%esi
    58ef:	bf 00 20 00 00       	mov    $0x2000,%edi
    struct Request *req = malloc(sizeof(*req) + sizeof(struct iovec));
    58f4:	49 89 c4             	mov    %rax,%r12
    req->iov[0].iov_base = malloc(READ_SZ);
    58f7:	e8 14 cb ff ff       	call   2410 <calloc@plt>
    req->client_socket = client_socket;
    58fc:	45 89 6c 24 08       	mov    %r13d,0x8(%r12)
	sqe->addr3 = 0;
    5901:	66 0f ef c0          	pxor   %xmm0,%xmm0
    io_uring_submit(ring);
    5905:	48 89 df             	mov    %rbx,%rdi
    req->iov[0].iov_base = malloc(READ_SZ);
    5908:	49 89 44 24 10       	mov    %rax,0x10(%r12)
    io_uring_prep_readv(sqe, client_socket, &req->iov[0], 1, 0);
    590d:	49 8d 44 24 10       	lea    0x10(%r12),%rax
    req->iov[0].iov_len = READ_SZ;
    5912:	49 c7 44 24 18 00 20 00 00 	movq   $0x2000,0x18(%r12)
    req->event_type = EVENT_TYPE_READ;
    591b:	41 c7 04 24 01 00 00 00 	movl   $0x1,(%r12)
	sqe->fd = fd;
    5923:	44 89 6d 04          	mov    %r13d,0x4(%rbp)
	sqe->user_data = (unsigned long) data;
    5927:	4c 89 65 20          	mov    %r12,0x20(%rbp)
	sqe->opcode = (__u8) op;
    592b:	c7 45 00 01 00 00 00 	movl   $0x1,0x0(%rbp)
	sqe->off = offset;
    5932:	48 c7 45 08 00 00 00 00 	movq   $0x0,0x8(%rbp)
    io_uring_prep_readv(sqe, client_socket, &req->iov[0], 1, 0);
    593a:	48 89 45 10          	mov    %rax,0x10(%rbp)
	sqe->len = len;
    593e:	48 c7 45 18 01 00 00 00 	movq   $0x1,0x18(%rbp)
	sqe->buf_index = 0;
    5946:	48 c7 45 28 00 00 00 00 	movq   $0x0,0x28(%rbp)
	sqe->addr3 = 0;
    594e:	0f 11 45 30          	movups %xmm0,0x30(%rbp)
    io_uring_submit(ring);
    5952:	e8 49 ca ff ff       	call   23a0 <io_uring_submit@plt>
}
    5957:	48 83 c4 08          	add    $0x8,%rsp
    595b:	31 c0                	xor    %eax,%eax
    595d:	5b                   	pop    %rbx
    595e:	5d                   	pop    %rbp
    595f:	41 5c                	pop    %r12
    5961:	41 5d                	pop    %r13
    5963:	c3                   	ret
    5964:	66 66 2e 0f 1f 84 00 00 00 00 00 	data16 cs nopw 0x0(%rax,%rax,1)
    596f:	90                   	nop

0000000000005970 <_send_static_string_content>:
void _send_static_string_content(struct KernelThread *data, struct Buffers *buffers, const char *str, int client_socket, struct io_uring *ring) {
    5970:	f3 0f 1e fa          	endbr64
    5974:	41 56                	push   %r14
    5976:	41 89 ce             	mov    %ecx,%r14d
    5979:	41 55                	push   %r13
    597b:	41 54                	push   %r12
    597d:	49 89 d4             	mov    %rdx,%r12
    5980:	55                   	push   %rbp
    5981:	48 89 fd             	mov    %rdi,%rbp
    void *buf = malloc(size);
    5984:	bf 20 00 00 00       	mov    $0x20,%edi
void _send_static_string_content(struct KernelThread *data, struct Buffers *buffers, const char *str, int client_socket, struct io_uring *ring) {
    5989:	53                   	push   %rbx
    void *buf = malloc(size);
    598a:	e8 f1 ca ff ff       	call   2480 <malloc@plt>
    if (!buf) {
    598f:	48 85 c0             	test   %rax,%rax
    5992:	0f 84 f5 00 00 00    	je     5a8d <_send_static_string_content+0x11d>
    5998:	48 89 c3             	mov    %rax,%rbx
    unsigned long slen = strlen(str);
    599b:	4c 89 e7             	mov    %r12,%rdi
    599e:	e8 dd c9 ff ff       	call   2380 <strlen@plt>
    req->iovec_count = 1;
    59a3:	c7 43 04 01 00 00 00 	movl   $0x1,0x4(%rbx)
    req->client_socket = client_socket;
    59aa:	44 89 73 08          	mov    %r14d,0x8(%rbx)
    void *buf = malloc(size);
    59ae:	48 89 c7             	mov    %rax,%rdi
    unsigned long slen = strlen(str);
    59b1:	49 89 c5             	mov    %rax,%r13
    void *buf = malloc(size);
    59b4:	e8 c7 ca ff ff       	call   2480 <malloc@plt>
    59b9:	48 89 c7             	mov    %rax,%rdi
    if (!buf) {
    59bc:	48 85 c0             	test   %rax,%rax
    59bf:	0f 84 c8 00 00 00    	je     5a8d <_send_static_string_content+0x11d>
    req->iov[0].iov_len = slen;
    59c5:	4c 89 6b 18          	mov    %r13,0x18(%rbx)
    59c9:	4c 89 ea             	mov    %r13,%rdx
    59cc:	4c 89 e6             	mov    %r12,%rsi
    req->iov[0].iov_base = zh_malloc(slen);
    59cf:	48 89 43 10          	mov    %rax,0x10(%rbx)
    59d3:	e8 78 ca ff ff       	call   2450 <memcpy@plt>
    59d8:	4c 89 e7             	mov    %r12,%rdi
    59db:	e8 60 c9 ff ff       	call   2340 <puts@plt>
    struct Write *write = calloc(1, sizeof(struct Write));
    59e0:	be 10 00 00 00       	mov    $0x10,%esi
    59e5:	bf 01 00 00 00       	mov    $0x1,%edi
    59ea:	e8 21 ca ff ff       	call   2410 <calloc@plt>
    buffersend(data, &data->iomailboxes[data->other_io], IO_WRITE, write);
    59ef:	4c 63 a5 10 01 00 00 	movslq 0x110(%rbp),%r12
    req->event_type = EVENT_TYPE_WRITE;
    59f6:	c7 03 02 00 00 00    	movl   $0x2,(%rbx)
    struct Write *write = calloc(1, sizeof(struct Write));
    59fc:	49 89 c5             	mov    %rax,%r13
    write->client_socket = req->client_socket;
    59ff:	8b 43 08             	mov    0x8(%rbx),%eax
    write->request = req;
    5a02:	49 89 5d 00          	mov    %rbx,0x0(%r13)
    buffersend(data, &data->iomailboxes[data->other_io], IO_WRITE, write);
    5a06:	49 c1 e4 04          	shl    $0x4,%r12
    5a0a:	4c 03 a5 08 01 00 00 	add    0x108(%rbp),%r12
    write->client_socket = req->client_socket;
    5a11:	41 89 45 08          	mov    %eax,0x8(%r13)
  while (data->running == 1) {
    5a15:	83 7d 44 01          	cmpl   $0x1,0x44(%rbp)
    5a19:	75 69                	jne    5a84 <_send_static_string_content+0x114>
      for (int x = 0 ; x < buffers->count ; x++) {
    5a1b:	49 63 04 24          	movslq (%r12),%rax
    5a1f:	85 c0                	test   %eax,%eax
    5a21:	7e f2                	jle    5a15 <_send_static_string_content+0xa5>
        if (buffers->buffer[x].available == 0) {
    5a23:	49 8b 54 24 08       	mov    0x8(%r12),%rdx
    5a28:	48 c1 e0 08          	shl    $0x8,%rax
    5a2c:	31 db                	xor    %ebx,%ebx
    5a2e:	eb 0c                	jmp    5a3c <_send_static_string_content+0xcc>
      for (int x = 0 ; x < buffers->count ; x++) {
    5a30:	48 81 c3 00 01 00 00 	add    $0x100,%rbx
    5a37:	48 39 c3             	cmp    %rax,%rbx
    5a3a:	74 d9                	je     5a15 <_send_static_string_content+0xa5>
        if (buffers->buffer[x].available == 0) {
    5a3c:	8b 8c 1a 80 00 00 00 	mov    0x80(%rdx,%rbx,1),%ecx
    5a43:	85 c9                	test   %ecx,%ecx
    5a45:	75 e9                	jne    5a30 <_send_static_string_content+0xc0>
    5a47:	8b 8c 1a 98 00 00 00 	mov    0x98(%rdx,%rbx,1),%ecx
    5a4e:	48 8b 95 18 01 00 00 	mov    0x118(%rbp),%rdx
    5a55:	bf 01 00 00 00       	mov    $0x1,%edi
    5a5a:	31 c0                	xor    %eax,%eax
    5a5c:	48 8d 35 af 36 00 00 	lea    0x36af(%rip),%rsi        # 9112 <_IO_stdin_used+0x112>
    5a63:	e8 58 ca ff ff       	call   24c0 <__printf_chk@plt>
          buffers->buffer[x].data = send;
    5a68:	49 03 5c 24 08       	add    0x8(%r12),%rbx
    5a6d:	4c 89 2b             	mov    %r13,(%rbx)
          buffers->buffer[x].kind = kind;
    5a70:	c7 83 98 00 00 00 02 00 00 00 	movl   $0x2,0x98(%rbx)
          buffers->buffer[x].available = 1;
    5a7a:	c7 83 80 00 00 00 01 00 00 00 	movl   $0x1,0x80(%rbx)
}
    5a84:	5b                   	pop    %rbx
    5a85:	5d                   	pop    %rbp
    5a86:	41 5c                	pop    %r12
    5a88:	41 5d                	pop    %r13
    5a8a:	41 5e                	pop    %r14
    5a8c:	c3                   	ret
  return __fprintf_chk (__stream, __USE_FORTIFY_LEVEL - 1, __fmt,
    5a8d:	48 8b 0d 8c 65 00 00 	mov    0x658c(%rip),%rcx        # c020 <stderr@GLIBC_2.2.5>
    5a94:	ba 28 00 00 00       	mov    $0x28,%edx
    5a99:	be 01 00 00 00       	mov    $0x1,%esi
    5a9e:	48 8d 3d 33 3c 00 00 	lea    0x3c33(%rip),%rdi        # 96d8 <_IO_stdin_used+0x6d8>
    5aa5:	e8 96 ca ff ff       	call   2540 <fwrite@plt>
        exit(1);
    5aaa:	bf 01 00 00 00       	mov    $0x1,%edi
    5aaf:	e8 6c ca ff ff       	call   2520 <exit@plt>
    5ab4:	66 66 2e 0f 1f 84 00 00 00 00 00 	data16 cs nopw 0x0(%rax,%rax,1)
    5abf:	90                   	nop

0000000000005ac0 <handle_unimplemented_method>:
void handle_unimplemented_method(struct KernelThread *data, struct Buffers *buffers, int client_socket, struct io_uring *ring) {
    5ac0:	f3 0f 1e fa          	endbr64
    5ac4:	49 89 c8             	mov    %rcx,%r8
    _send_static_string_content(data, buffers, unimplemented_content, client_socket, ring);
